RASU8(ML610112)Relocatable Assembler, Ver.1.61.2    assemble list. page:   1 
 Source File: _output\_obj\main.asm
 Object File: _output\_obj\main.obj
 Date  : 2014/10/06 Mon.[16:19]
 Title : 
## Loc. Object                   Line   Source Statements

                                    1   ;; Compile Options : /TML610112 /MS /near /Icommon /Imain /Iirq /Itimer /Iclock /Itbc /Iuart /Ii2c /SS 256 /SD /Oa /Ot /W 3 /Wc /Fa_output\_obj\ 
                                    2   ;; Version Number  : Ver.3.41.8
                                    3   ;; File Name       : main.c
                                    4   
                                    5   	type (ML610112) 
                                    6   	model small, near
                                    7   	$$NVARmain segment data 2h #0h
                                    8   	$$NINITVAR segment data 2h #0h
                                    9   	$$NINITTAB segment table 2h any
                                   10   	$$NTABmain segment table 2h #0h
                                   11   	$$ADC_Read$main segment code 2h #0h
                                   12   	$$DeviceSelection$main segment code 2h #0h
                                   13   	$$FlashLEDs$main segment code 2h #0h
                                   14   	$$I2C_Read$main segment code 2h #0h
                                   15   	$$I2C_Write$main segment code 2h #0h
                                   16   	$$Init_Ambient_Light_Sensor_5$main segment code 2h #0h
                                   17   	$$Init_Ambient_Light_Sensor_6$main segment code 2h #0h
                                   18   	$$Init_Ambient_Light_Sensor_7$main segment code 2h #0h
                                   19   	$$Init_Ambient_Light_Sensor_8$main segment code 2h #0h
                                   20   	$$Init_Ambient_Light_Sensor_9$main segment code 2h #0h
                                   21   	$$Init_Hall_Effect_Sensors_1$main segment code 2h #0h
                                   22   	$$Init_Hall_Effect_Sensors_2$main segment code 2h #0h
                                   23   	$$Init_KMX61$main segment code 2h #0h
                                   24   	$$Init_KX022$main segment code 2h #0h
                                   25   	$$Init_Temperature_Sensor_20$main segment code 2h #0h
                                   26   	$$Init_Temperature_Sensor_21$main segment code 2h #0h
                                   27   	$$Init_Temperature_Sensor_22$main segment code 2h #0h
                                   28   	$$Init_Temperature_Sensor_23$main segment code 2h #0h
                                   29   	$$Init_UV_Sensor_10$main segment code 2h #0h
                                   30   	$$Initialization$main segment code 2h #0h
                                   31   	$$MainOp_Ambient_Light_Sensor_5$main segment code 2h #0h
                                   32   	$$MainOp_Ambient_Light_Sensor_6$main segment code 2h #0h
                                   33   	$$MainOp_Ambient_Light_Sensor_7$main segment code 2h #0h
                                   34   	$$MainOp_Ambient_Light_Sensor_8$main segment code 2h #0h
                                   35   	$$MainOp_Ambient_Light_Sensor_9$main segment code 2h #0h
                                   36   	$$MainOp_Hall_Effect_Sensors_1$main segment code 2h #0h
                                   37   	$$MainOp_Hall_Effect_Sensors_2$main segment code 2h #0h
                                   38   	$$MainOp_KMX61$main segment code 2h #0h
                                   39   	$$MainOp_KX022$main segment code 2h #0h
                                   40   	$$MainOp_Temperature_Sensor_20$main segment code 2h #0h
                                   41   	$$MainOp_Temperature_Sensor_21$main segment code 2h #0h
                                   42   	$$MainOp_Temperature_Sensor_22$main segment code 2h #0h
                                   43   	$$MainOp_Temperature_Sensor_23$main segment code 2h #0h
                                   44   	$$MainOp_UV_Sensor_10$main segment code 2h #0h
                                   45   	$$NOPms$main segment code 2h #0h
                                   46   	$$PortA_Low$main segment code 2h #0h
                                   47   	$$PortB_Low$main segment code 2h #0h
                                   48   	$$PortC_Low$main segment code 2h #0h
                                   49   	$$PortD_Low$main segment code 2h #0h
                                   50   	$$ReverseBits$main segment code 2h #0h
                                   51   	$$SensorInitialization$main segment code 2h #0h
                                   52   	$$SetOSC$main segment code 2h #0h
                                   53   	$$TAB$$S123$main segment table 2h #0h
                                   54   	$$TAB$$S132$main segment table 2h #0h
                                   55   	$$TAB$$S141$main segment table 2h #0h
                                   56   	$$TAB$$S143$main segment table 2h #0h
                                   57   	$$TAB$$S147$main segment table 2h #0h
                                   58   	$$TAB$$S149$main segment table 2h #0h
                                   59   	$$TAB$$S160$main segment table 2h #0h
                                   60   	$$TAB$$S162$main segment table 2h #0h
                                   61   	$$TAB$$S176$main segment table 2h #0h
                                   62   	$$TAB$$S178$main segment table 2h #0h
                                   63   	$$TAB$$S180$main segment table 2h #0h
                                   64   	$$TAB$$S182$main segment table 2h #0h
                                   65   	$$TAB$$S184$main segment table 2h #0h
                                   66   	$$TAB$$S197$main segment table 2h #0h
                                   67   	$$TAB$$S247$main segment table 2h #0h
                                   68   	$$TAB$$S249$main segment table 2h #0h
                                   69   	$$TAB$$S251$main segment table 2h #0h
                                   70   	$$TAB$$S254$main segment table 2h #0h
                                   71   	$$TAB$$S256$main segment table 2h #0h
                                   72   	$$TAB$$S258$main segment table 2h #0h
                                   73   	$$TAB$$S261$main segment table 2h #0h
                                   74   	$$TAB$$S263$main segment table 2h #0h
                                   75   	$$TAB$$S265$main segment table 2h #0h
                                   76   	$$TAB$$S268$main segment table 2h #0h
                                   77   	$$TAB$$S270$main segment table 2h #0h
                                   78   	$$TAB$$S30$main segment table 2h #0h
                                   79   	$$TAB$$S53$main segment table 2h #0h
                                   80   	$$TABBH1710FVC_CONT_H_RES_MOD$main segment table 2h #0h
                                   81   	$$TABBH1710FVC_CONT_L_RES_MOD$main segment table 2h #0h
                                   82   	$$TABBH1710FVC_CONT_M_RES_MOD$main segment table 2h #0h
                                   83   	$$TABBH1710FVC_ONET_H_RES_MOD$main segment table 2h #0h
                                   84   	$$TABBH1710FVC_ONET_L_RES_MOD$main segment table 2h #0h
                                   85   	$$TABBH1710FVC_ONET_M_RES_MOD$main segment table 2h #0h
                                   86   	$$TABBH1710FVC_RESET$main segment table 2h #0h
                                   87   	$$TABBH1721FVC_CONT_A_RES_MOD$main segment table 2h #0h
                                   88   	$$TABBH1721FVC_CONT_H_RES_MOD$main segment table 2h #0h
                                   89   	$$TABBH1721FVC_CONT_L_RES_MOD$main segment table 2h #0h
                                   90   	$$TABBH1730FVC_CMD_RESET_INT_OUT$main segment table 2h #0h
                                   91   	$$TABBH1730FVC_CMD_START_MIM$main segment table 2h #0h
                                   92   	$$TABBH1730FVC_CMD_STOP_MIM$main segment table 2h #0h
                                   93   	$$TABBH1730FVC_CMD_SW_RESET$main segment table 2h #0h
                                   94   	$$TABBH1730FVC_REG_CONTROL$main segment table 2h #0h
                                   95   	$$TABBH1730FVC_REG_DATA0HIGH$main segment table 2h #0h
                                   96   	$$TABBH1730FVC_REG_DATA0LOW$main segment table 2h #0h
                                   97   	$$TABBH1730FVC_REG_DATA1HIGH$main segment table 2h #0h
                                   98   	$$TABBH1730FVC_REG_DATA1LOW$main segment table 2h #0h
                                   99   	$$TABBH1730FVC_REG_GAIN$main segment table 2h #0h
                                  100   	$$TABBH1730FVC_REG_ID$main segment table 2h #0h
                                  101   	$$TABBH1730FVC_REG_INTERRUPT$main segment table 2h #0h
                                  102   	$$TABBH1730FVC_REG_THHHIGH$main segment table 2h #0h
                                  103   	$$TABBH1730FVC_REG_THHLOW$main segment table 2h #0h
                                  104   	$$TABBH1730FVC_REG_THLHIGH$main segment table 2h #0h
                                  105   	$$TABBH1730FVC_REG_THLLOW$main segment table 2h #0h
                                  106   	$$TABBH1730FVC_REG_TIMING$main segment table 2h #0h
                                  107   	$$TABBH1780GLI_REG_CONTROL$main segment table 2h #0h
                                  108   	$$TABBH1780GLI_REG_DATAHIGH$main segment table 2h #0h
                                  109   	$$TABBH1780GLI_REG_DATALOW$main segment table 2h #0h
                                  110   	$$TABBH1780GLI_REG_MFG_ID$main segment table 2h #0h
                                  111   	$$TABBH1780GLI_REG_PART_ID$main segment table 2h #0h
                                  112   	$$TABBH17xxFVC_ADDR_1$main segment table 2h #0h
                                  113   	$$TABBH17xxFVC_ADDR_2$main segment table 2h #0h
                                  114   	$$TABBH17xxFVC_PWR_DOWN$main segment table 2h #0h
                                  115   	$$TABBH17xxFVC_PWR_ON$main segment table 2h #0h
                                  116   	$$TABKMX61_ACCEL_XOUT_H$main segment table 2h #0h
                                  117   	$$TABKMX61_ACCEL_XOUT_L$main segment table 2h #0h
                                  118   	$$TABKMX61_ACCEL_YOUT_H$main segment table 2h #0h
                                  119   	$$TABKMX61_ACCEL_YOUT_L$main segment table 2h #0h
                                  120   	$$TABKMX61_ACCEL_ZOUT_H$main segment table 2h #0h
                                  121   	$$TABKMX61_ACCEL_ZOUT_L$main segment table 2h #0h
                                  122   	$$TABKMX61_BTH$main segment table 2h #0h
                                  123   	$$TABKMX61_BTSC$main segment table 2h #0h
                                  124   	$$TABKMX61_BUF_CLEAR$main segment table 2h #0h
                                  125   	$$TABKMX61_BUF_CTRL1$main segment table 2h #0h
                                  126   	$$TABKMX61_BUF_CTRL1_CFGDAT$main segment table 2h #0h
                                  127   	$$TABKMX61_BUF_CTRL2$main segment table 2h #0h
                                  128   	$$TABKMX61_BUF_CTRL2_CFGDAT$main segment table 2h #0h
                                  129   	$$TABKMX61_BUF_READ$main segment table 2h #0h
                                  130   	$$TABKMX61_BUF_STATUS_H$main segment table 2h #0h
                                  131   	$$TABKMX61_BUF_STATUS_L$main segment table 2h #0h
                                  132   	$$TABKMX61_BUF_STATUS_REG$main segment table 2h #0h
                                  133   	$$TABKMX61_BUF_THRESH_H$main segment table 2h #0h
                                  134   	$$TABKMX61_BUF_THRESH_L$main segment table 2h #0h
                                  135   	$$TABKMX61_CNTL1$main segment table 2h #0h
                                  136   	$$TABKMX61_CNTL1_CFGDAT$main segment table 2h #0h
                                  137   	$$TABKMX61_CNTL2$main segment table 2h #0h
                                  138   	$$TABKMX61_CNTL2_CFGDAT$main segment table 2h #0h
                                  139   	$$TABKMX61_COTR$main segment table 2h #0h
                                  140   	$$TABKMX61_I2C_ADDR$main segment table 2h #0h
                                  141   	$$TABKMX61_INC1$main segment table 2h #0h
                                  142   	$$TABKMX61_INC2$main segment table 2h #0h
                                  143   	$$TABKMX61_INC3$main segment table 2h #0h
                                  144   	$$TABKMX61_INL$main segment table 2h #0h
                                  145   	$$TABKMX61_INS1$main segment table 2h #0h
                                  146   	$$TABKMX61_INS2$main segment table 2h #0h
                                  147   	$$TABKMX61_MAG_XOUT_H$main segment table 2h #0h
                                  148   	$$TABKMX61_MAG_XOUT_L$main segment table 2h #0h
                                  149   	$$TABKMX61_MAG_YOUT_H$main segment table 2h #0h
                                  150   	$$TABKMX61_MAG_YOUT_L$main segment table 2h #0h
                                  151   	$$TABKMX61_MAG_ZOUT_H$main segment table 2h #0h
                                  152   	$$TABKMX61_MAG_ZOUT_L$main segment table 2h #0h
                                  153   	$$TABKMX61_ODCNTL$main segment table 2h #0h
                                  154   	$$TABKMX61_ODCNTL_CFGDAT$main segment table 2h #0h
                                  155   	$$TABKMX61_SELF_TEST$main segment table 2h #0h
                                  156   	$$TABKMX61_SELF_TEST_CFGDAT$main segment table 2h #0h
                                  157   	$$TABKMX61_SN_1$main segment table 2h #0h
                                  158   	$$TABKMX61_SN_2$main segment table 2h #0h
                                  159   	$$TABKMX61_SN_3$main segment table 2h #0h
                                  160   	$$TABKMX61_SN_4$main segment table 2h #0h
                                  161   	$$TABKMX61_STATUS_REG$main segment table 2h #0h
                                  162   	$$TABKMX61_STBY_REG$main segment table 2h #0h
                                  163   	$$TABKMX61_TEMP_EN_CNTL$main segment table 2h #0h
                                  164   	$$TABKMX61_TEMP_EN_CNTL_CFGDAT$main segment table 2h #0h
                                  165   	$$TABKMX61_TEMP_OUT_H$main segment table 2h #0h
                                  166   	$$TABKMX61_TEMP_OUT_L$main segment table 2h #0h
                                  167   	$$TABKMX61_WHO_AM_I$main segment table 2h #0h
                                  168   	$$TABKMX61_WUFC$main segment table 2h #0h
                                  169   	$$TABKMX61_WUFTH$main segment table 2h #0h
                                  170   	$$TABKMX61_XOUT_HPF_H$main segment table 2h #0h
                                  171   	$$TABKMX61_XOUT_HPF_L$main segment table 2h #0h
                                  172   	$$TABKMX61_YOUT_HPF_H$main segment table 2h #0h
                                  173   	$$TABKMX61_YOUT_HPF_L$main segment table 2h #0h
                                  174   	$$TABKMX61_ZOUT_HPF_H$main segment table 2h #0h
                                  175   	$$TABKMX61_ZOUT_HPF_L$main segment table 2h #0h
                                  176   	$$TABKX022_ATH$main segment table 2h #0h
                                  177   	$$TABKX022_BUF_CLEAR$main segment table 2h #0h
                                  178   	$$TABKX022_BUF_CNTL1$main segment table 2h #0h
                                  179   	$$TABKX022_BUF_CNTL2$main segment table 2h #0h
                                  180   	$$TABKX022_BUF_READ$main segment table 2h #0h
                                  181   	$$TABKX022_BUF_STATUS_1$main segment table 2h #0h
                                  182   	$$TABKX022_BUF_STATUS_2$main segment table 2h #0h
                                  183   	$$TABKX022_CNTL1$main segment table 2h #0h
                                  184   	$$TABKX022_CNTL1_CFGDAT$main segment table 2h #0h
                                  185   	$$TABKX022_CNTL2$main segment table 2h #0h
                                  186   	$$TABKX022_CNTL3$main segment table 2h #0h
                                  187   	$$TABKX022_CNTL3_CFGDAT$main segment table 2h #0h
                                  188   	$$TABKX022_COTR$main segment table 2h #0h
                                  189   	$$TABKX022_FTD$main segment table 2h #0h
                                  190   	$$TABKX022_HYST_SET$main segment table 2h #0h
                                  191   	$$TABKX022_I2C_ADDR$main segment table 2h #0h
                                  192   	$$TABKX022_INC1$main segment table 2h #0h
                                  193   	$$TABKX022_INC2$main segment table 2h #0h
                                  194   	$$TABKX022_INC3$main segment table 2h #0h
                                  195   	$$TABKX022_INC4$main segment table 2h #0h
                                  196   	$$TABKX022_INC5$main segment table 2h #0h
                                  197   	$$TABKX022_INC6$main segment table 2h #0h
                                  198   	$$TABKX022_INS1$main segment table 2h #0h
                                  199   	$$TABKX022_INS2$main segment table 2h #0h
                                  200   	$$TABKX022_INS3$main segment table 2h #0h
                                  201   	$$TABKX022_INT_REL$main segment table 2h #0h
                                  202   	$$TABKX022_LP_CNTL$main segment table 2h #0h
                                  203   	$$TABKX022_ODCNTL$main segment table 2h #0h
                                  204   	$$TABKX022_ODCNTL_CFGDAT$main segment table 2h #0h
                                  205   	$$TABKX022_SELF_TEST$main segment table 2h #0h
                                  206   	$$TABKX022_STAT$main segment table 2h #0h
                                  207   	$$TABKX022_STD$main segment table 2h #0h
                                  208   	$$TABKX022_TDTC$main segment table 2h #0h
                                  209   	$$TABKX022_TDTRC$main segment table 2h #0h
                                  210   	$$TABKX022_TILT_ANGLE_HL$main segment table 2h #0h
                                  211   	$$TABKX022_TILT_ANGLE_LL$main segment table 2h #0h
                                  212   	$$TABKX022_TILT_TIMER$main segment table 2h #0h
                                  213   	$$TABKX022_TILT_TIMER_CFGDAT$main segment table 2h #0h
                                  214   	$$TABKX022_TLT$main segment table 2h #0h
                                  215   	$$TABKX022_TSCP$main segment table 2h #0h
                                  216   	$$TABKX022_TSPP$main segment table 2h #0h
                                  217   	$$TABKX022_TTH$main segment table 2h #0h
                                  218   	$$TABKX022_TTL$main segment table 2h #0h
                                  219   	$$TABKX022_TWS$main segment table 2h #0h
                                  220   	$$TABKX022_WHO_AM_I$main segment table 2h #0h
                                  221   	$$TABKX022_WUFC$main segment table 2h #0h
                                  222   	$$TABKX022_XHPH$main segment table 2h #0h
                                  223   	$$TABKX022_XHPL$main segment table 2h #0h
                                  224   	$$TABKX022_XOUTH$main segment table 2h #0h
                                  225   	$$TABKX022_XOUTL$main segment table 2h #0h
                                  226   	$$TABKX022_YHPH$main segment table 2h #0h
                                  227   	$$TABKX022_YHPL$main segment table 2h #0h
                                  228   	$$TABKX022_YOUTH$main segment table 2h #0h
                                  229   	$$TABKX022_YOUTL$main segment table 2h #0h
                                  230   	$$TABKX022_ZHPH$main segment table 2h #0h
                                  231   	$$TABKX022_ZHPL$main segment table 2h #0h
                                  232   	$$TABKX022_ZOUTH$main segment table 2h #0h
                                  233   	$$TABKX022_ZOUTL$main segment table 2h #0h
                                  234   	$$TAB_uartSetParam$main segment table 2h #0h
                                  235   	$$_funcI2CFin$main segment code 2h #0h
                                  236   	$$_funcUartFin$main segment code 2h #0h
                                  237   	$$_intADC$main segment code 2h #0h
                                  238   	$$_intI2c$main segment code 2h #0h
                                  239   	$$_intUart$main segment code 2h #0h
                                  240   	$$main$main segment code 2h #0h
                                  241   	$$main_clrWDT$main segment code 2h #0h
                                  242   	$$main_reqNotHalt$main segment code 2h #0h
                                  243   	$$write$main segment code 2h #0h
                                  244   	$$NTABmain$main segment table 2h #0h
                                  245   	$$NTABADC_Read$main segment table 2h #0h
                                  246   	$$NTABSensorInitialization$main segment table 2h #0h
                                  247   	STACKSEG 0100h
                                  248   CVERSION 3.41.8
                                  249   CGLOBAL 01H 03H 0000H "Init_Hall_Effect_Sensors_1" 08H 02H 0D8H 00H 80H 00H 00H 00H 07H
                                  250   CGLOBAL 01H 03H 0000H "Init_Hall_Effect_Sensors_2" 08H 02H 0D7H 00H 80H 00H 00H 00H 07H
                                  251   CGLOBAL 01H 03H 0000H "MainOp_Hall_Effect_Sensors_1" 08H 02H 0CAH 00H 81H 0aH 00H 00H 07H
                                  252   CGLOBAL 01H 03H 0000H "MainOp_Hall_Effect_Sensors_2" 08H 02H 0C9H 00H 81H 06H 00H 00H 07H
                                  253   CGLOBAL 01H 03H 0000H "NOPms" 08H 02H 0C4H 00H 81H 0aH 00H 00H 07H
                                  254   CGLOBAL 01H 03H 0000H "MainOp_Temperature_Sensor_20" 08H 02H 0D3H 00H 81H 14H 00H 00H 07H
                                  255   CGLOBAL 01H 03H 0000H "MainOp_Temperature_Sensor_21" 08H 02H 0D4H 00H 81H 14H 00H 00H 07H
                                  256   CGLOBAL 01H 03H 0000H "MainOp_Temperature_Sensor_22" 08H 02H 0D5H 00H 81H 14H 00H 00H 07H
                                  257   CGLOBAL 01H 03H 0000H "MainOp_Temperature_Sensor_23" 08H 02H 0D6H 00H 81H 14H 00H 00H 07H
                                  258   CGLOBAL 01H 03H 0000H "main_clrWDT" 08H 02H 0B3H 00H 80H 00H 00H 00H 07H
                                  259   CSGLOBAL 03H 0000H "_funcUartFin" 08H 02H 0BEH 00H 81H 02H 00H 00H 07H
                                  260   CGLOBAL 01H 03H 0000H "main_reqNotHalt" 08H 02H 0C0H 00H 80H 00H 00H 00H 07H
                                  261   CGLOBAL 01H 03H 0000H "MainOp_UV_Sensor_10" 08H 02H 0D0H 00H 81H 14H 00H 00H 07H
                                  262   CGLOBAL 01H 03H 0000H "DeviceSelection" 08H 02H 0C7H 00H 80H 00H 00H 00H 07H
                                  263   CGLOBAL 01H 03H 0000H "Init_KX022" 08H 02H 0DFH 00H 81H 08H 00H 00H 07H
                                  264   CSGLOBAL 03H 0000H "Initialization" 08H 02H 0B4H 00H 81H 04H 00H 00H 07H
                                  265   CGLOBAL 01H 03H 0000H "MainOp_KMX61" 08H 02H 0D2H 00H 81H 22H 00H 00H 07H
                                  266   CGLOBAL 01H 03H 0000H "Init_Temperature_Sensor_20" 08H 02H 0E1H 00H 80H 00H 00H 00H 07H
                                  267   CGLOBAL 01H 03H 0000H "Init_Temperature_Sensor_21" 08H 02H 0E2H 00H 80H 00H 00H 00H 07H
                                  268   CGLOBAL 01H 03H 0000H "Init_Temperature_Sensor_22" 08H 02H 0E3H 00H 80H 00H 00H 00H 07H
                                  269   CGLOBAL 01H 03H 0000H "main" 08H 02H 0E5H 00H 80H 02H 00H 00H 01H
                                  270   CGLOBAL 01H 03H 0000H "Init_Temperature_Sensor_23" 08H 02H 0E4H 00H 80H 00H 00H 00H 07H
                                  271   CGLOBAL 01H 03H 0000H "Init_UV_Sensor_10" 08H 02H 0DEH 00H 80H 00H 00H 00H 07H
                                  272   CSGLOBAL 03H 0000H "_intUart" 08H 02H 0C1H 00H 80H 00H 00H 00H 07H
                                  273   CGLOBAL 01H 03H 0000H "SensorInitialization" 08H 02H 0C8H 00H 81H 02H 00H 00H 07H
                                  274   CGLOBAL 01H 03H 0000H "I2C_Write" 08H 02H 0BDH 00H 83H 10H 00H 00H 07H
                                  275   CGLOBAL 01H 03H 0000H "PortD_Low" 08H 02H 0B9H 00H 80H 00H 00H 00H 07H
                                  276   CSGLOBAL 03H 0000H "_intI2c" 08H 02H 0C2H 00H 81H 02H 00H 00H 07H
                                  277   CGLOBAL 01H 03H 0000H "write" 08H 02H 0BAH 00H 83H 08H 00H 00H 01H
                                  278   CSGLOBAL 03H 0000H "SetOSC" 08H 02H 0B5H 00H 80H 00H 00H 00H 07H
                                  279   CGLOBAL 01H 03H 0000H "PortC_Low" 08H 02H 0B8H 00H 80H 00H 00H 00H 07H
                                  280   CSGLOBAL 03H 0000H "_intADC" 08H 02H 0C3H 00H 80H 00H 00H 00H 07H
                                  281   CGLOBAL 01H 03H 0000H "PortB_Low" 08H 02H 0B7H 00H 80H 00H 00H 00H 07H
                                  282   CGLOBAL 01H 03H 0000H "I2C_Read" 08H 02H 0BCH 00H 83H 10H 00H 00H 07H
                                  283   CGLOBAL 01H 03H 0000H "ADC_Read" 08H 02H 0BBH 00H 81H 04H 00H 00H 01H
                                  284   CGLOBAL 01H 03H 0000H "MainOp_KX022" 08H 02H 0D1H 00H 81H 22H 00H 00H 07H
                                  285   CGLOBAL 01H 03H 0000H "Init_Ambient_Light_Sensor_5" 08H 02H 0D9H 00H 80H 00H 00H 00H 07H
                                  286   CGLOBAL 01H 03H 0000H "Init_Ambient_Light_Sensor_6" 08H 02H 0DAH 00H 81H 08H 00H 00H 07H
                                  287   CGLOBAL 01H 03H 0000H "Init_Ambient_Light_Sensor_7" 08H 02H 0DBH 00H 83H 0cH 00H 00H 07H
                                  288   CGLOBAL 01H 03H 0000H "Init_Ambient_Light_Sensor_8" 08H 02H 0DCH 00H 81H 08H 00H 00H 07H
                                  289   CGLOBAL 01H 03H 0000H "Init_Ambient_Light_Sensor_9" 08H 02H 0DDH 00H 81H 08H 00H 00H 07H
                                  290   CGLOBAL 01H 03H 0000H "PortA_Low" 08H 02H 0B6H 00H 80H 00H 00H 00H 07H
                                  291   CGLOBAL 01H 02H 0000H "ReverseBits" 08H 02H 0C5H 00H 80H 00H 00H 00H 00H
                                  292   CSGLOBAL 03H 0000H "_funcI2CFin" 08H 02H 0BFH 00H 81H 02H 00H 00H 07H
                                  293   CGLOBAL 01H 02H 0000H "FlashLEDs" 08H 02H 0C6H 00H 80H 00H 00H 00H 00H
                                  294   CGLOBAL 01H 03H 0000H "Init_KMX61" 08H 02H 0E0H 00H 81H 08H 00H 00H 07H
                                  295   CGLOBAL 01H 03H 0000H "MainOp_Ambient_Light_Sensor_8" 08H 02H 0CEH 00H 81H 0aH 00H 00H 07H
                                  296   CGLOBAL 01H 03H 0000H "MainOp_Ambient_Light_Sensor_9" 08H 02H 0CFH 00H 81H 08H 00H 00H 07H
                                  297   CGLOBAL 01H 03H 0000H "MainOp_Ambient_Light_Sensor_5" 08H 02H 0CBH 00H 81H 0aH 00H 00H 07H
                                  298   CGLOBAL 01H 03H 0000H "MainOp_Ambient_Light_Sensor_6" 08H 02H 0CCH 00H 81H 0aH 00H 00H 07H
                                  299   CGLOBAL 01H 03H 0000H "MainOp_Ambient_Light_Sensor_7" 08H 02H 0CDH 00H 81H 0eH 00H 00H 07H
                                  300   CSTRUCTTAG 0000H 0000H 0005H 000CH 00000016H "_Notag"
                                  301   CSTRUCTMEM 42H 00000002H 00000000H "_Mode" 02H 00H 08H
                                  302   CSTRUCTMEM 43H 00000002H 00000002H "_Handle" 02H 00H 08H
                                  303   CSTRUCTMEM 42H 00000002H 00000004H "_Buf" 04H 03H 00H 00H 00H
                                  304   CSTRUCTMEM 42H 00000002H 00000006H "_Bend" 04H 03H 00H 00H 00H
                                  305   CSTRUCTMEM 42H 00000002H 00000008H "_Next" 04H 03H 00H 00H 00H
                                  306   CSTRUCTMEM 42H 00000002H 0000000AH "_Rend" 04H 03H 00H 00H 00H
                                  307   CSTRUCTMEM 42H 00000002H 0000000CH "_Rsave" 04H 03H 00H 00H 00H
                                  308   CSTRUCTMEM 42H 00000002H 0000000EH "_Wend" 04H 03H 00H 00H 00H
                                  309   CSTRUCTMEM 42H 00000002H 00000010H "_Back" 05H 01H 02H 00H 00H 00H
                                  310   CSTRUCTMEM 42H 00000001H 00000012H "_Cbuf" 02H 00H 00H
                                  311   CSTRUCTMEM 42H 00000001H 00000013H "_Nback" 02H 00H 00H
                                  312   CSTRUCTMEM 43H 00000002H 00000014H "_Tmpnam" 04H 03H 00H 00H 00H
                                  313   CSTRUCTTAG 0000H 0000H 0004H 0001H 00000004H "_Notag"
                                  314   CSTRUCTMEM 42H 00000004H 00000000H "_Off" 02H 00H 02H
                                  315   CSTRUCTTAG 0000H 0000H 0003H 0006H 0000000AH "_Notag"
                                  316   CSTRUCTMEM 42H 00000004H 00000000H "br" 02H 00H 02H
                                  317   CSTRUCTMEM 42H 00000001H 00000004H "lg" 02H 00H 00H
                                  318   CSTRUCTMEM 42H 00000001H 00000005H "pt" 02H 00H 00H
                                  319   CSTRUCTMEM 42H 00000001H 00000006H "stp" 02H 00H 00H
                                  320   CSTRUCTMEM 42H 00000001H 00000007H "neg" 02H 00H 00H
                                  321   CSTRUCTMEM 42H 00000001H 00000008H "dir" 02H 00H 00H
                                  322   CSTRUCTTAG 0000H 0000H 0002H 0002H 00000008H "_Notag"
                                  323   CSTRUCTMEM 43H 00000004H 00000000H "quot" 02H 00H 02H
                                  324   CSTRUCTMEM 43H 00000004H 00000004H "rem" 02H 00H 02H
                                  325   CSTRUCTTAG 0000H 0000H 0001H 0002H 00000004H "_Notag"
                                  326   CSTRUCTMEM 43H 00000002H 00000000H "quot" 02H 00H 01H
                                  327   CSTRUCTMEM 43H 00000002H 00000002H "rem" 02H 00H 01H
                                  328   CSTRUCTTAG 0000H 0000H 0000H 0008H 00000001H "_Notag"
                                  329   CSTRUCTMEM 52H 00000001H 00000000H "b0" 02H 00H 00H
                                  330   CSTRUCTMEM 52H 00000001H 00000001H "b1" 02H 00H 00H
                                  331   CSTRUCTMEM 52H 00000001H 00000002H "b2" 02H 00H 00H
                                  332   CSTRUCTMEM 52H 00000001H 00000003H "b3" 02H 00H 00H
                                  333   CSTRUCTMEM 52H 00000001H 00000004H "b4" 02H 00H 00H
                                  334   CSTRUCTMEM 52H 00000001H 00000005H "b5" 02H 00H 00H
                                  335   CSTRUCTMEM 52H 00000001H 00000006H "b6" 02H 00H 00H
                                  336   CSTRUCTMEM 52H 00000001H 00000007H "b7" 02H 00H 00H
                                  337   CUNIONTAG 0000H 0000H 0006H 0006H 00000006H "_Notag"
                                  338   CUNIONMEM 42H 00000001H "_uchar" 02H 00H 00H
                                  339   CUNIONMEM 42H 00000006H "_ucharArr" 05H 01H 06H 00H 00H 00H
                                  340   CUNIONMEM 42H 00000002H "_uint" 02H 00H 01H
                                  341   CUNIONMEM 42H 00000006H "_uintArr" 05H 01H 03H 00H 00H 01H
                                  342   CUNIONMEM 43H 00000006H "_intArr" 05H 01H 03H 00H 00H 01H
                                  343   CUNIONMEM 43H 00000004H "_float" 02H 00H 03H
                                  344   CTYPEDEF 0000H 0000H 43H "_Ptrdifft" 02H 00H 01H
                                  345   CTYPEDEF 0000H 0000H 42H "_Sizet" 02H 00H 01H
                                  346   CTYPEDEF 0000H 0000H 43H "tUartSetParam" 04H 00H 05H 03H 00H
                                  347   CTYPEDEF 0000H 0000H 42H "size_t" 02H 00H 01H
                                  348   CTYPEDEF 0000H 0000H 43H "cbfUart" 0AH 03H 00H 02H 2EH 00H 00H 00H 00H 00H 07H
                                  349   CTYPEDEF 0000H 0000H 43H "fpos_t" 04H 00H 05H 04H 00H
                                  350   CTYPEDEF 0000H 0000H 43H "cbfI2c" 0AH 03H 00H 02H 43H 00H 00H 00H 00H 00H 07H
                                  351   CTYPEDEF 0000H 0000H 03H "_Cmpfun_nf" 08H 02H 01H 00H 00H 00H 00H 00H 01H
                                  352   CTYPEDEF 0000H 0000H 03H "_Cmpfun_nn" 08H 02H 00H 00H 00H 00H 00H 00H 01H
                                  353   CTYPEDEF 0000H 0000H 03H "_Cmpfun_ff" 08H 02H 03H 00H 00H 00H 00H 00H 01H
                                  354   CTYPEDEF 0000H 0000H 03H "_Cmpfun_fn" 08H 02H 02H 00H 00H 00H 00H 00H 01H
                                  355   CTYPEDEF 0000H 0000H 43H "FILE" 04H 00H 05H 05H 00H
                                  356   CTYPEDEF 0000H 0000H 43H "div_t" 04H 00H 05H 01H 00H
                                  357   CTYPEDEF 0000H 0000H 43H "ldiv_t" 04H 00H 05H 02H 00H
                                  358   CTYPEDEF 0000H 0000H 43H "_BYTE_FIELD" 04H 00H 05H 00H 00H
                                  359   CGLOBAL 01H 00H 0001H "KX022_SELF_TEST" 02H 00H 00H
                                  360   CGLOBAL 00H 42H 0001H "_flgUartFin" 02H 00H 00H
                                  361   CGLOBAL 01H 00H 0001H "KMX61_WUFC" 02H 00H 00H
                                  362   CGLOBAL 01H 00H 0001H "BH1780GLI_REG_PART_ID" 02H 00H 00H
                                  363   CGLOBAL 01H 00H 0001H "BH1730FVC_CMD_RESET_INT_OUT" 02H 00H 00H
                                  364   CGLOBAL 01H 00H 0001H "KX022_INT_REL" 02H 00H 00H
                                  365   CGLOBAL 01H 00H 0001H "BH1780GLI_REG_DATALOW" 02H 00H 00H
                                  366   CGLOBAL 01H 00H 0001H "BH1721FVC_CONT_A_RES_MOD" 02H 00H 00H
                                  367   CGLOBAL 01H 00H 0001H "BH1710FVC_CONT_H_RES_MOD" 02H 00H 00H
                                  368   CGLOBAL 01H 00H 0001H "BH1721FVC_CONT_H_RES_MOD" 02H 00H 00H
                                  369   CGLOBAL 01H 00H 0001H "BH1730FVC_REG_THHHIGH" 02H 00H 00H
                                  370   CGLOBAL 01H 00H 0001H "KMX61_TEMP_EN_CNTL_CFGDAT" 02H 00H 00H
                                  371   CGLOBAL 01H 00H 0001H "KMX61_CNTL1_CFGDAT" 02H 00H 00H
                                  372   CGLOBAL 01H 00H 0001H "KMX61_CNTL2_CFGDAT" 02H 00H 00H
                                  373   CGLOBAL 01H 00H 0001H "BH1780GLI_REG_DATAHIGH" 02H 00H 00H
                                  374   CGLOBAL 00H 43H 0006H "uniRawSensorOut" 04H 00H 06H 06H 00H
                                  375   CGLOBAL 01H 00H 0001H "KMX61_BTSC" 02H 00H 00H
                                  376   CGLOBAL 01H 00H 0001H "KMX61_ODCNTL" 02H 00H 00H
                                  377   CGLOBAL 01H 00H 0001H "KMX61_COTR" 02H 00H 00H
                                  378   CGLOBAL 01H 00H 0001H "KX022_STAT" 02H 00H 00H
                                  379   CGLOBAL 01H 00H 0001H "KMX61_STATUS_REG" 02H 00H 00H
                                  380   CGLOBAL 01H 00H 0001H "BH1730FVC_REG_INTERRUPT" 02H 00H 00H
                                  381   CGLOBAL 01H 00H 0001H "KX022_XOUTL" 02H 00H 00H
                                  382   CGLOBAL 01H 00H 0001H "KX022_XOUTH" 02H 00H 00H
                                  383   CGLOBAL 01H 00H 0001H "KX022_BUF_READ" 02H 00H 00H
                                  384   CGLOBAL 01H 00H 0001H "KMX61_WUFTH" 02H 00H 00H
                                  385   CGLOBAL 01H 00H 0001H "KMX61_STBY_REG" 02H 00H 00H
                                  386   CGLOBAL 01H 00H 0001H "BH1710FVC_CONT_M_RES_MOD" 02H 00H 00H
                                  387   CGLOBAL 01H 00H 0001H "KX022_YHPL" 02H 00H 00H
                                  388   CGLOBAL 01H 00H 0001H "KX022_YHPH" 02H 00H 00H
                                  389   CGLOBAL 01H 00H 0001H "KX022_I2C_ADDR" 02H 00H 00H
                                  390   CGLOBAL 01H 00H 0001H "KX022_CNTL1_CFGDAT" 02H 00H 00H
                                  391   CGLOBAL 01H 00H 0001H "KMX61_INC1" 02H 00H 00H
                                  392   CGLOBAL 01H 00H 0001H "KMX61_INC2" 02H 00H 00H
                                  393   CGLOBAL 01H 00H 0001H "KMX61_INC3" 02H 00H 00H
                                  394   CGLOBAL 01H 00H 0001H "KX022_XHPL" 02H 00H 00H
                                  395   CGLOBAL 01H 00H 0001H "KX022_CNTL3_CFGDAT" 02H 00H 00H
                                  396   CGLOBAL 01H 00H 0001H "KX022_XHPH" 02H 00H 00H
                                  397   CGLOBAL 01H 00H 0001H "BH17xxFVC_PWR_DOWN" 02H 00H 00H
                                  398   CGLOBAL 01H 00H 0001H "KMX61_ACCEL_YOUT_H" 02H 00H 00H
                                  399   CGLOBAL 01H 00H 0001H "BH1710FVC_CONT_L_RES_MOD" 02H 00H 00H
                                  400   CGLOBAL 01H 00H 0001H "KMX61_ACCEL_YOUT_L" 02H 00H 00H
                                  401   CGLOBAL 01H 00H 0001H "BH1721FVC_CONT_L_RES_MOD" 02H 00H 00H
                                  402   CGLOBAL 01H 00H 0001H "KMX61_INS1" 02H 00H 00H
                                  403   CGLOBAL 01H 00H 0001H "KMX61_INS2" 02H 00H 00H
                                  404   CGLOBAL 01H 00H 0001H "KX022_TDTC" 02H 00H 00H
                                  405   CGLOBAL 01H 00H 0001H "BH1780GLI_REG_MFG_ID" 02H 00H 00H
                                  406   CSGLOBAL 42H 0001H "LEDFlashFlag" 02H 00H 00H
                                  407   CGLOBAL 01H 00H 0001H "KX022_ZHPL" 02H 00H 00H
                                  408   CGLOBAL 01H 00H 0001H "KX022_ZHPH" 02H 00H 00H
                                  409   CGLOBAL 01H 00H 0001H "KX022_TDTRC" 02H 00H 00H
                                  410   CGLOBAL 01H 00H 0001H "KMX61_MAG_YOUT_H" 02H 00H 00H
                                  411   CGLOBAL 01H 00H 0001H "KMX61_MAG_YOUT_L" 02H 00H 00H
                                  412   CGLOBAL 01H 00H 0001H "KX022_TILT_ANGLE_HL" 02H 00H 00H
                                  413   CGLOBAL 01H 00H 0001H "KX022_TILT_ANGLE_LL" 02H 00H 00H
                                  414   CGLOBAL 01H 00H 0001H "KMX61_BUF_THRESH_H" 02H 00H 00H
                                  415   CGLOBAL 01H 00H 0001H "KMX61_BUF_THRESH_L" 02H 00H 00H
                                  416   CGLOBAL 01H 00H 0001H "BH1730FVC_CMD_STOP_MIM" 02H 00H 00H
                                  417   CGLOBAL 01H 00H 0001H "KX022_ODCNTL" 02H 00H 00H
                                  418   CGLOBAL 01H 00H 0001H "KMX61_BUF_CLEAR" 02H 00H 00H
                                  419   CSGLOBAL 01H 000AH "_uartSetParam" 04H 00H 05H 03H 00H
                                  420   CGLOBAL 01H 00H 0001H "KX022_BUF_STATUS_1" 02H 00H 00H
                                  421   CGLOBAL 01H 00H 0001H "KX022_BUF_STATUS_2" 02H 00H 00H
                                  422   CGLOBAL 01H 00H 0001H "KX022_WHO_AM_I" 02H 00H 00H
                                  423   CGLOBAL 01H 00H 0001H "BH1730FVC_REG_DATA1HIGH" 02H 00H 00H
                                  424   CGLOBAL 01H 00H 0001H "KX022_ZOUTL" 02H 00H 00H
                                  425   CGLOBAL 01H 00H 0001H "KX022_ZOUTH" 02H 00H 00H
                                  426   CGLOBAL 01H 00H 0001H "KX022_TSCP" 02H 00H 00H
                                  427   CGLOBAL 01H 00H 0001H "KMX61_ODCNTL_CFGDAT" 02H 00H 00H
                                  428   CSGLOBAL 42H 0001H "SensorPlatformSelection" 02H 00H 00H
                                  429   CGLOBAL 01H 00H 0001H "KX022_TSPP" 02H 00H 00H
                                  430   CGLOBAL 01H 00H 0001H "BH1730FVC_REG_TIMING" 02H 00H 00H
                                  431   CGLOBAL 01H 00H 0001H "KMX61_BTH" 02H 00H 00H
                                  432   CGLOBAL 01H 00H 0001H "KX022_TILT_TIMER_CFGDAT" 02H 00H 00H
                                  433   CGLOBAL 01H 00H 0001H "BH1730FVC_REG_ID" 02H 00H 00H
                                  434   CGLOBAL 01H 00H 0001H "KMX61_TEMP_EN_CNTL" 02H 00H 00H
                                  435   CGLOBAL 01H 00H 0001H "KMX61_CNTL1" 02H 00H 00H
                                  436   CGLOBAL 01H 00H 0001H "KMX61_CNTL2" 02H 00H 00H
                                  437   CGLOBAL 01H 00H 0001H "KMX61_XOUT_HPF_L" 02H 00H 00H
                                  438   CSGLOBAL 42H 0001H "LEDChangeFlag" 02H 00H 00H
                                  439   CGLOBAL 01H 00H 0001H "KMX61_XOUT_HPF_H" 02H 00H 00H
                                  440   CGLOBAL 01H 00H 0001H "KX022_BUF_CLEAR" 02H 00H 00H
                                  441   CGLOBAL 01H 00H 0001H "BH1710FVC_RESET" 02H 00H 00H
                                  442   CGLOBAL 01H 00H 0001H "BH1730FVC_REG_CONTROL" 02H 00H 00H
                                  443   CGLOBAL 01H 00H 0001H "KMX61_INL" 02H 00H 00H
                                  444   CGLOBAL 01H 00H 0001H "KX022_WUFC" 02H 00H 00H
                                  445   CGLOBAL 01H 00H 0001H "BH1730FVC_REG_DATA0HIGH" 02H 00H 00H
                                  446   CGLOBAL 01H 00H 0001H "KX022_YOUTL" 02H 00H 00H
                                  447   CGLOBAL 01H 00H 0001H "KX022_YOUTH" 02H 00H 00H
                                  448   CGLOBAL 01H 00H 0001H "BH17xxFVC_PWR_ON" 02H 00H 00H
                                  449   CGLOBAL 01H 00H 0001H "BH1710FVC_ONET_L_RES_MOD" 02H 00H 00H
                                  450   CGLOBAL 01H 00H 0001H "KMX61_ZOUT_HPF_L" 02H 00H 00H
                                  451   CGLOBAL 01H 00H 0001H "KX022_LP_CNTL" 02H 00H 00H
                                  452   CGLOBAL 01H 00H 0001H "KX022_ODCNTL_CFGDAT" 02H 00H 00H
                                  453   CGLOBAL 01H 00H 0001H "BH1730FVC_REG_THLHIGH" 02H 00H 00H
                                  454   CGLOBAL 01H 00H 0001H "KMX61_ZOUT_HPF_H" 02H 00H 00H
                                  455   CGLOBAL 01H 00H 0001H "KMX61_YOUT_HPF_L" 02H 00H 00H
                                  456   CGLOBAL 01H 00H 0001H "BH1730FVC_CMD_START_MIM" 02H 00H 00H
                                  457   CGLOBAL 01H 00H 0001H "KMX61_YOUT_HPF_H" 02H 00H 00H
                                  458   CGLOBAL 01H 00H 0001H "KX022_ATH" 02H 00H 00H
                                  459   CGLOBAL 01H 00H 0001H "KMX61_SN_1" 02H 00H 00H
                                  460   CGLOBAL 01H 00H 0001H "KMX61_SN_2" 02H 00H 00H
                                  461   CGLOBAL 01H 00H 0001H "KMX61_SN_3" 02H 00H 00H
                                  462   CGLOBAL 01H 00H 0001H "KMX61_SN_4" 02H 00H 00H
                                  463   CGLOBAL 01H 00H 0001H "BH1780GLI_REG_CONTROL" 02H 00H 00H
                                  464   CGLOBAL 00H 42H 0001H "_flgI2CFin" 02H 00H 00H
                                  465   CGLOBAL 01H 00H 0001H "KX022_COTR" 02H 00H 00H
                                  466   CGLOBAL 01H 00H 0001H "KMX61_SELF_TEST_CFGDAT" 02H 00H 00H
                                  467   CGLOBAL 01H 00H 0001H "KX022_FTD" 02H 00H 00H
                                  468   CGLOBAL 01H 00H 0001H "KX022_BUF_CNTL1" 02H 00H 00H
                                  469   CGLOBAL 01H 00H 0001H "KX022_BUF_CNTL2" 02H 00H 00H
                                  470   CGLOBAL 01H 00H 0001H "KMX61_I2C_ADDR" 02H 00H 00H
                                  471   CGLOBAL 01H 00H 0001H "KMX61_BUF_READ" 02H 00H 00H
                                  472   CGLOBAL 01H 00H 0001H "BH17xxFVC_ADDR_1" 02H 00H 00H
                                  473   CGLOBAL 01H 00H 0001H "BH17xxFVC_ADDR_2" 02H 00H 00H
                                  474   CGLOBAL 01H 00H 0001H "BH1730FVC_REG_THHLOW" 02H 00H 00H
                                  475   CGLOBAL 01H 00H 0001H "BH1710FVC_ONET_M_RES_MOD" 02H 00H 00H
                                  476   CGLOBAL 01H 00H 0001H "KX022_CNTL1" 02H 00H 00H
                                  477   CGLOBAL 01H 00H 0001H "KX022_CNTL2" 02H 00H 00H
                                  478   CGLOBAL 01H 00H 0001H "KX022_CNTL3" 02H 00H 00H
                                  479   CGLOBAL 01H 00H 0001H "KMX61_TEMP_OUT_H" 02H 00H 00H
                                  480   CGLOBAL 01H 00H 0001H "KMX61_TEMP_OUT_L" 02H 00H 00H
                                  481   CGLOBAL 00H 42H 0001H "_reqNotHalt" 02H 00H 00H
                                  482   CGLOBAL 01H 00H 0001H "KX022_STD" 02H 00H 00H
                                  483   CGLOBAL 01H 00H 0001H "KMX61_ACCEL_XOUT_H" 02H 00H 00H
                                  484   CGLOBAL 01H 00H 0001H "KMX61_ACCEL_ZOUT_H" 02H 00H 00H
                                  485   CGLOBAL 01H 00H 0001H "KMX61_ACCEL_XOUT_L" 02H 00H 00H
                                  486   CGLOBAL 01H 00H 0001H "KMX61_ACCEL_ZOUT_L" 02H 00H 00H
                                  487   CGLOBAL 00H 43H 000CH "flSensorOut" 05H 01H 03H 00H 00H 03H
                                  488   CGLOBAL 01H 00H 0001H "BH1710FVC_ONET_H_RES_MOD" 02H 00H 00H
                                  489   CGLOBAL 01H 00H 0001H "KMX61_BUF_CTRL2_CFGDAT" 02H 00H 00H
                                  490   CGLOBAL 01H 00H 0001H "KX022_INC1" 02H 00H 00H
                                  491   CGLOBAL 01H 00H 0001H "KX022_INC2" 02H 00H 00H
                                  492   CGLOBAL 01H 00H 0001H "KX022_INC3" 02H 00H 00H
                                  493   CGLOBAL 01H 00H 0001H "KMX61_BUF_CTRL1_CFGDAT" 02H 00H 00H
                                  494   CGLOBAL 01H 00H 0001H "KX022_INC4" 02H 00H 00H
                                  495   CGLOBAL 01H 00H 0001H "KX022_INC5" 02H 00H 00H
                                  496   CGLOBAL 01H 00H 0001H "BH1730FVC_REG_GAIN" 02H 00H 00H
                                  497   CGLOBAL 01H 00H 0001H "KX022_INC6" 02H 00H 00H
                                  498   CGLOBAL 01H 00H 0001H "KX022_TLT" 02H 00H 00H
                                  499   CGLOBAL 01H 00H 0001H "KMX61_BUF_CTRL1" 02H 00H 00H
                                  500   CGLOBAL 01H 00H 0001H "KMX61_BUF_CTRL2" 02H 00H 00H
                                  501   CGLOBAL 01H 00H 0001H "BH1730FVC_CMD_SW_RESET" 02H 00H 00H
                                  502   CGLOBAL 01H 00H 0001H "KX022_TTH" 02H 00H 00H
                                  503   CGLOBAL 01H 00H 0001H "KX022_TTL" 02H 00H 00H
                                  504   CGLOBAL 01H 00H 0001H "KX022_INS1" 02H 00H 00H
                                  505   CGLOBAL 01H 00H 0001H "KX022_INS2" 02H 00H 00H
                                  506   CGLOBAL 01H 00H 0001H "KX022_INS3" 02H 00H 00H
                                  507   CGLOBAL 01H 00H 0001H "KX022_TWS" 02H 00H 00H
                                  508   CGLOBAL 01H 00H 0001H "KMX61_BUF_STATUS_L" 02H 00H 00H
                                  509   CGLOBAL 01H 00H 0001H "BH1730FVC_REG_DATA0LOW" 02H 00H 00H
                                  510   CGLOBAL 01H 00H 0001H "KMX61_BUF_STATUS_H" 02H 00H 00H
                                  511   CGLOBAL 01H 00H 0001H "KMX61_MAG_XOUT_H" 02H 00H 00H
                                  512   CGLOBAL 01H 00H 0001H "KMX61_MAG_ZOUT_H" 02H 00H 00H
                                  513   CGLOBAL 01H 00H 0001H "KMX61_MAG_XOUT_L" 02H 00H 00H
                                  514   CGLOBAL 01H 00H 0001H "KMX61_MAG_ZOUT_L" 02H 00H 00H
                                  515   CGLOBAL 01H 00H 0001H "KMX61_SELF_TEST" 02H 00H 00H
                                  516   CSGLOBAL 42H 0001H "SensorIntializationFlag" 02H 00H 00H
                                  517   CGLOBAL 01H 00H 0001H "BH1730FVC_REG_THLLOW" 02H 00H 00H
                                  518   CGLOBAL 01H 00H 0001H "KX022_HYST_SET" 02H 00H 00H
                                  519   CGLOBAL 01H 00H 0001H "KMX61_WHO_AM_I" 02H 00H 00H
                                  520   CGLOBAL 00H 42H 0001H "_flgADCFin" 02H 00H 00H
                                  521   CGLOBAL 01H 00H 0001H "KX022_TILT_TIMER" 02H 00H 00H
                                  522   CGLOBAL 01H 00H 0001H "BH1730FVC_REG_DATA1LOW" 02H 00H 00H
                                  523   CGLOBAL 01H 00H 0001H "KMX61_BUF_STATUS_REG" 02H 00H 00H
                                  524   CFILE 0001H 0000085AH "main\\ML610112.H"
                                  525   CFILE 0002H 000000D8H "main\\stdlib.h"
                                  526   CFILE 0003H 0000007AH "main\\yvals.h"
                                  527   CFILE 0004H 0000006BH "uart\\uart.h"
                                  528   CFILE 0005H 00000027H "common\\common.h"
                                  529   CFILE 0006H 00000057H "irq\\irq.h"
                                  530   CFILE 0007H 00000023H "main\\mcu.h"
                                  531   CFILE 0008H 00000045H "i2c\\i2c.h"
                                  532   CFILE 0009H 00000046H "tbc\\tbc.h"
                                  533   CFILE 000AH 000001B8H "timer\\timer.h"
                                  534   CFILE 000BH 000000EEH "main\\stdio.h"
                                  535   CFILE 0000H 000007D1H "main\\main.c"
                                  536   
  --------------------------      537   	rseg $$main$main
                                  538   CFUNCTION 229
                                  539   
00:0000                           540   _main	:
                                  541   CBLOCK 229 1 423
                                  542   
                                  543   ;;{ 	
                                  544   CLINEA 0000H 0001H 01A7H 0001H 0003H
                                  545   CBLOCK 229 2 423
                                  546   
                                  547   ;;	Initialization(); //Ports, UART, Timers, Oscillator, Comparators, etc.
                                  548   CLINEA 0000H 0001H 01A8H 0002H 0047H
00:0000 01-F0'00-00'              549   	bl	_Initialization
                                  550   
                                  551   ;;	PRINTF(WelcomeString);
                                  552   CLINEA 0000H 0001H 01AAH 0002H 0017H
00:0004 FE 00                     553   	mov	r0,	#0feh
00:0006 00 01                     554   	mov	r1,	#00h
00:0008 5E-F0                     555   	push	er0
00:000A 00'02                     556   	mov	r2,	#BYTE1 OFFSET $$S30
00:000C 00'03                     557   	mov	r3,	#BYTE2 OFFSET $$S30
00:000E 00 E0                     558   	mov	er0,	#0 
00:0010 01-F0'00-00'              559   	bl	_write
00:0014 02 E1                     560   	add	sp,	#2 
                                  561   
                                  562   ;;MainLoop:
                                  563   CLINEA 0000H 0001H 01B1H 0001H 0009H
                                  564   CLABEL 001FH "MainLoop"
00:0016                           565   _$L31 :
                                  566   
                                  567   ;;	main_clrWDT();
                                  568   CLINEA 0000H 0001H 01B2H 0002H 000FH
00:0016 01-F0'00-00'              569   	bl	_main_clrWDT
                                  570   
                                  571   ;;	DeviceSelection(); 	// SensorPlatformSelection holds 8-bits of sensor type
                                  572   CLINEA 0000H 0001H 01B5H 0002H 004BH
00:001A 01-F0'00-00'              573   	bl	_DeviceSelection
                                  574   
                                  575   ;;	if(SensorIntializationFlag==1){	//Holds the SW Statement for Initializing Sensors
                                  576   CLINEA 0000H 0001H 01B8H 0002H 0052H
00:001E 10-90 00-00'              577   	l	r0,	NEAR _SensorIntializationFlag
00:0022 01 70                     578   	cmp	r0,	#01h
00:0024 05 C8                     579   	bne	_$L32
                                  580   CBLOCK 229 3 440
                                  581   
                                  582   ;;		SensorInitialization();
                                  583   CLINEA 0000H 0001H 01B9H 0003H 0019H
00:0026 01-F0'00-00'              584   	bl	_SensorInitialization
                                  585   
                                  586   ;;		SensorIntializationFlag = 0;
                                  587   CLINEA 0000H 0001H 01BAH 0003H 001EH
00:002A 00 00                     588   	mov	r0,	#00h
00:002C 11-90 00-00'              589   	st	r0,	NEAR _SensorIntializationFlag
                                  590   CBLOCKEND 229 3 443
                                  591   
                                  592   ;;	}
                                  593   CLINEA 0000H 0000H 01BBH 0002H 0002H
00:0030                           594   _$L32 :
                                  595   
                                  596   ;;	switch(SensorPlatformSelection){
                                  597   CLINEA 0000H 0001H 01BDH 0002H 0021H
00:0030 10-90 00-00'              598   	l	r0,	NEAR _SensorPlatformSelection
00:0034 00 01                     599   	mov	r1,	#00h
                                  600   CBLOCK 229 4 445
00:0036 17 70                     601   	cmp	r0,	#017h
00:0038 00 51                     602   	cmpc	r1,	#00h
00:003A 36 C2                     603   	bgt	_$L38
00:003C 01 70                     604   	cmp	r0,	#01h
00:003E 00 51                     605   	cmpc	r1,	#00h
00:0040 33 C1                     606   	blt	_$L38
00:0042 FF E0                     607   	add	er0,	#-1
00:0044 1B-91                     608   	sllc	r1,	#01h
00:0046 1A-90                     609   	sll	r0,	#01h
00:0048 08-A0 00-00'              610   	l	er0,	NEAR _$M1[er0]
00:004C 02-F0                     611   	b	er0
                                  612   
                                  613   ;;	}
00:004E                           614   _$L37 :
                                  615   
                                  616   ;;	HLT = 1;	//Wait time here depends on the WDT timing
                                  617   CLINEA 0000H 0001H 01EEH 0002H 0034H
00:004E 80-A0 09-F0               618   	sb	0f009h.0
                                  619   
                                  620   ;;	goto MainLoop;
                                  621   CLINEA 0000H 0001H 01EFH 0002H 000FH
00:0052 E1 CE                     622   	bal	_$L31
                                  623   CBLOCKEND 229 2 496
                                  624   
                                  625   ;;		case 1:
                                  626   CLINEA 0000H 0001H 01BEH 0003H 0009H
00:0054                           627   _$S39 :
                                  628   
                                  629   ;;			MainOp_Hall_Effect_Sensors_1(); // Refer to function description for list of sensors
                                  630   CLINEA 0000H 0001H 01BFH 0004H 0057H
00:0054 01-F0'00-00'              631   	bl	_MainOp_Hall_Effect_Sensors_1
                                  632   
                                  633   ;;			break;
                                  634   CLINEA 0000H 0001H 01C0H 0004H 0009H
00:0058 FA CE                     635   	bal	_$L37
                                  636   
                                  637   ;;		case 2:
                                  638   CLINEA 0000H 0001H 01C1H 0003H 0009H
00:005A                           639   _$S40 :
                                  640   
                                  641   ;;			MainOp_Hall_Effect_Sensors_2(); // Refer to function description for list of sensors 
                                  642   CLINEA 0000H 0001H 01C2H 0004H 0058H
00:005A 01-F0'00-00'              643   	bl	_MainOp_Hall_Effect_Sensors_2
                                  644   
                                  645   ;;			break;
                                  646   CLINEA 0000H 0001H 01C3H 0004H 0009H
00:005E F7 CE                     647   	bal	_$L37
                                  648   
                                  649   ;;		case 5: 
                                  650   CLINEA 0000H 0001H 01C4H 0003H 000AH
00:0060                           651   _$S41 :
                                  652   
                                  653   ;;			MainOp_Ambient_Light_Sensor_5(); // Refer to function description for list of sensors
                                  654   CLINEA 0000H 0001H 01C5H 0004H 0058H
00:0060 01-F0'00-00'              655   	bl	_MainOp_Ambient_Light_Sensor_5
                                  656   
                                  657   ;;			break;
                                  658   CLINEA 0000H 0001H 01C6H 0004H 0009H
00:0064 F4 CE                     659   	bal	_$L37
                                  660   
                                  661   ;;		case 6:
                                  662   CLINEA 0000H 0001H 01C7H 0003H 0009H
00:0066                           663   _$S42 :
                                  664   
                                  665   ;;			MainOp_Ambient_Light_Sensor_6(); // Refer to function description for list of sensors 
                                  666   CLINEA 0000H 0001H 01C8H 0004H 0059H
00:0066 01-F0'00-00'              667   	bl	_MainOp_Ambient_Light_Sensor_6
                                  668   
                                  669   ;;			break;
                                  670   CLINEA 0000H 0001H 01C9H 0004H 0009H
00:006A F1 CE                     671   	bal	_$L37
                                  672   
                                  673   ;;		case 7:
                                  674   CLINEA 0000H 0001H 01CAH 0003H 0009H
00:006C                           675   _$S43 :
                                  676   
                                  677   ;;			MainOp_Ambient_Light_Sensor_7(); // Refer to function description for list of sensors 
                                  678   CLINEA 0000H 0001H 01CBH 0004H 0059H
00:006C 01-F0'00-00'              679   	bl	_MainOp_Ambient_Light_Sensor_7
                                  680   
                                  681   ;;			break;
                                  682   CLINEA 0000H 0001H 01CCH 0004H 0009H
00:0070 EE CE                     683   	bal	_$L37
                                  684   
                                  685   ;;		case 8:
                                  686   CLINEA 0000H 0001H 01CDH 0003H 0009H
00:0072                           687   _$S44 :
                                  688   
                                  689   ;;			MainOp_Ambient_Light_Sensor_8(); // Refer to function description for list of sensors 
                                  690   CLINEA 0000H 0001H 01CEH 0004H 0059H
00:0072 01-F0'00-00'              691   	bl	_MainOp_Ambient_Light_Sensor_8
                                  692   
                                  693   ;;			break;
                                  694   CLINEA 0000H 0001H 01CFH 0004H 0009H
00:0076 EB CE                     695   	bal	_$L37
                                  696   
                                  697   ;;		case 9:
                                  698   CLINEA 0000H 0001H 01D0H 0003H 0009H
00:0078                           699   _$S45 :
                                  700   
                                  701   ;;			MainOp_Ambient_Light_Sensor_9(); // Refer to function description for list of sensors 
                                  702   CLINEA 0000H 0001H 01D1H 0004H 0059H
00:0078 01-F0'00-00'              703   	bl	_MainOp_Ambient_Light_Sensor_9
                                  704   
                                  705   ;;			break;
                                  706   CLINEA 0000H 0001H 01D2H 0004H 0009H
00:007C E8 CE                     707   	bal	_$L37
                                  708   
                                  709   ;;		case 10:
                                  710   CLINEA 0000H 0001H 01D3H 0003H 000AH
00:007E                           711   _$S46 :
                                  712   
                                  713   ;;			MainOp_UV_Sensor_10(); // Refer to function description for list of sensors 
                                  714   CLINEA 0000H 0001H 01D4H 0004H 004FH
00:007E 01-F0'00-00'              715   	bl	_MainOp_UV_Sensor_10
                                  716   
                                  717   ;;			break;
                                  718   CLINEA 0000H 0001H 01D5H 0004H 0009H
00:0082 E5 CE                     719   	bal	_$L37
                                  720   
                                  721   ;;		case 15:
                                  722   CLINEA 0000H 0001H 01D6H 0003H 000AH
00:0084                           723   _$S47 :
                                  724   
                                  725   ;;			MainOp_KX022(); // Refer to function description for list of sensors 
                                  726   CLINEA 0000H 0001H 01D7H 0004H 0048H
00:0084 01-F0'00-00'              727   	bl	_MainOp_KX022
                                  728   
                                  729   ;;			break;
                                  730   CLINEA 0000H 0001H 01D8H 0004H 0009H
00:0088 E2 CE                     731   	bal	_$L37
                                  732   
                                  733   ;;		case 16:
                                  734   CLINEA 0000H 0001H 01D9H 0003H 000AH
00:008A                           735   _$S48 :
                                  736   
                                  737   ;;			MainOp_KMX61(); // Refer to function description for list of sensors 
                                  738   CLINEA 0000H 0001H 01DAH 0004H 0048H
00:008A 01-F0'00-00'              739   	bl	_MainOp_KMX61
                                  740   
                                  741   ;;			break;
                                  742   CLINEA 0000H 0001H 01DBH 0004H 0009H
00:008E DF CE                     743   	bal	_$L37
                                  744   
                                  745   ;;		case 20:
                                  746   CLINEA 0000H 0001H 01DCH 0003H 000AH
00:0090                           747   _$S49 :
                                  748   
                                  749   ;;			MainOp_Temperature_Sensor_20(); // Refer to function description for list of sensors 
                                  750   CLINEA 0000H 0001H 01DDH 0004H 0058H
00:0090 01-F0'00-00'              751   	bl	_MainOp_Temperature_Sensor_20
                                  752   
                                  753   ;;			break;
                                  754   CLINEA 0000H 0001H 01DEH 0004H 0009H
00:0094 DC CE                     755   	bal	_$L37
                                  756   
                                  757   ;;		case 21:
                                  758   CLINEA 0000H 0001H 01DFH 0003H 000AH
00:0096                           759   _$S50 :
                                  760   
                                  761   ;;			MainOp_Temperature_Sensor_21(); // Refer to function description for list of sensors
                                  762   CLINEA 0000H 0001H 01E0H 0004H 0057H
00:0096 01-F0'00-00'              763   	bl	_MainOp_Temperature_Sensor_21
                                  764   
                                  765   ;;			break;
                                  766   CLINEA 0000H 0001H 01E1H 0004H 0009H
00:009A D9 CE                     767   	bal	_$L37
                                  768   
                                  769   ;;		case 22:
                                  770   CLINEA 0000H 0001H 01E2H 0003H 000AH
00:009C                           771   _$S51 :
                                  772   
                                  773   ;;			MainOp_Temperature_Sensor_22(); // Refer to function description for list of sensors 
                                  774   CLINEA 0000H 0001H 01E3H 0004H 0058H
00:009C 01-F0'00-00'              775   	bl	_MainOp_Temperature_Sensor_22
                                  776   
                                  777   ;;			break;
                                  778   CLINEA 0000H 0001H 01E4H 0004H 0009H
00:00A0 D6 CE                     779   	bal	_$L37
                                  780   
                                  781   ;;		case 23:
                                  782   CLINEA 0000H 0001H 01E5H 0003H 000AH
00:00A2                           783   _$S52 :
                                  784   
                                  785   ;;			MainOp_Temperature_Sensor_23(); // Refer to function description for list of sensors
                                  786   CLINEA 0000H 0001H 01E6H 0004H 0057H
00:00A2 01-F0'00-00'              787   	bl	_MainOp_Temperature_Sensor_23
                                  788   
                                  789   ;;			break; 
                                  790   CLINEA 0000H 0001H 01E7H 0004H 000AH
00:00A6 D3 CE                     791   	bal	_$L37
                                  792   
                                  793   ;;		default:
                                  794   CLINEA 0000H 0001H 01E8H 0003H 000AH
00:00A8                           795   _$L38 :
                                  796   
                                  797   ;;			PRINTF(ESC_ERASE2END "No device connected." ESC_SOL);
                                  798   CLINEA 0000H 0001H 01E9H 0004H 0038H
00:00A8 19 E0                     799   	mov	er0,	#25
00:00AA 5E-F0                     800   	push	er0
00:00AC 00'02                     801   	mov	r2,	#BYTE1 OFFSET $$S53
00:00AE 00'03                     802   	mov	r3,	#BYTE2 OFFSET $$S53
00:00B0 00 E0                     803   	mov	er0,	#0 
00:00B2 01-F0'00-00'              804   	bl	_write
00:00B6 02 E1                     805   	add	sp,	#2 
                                  806   
                                  807   ;;			FlashLEDs();
                                  808   CLINEA 0000H 0001H 01EAH 0004H 000FH
00:00B8 01-F0'00-00'              809   	bl	_FlashLEDs
                                  810   
                                  811   ;;			break;
                                  812   CLINEA 0000H 0001H 01EBH 0004H 0009H
00:00BC C8 CE                     813   	bal	_$L37
                                  814   CBLOCKEND 229 4 492
                                  815   CBLOCKEND 229 1 496
                                  816   CFUNCTIONEND 229
                                  817   
                                  818   
  --------------------------      819   	rseg $$Initialization$main
                                  820   CFUNCTION 180
                                  821   
00:0000                           822   _Initialization	:
                                  823   CBLOCK 180 1 508
                                  824   
                                  825   ;;static void Initialization(void){
                                  826   CLINEA 0000H 0001H 01FCH 0001H 0021H
00:0000 CE-F8                     827   	push	lr
                                  828   CBLOCK 180 2 508
                                  829   CRET 0000H
                                  830   
                                  831   ;;	DSIO0 = 1; // 0=> Enables Synchronous Serial Port 0 (initial value).
                                  832   CLINEA 0000H 0001H 0200H 0002H 0045H
00:0002 80-A0 2A-F0               833   	sb	0f02ah.0
                                  834   
                                  835   ;;	DUA0  = 0; // 0=> Enables the operation of UART0 (initial value).
                                  836   CLINEA 0000H 0001H 0201H 0002H 0042H
00:0006 A2-A0 2A-F0               837   	rb	0f02ah.2
                                  838   
                                  839   ;;	DUA1  = 1; // 0=> Enables Uart1 (initial value). 
                                  840   CLINEA 0000H 0001H 0202H 0002H 0032H
00:000A B0-A0 2A-F0               841   	sb	0f02ah.3
                                  842   
                                  843   ;;	DI2C1 = 1; // 0=> Enables I2C bus Interface (Slave) (initial value).
                                  844   CLINEA 0000H 0001H 0203H 0002H 0045H
00:000E E0-A0 2A-F0               845   	sb	0f02ah.6
                                  846   
                                  847   ;;	DI2C0 = 0; // 0=> Enables I2C bus Interface (Master) (initial value).	
                                  848   CLINEA 0000H 0001H 0204H 0002H 0047H
00:0012 F2-A0 2A-F0               849   	rb	0f02ah.7
                                  850   
                                  851   ;;	BLKCON4 = 0x00; // 0=> Enables SA-ADC
                                  852   CLINEA 0000H 0001H 0206H 0002H 0026H
00:0016 00 00                     853   	mov	r0,	#00h
00:0018 11-90 2C-F0               854   	st	r0,	0f02ch
                                  855   
                                  856   ;;	BLKCON6 = 0x00; // (1=disables; 0=enables) the operation of Timers 8, 9, A, E, F.
                                  857   CLINEA 0000H 0001H 0207H 0002H 0052H
00:001C 11-90 2E-F0               858   	st	r0,	0f02eh
                                  859   
                                  860   ;;	BLKCON7 = 0x0F; // (1=disables; 0=enables) the operation of PWM (PWMC, PWMD, PWME, PWMF
                                  861   CLINEA 0000H 0001H 0208H 0002H 0058H
00:0020 0F 00                     862   	mov	r0,	#0fh
00:0022 11-90 2F-F0               863   	st	r0,	0f02fh
                                  864   
                                  865   ;;	PortA_Low();	//Initialize all 3 Ports of Port A to GPIO-Low
                                  866   CLINEA 0000H 0001H 020BH 0002H 003CH
00:0026 01-F0'00-00'              867   	bl	_PortA_Low
                                  868   
                                  869   ;;	PortB_Low();	//Initialize all 8 Ports of Port B to GPIO-Low
                                  870   CLINEA 0000H 0001H 020CH 0002H 003CH
00:002A 01-F0'00-00'              871   	bl	_PortB_Low
                                  872   
                                  873   ;;	PortC_Low();	//Initialize all 8 Ports of Port C to GPIO-Low
                                  874   CLINEA 0000H 0001H 020DH 0002H 003CH
00:002E 01-F0'00-00'              875   	bl	_PortC_Low
                                  876   
                                  877   ;;	PortD_Low();	//Initialize all 6 Ports of Port D to input GPIO
                                  878   CLINEA 0000H 0001H 020EH 0002H 003EH
00:0032 01-F0'00-00'              879   	bl	_PortD_Low
                                  880   
                                  881   ;;    SetOSC();
                                  882   CLINEA 0000H 0001H 0211H 0005H 000DH
00:0036 01-F0'00-00'              883   	bl	_SetOSC
                                  884   
                                  885   ;;	PA0DIR = 1;
                                  886   CLINEA 0000H 0001H 0214H 0002H 000CH
00:003A 80-A0 51-F2               887   	sb	0f251h.0
                                  888   
                                  889   ;;	PA1DIR = 1;		//GPIO Input
                                  890   CLINEA 0000H 0001H 0215H 0002H 001AH
00:003E 90-A0 51-F2               891   	sb	0f251h.1
                                  892   
                                  893   ;;	SACH0 = 1;		//This enables the ADC Channel 0 from A0 Pin
                                  894   CLINEA 0000H 0001H 0216H 0002H 0039H
00:0042 80-A0 F2-F2               895   	sb	0f2f2h.0
                                  896   
                                  897   ;;	SACH1 = 1;		//This enables the ADC Channel 1 from A1 Pin
                                  898   CLINEA 0000H 0001H 0217H 0002H 0039H
00:0046 90-A0 F2-F2               899   	sb	0f2f2h.1
                                  900   
                                  901   ;;	SALP = 0;		//Single Read or Continuous Read... Single = 0, Consecutive = 1
                                  902   CLINEA 0000H 0001H 0218H 0002H 004BH
00:004A 82-A0 F0-F2               903   	rb	0f2f0h.0
                                  904   
                                  905   ;;	irq_di();	// Disable Interrupts
                                  906   CLINEA 0000H 0001H 021CH 0002H 0020H
00:004E 01-F0'00-00'              907   	bl	_irq_di
                                  908   
                                  909   ;;	irq_init();	// Initialize Interrupts (All Off and NO Requests)
                                  910   CLINEA 0000H 0001H 021DH 0002H 003FH
00:0052 01-F0'00-00'              911   	bl	_irq_init
                                  912   
                                  913   ;;	IE0 = IE1 = IE2 = IE3 = IE4 = IE5 = IE6 = IE7 = 0;
                                  914   CLINEA 0000H 0001H 0220H 0002H 0033H
00:0056 00 00                     915   	mov	r0,	#00h
00:0058 11-90 17-F0               916   	st	r0,	0f017h
00:005C 11-90 16-F0               917   	st	r0,	0f016h
00:0060 11-90 15-F0               918   	st	r0,	0f015h
00:0064 11-90 14-F0               919   	st	r0,	0f014h
00:0068 11-90 13-F0               920   	st	r0,	0f013h
00:006C 11-90 12-F0               921   	st	r0,	0f012h
00:0070 11-90 11-F0               922   	st	r0,	0f011h
00:0074 11-90 10-F0               923   	st	r0,	0f010h
                                  924   
                                  925   ;;	IRQ0 = IRQ1 = IRQ2 = IRQ3 = IRQ4 = IRQ5 = IRQ6 = IRQ7 = 0;
                                  926   CLINEA 0000H 0001H 0222H 0002H 003BH
00:0078 11-90 1F-F0               927   	st	r0,	0f01fh
00:007C 11-90 1E-F0               928   	st	r0,	0f01eh
00:0080 11-90 1D-F0               929   	st	r0,	0f01dh
00:0084 11-90 1C-F0               930   	st	r0,	0f01ch
00:0088 11-90 1B-F0               931   	st	r0,	0f01bh
00:008C 11-90 1A-F0               932   	st	r0,	0f01ah
00:0090 11-90 19-F0               933   	st	r0,	0f019h
00:0094 11-90 18-F0               934   	st	r0,	0f018h
                                  935   
                                  936   ;;	E2H = 0;	// E2H is the Enable flag for 2Hz TBC Interrupt (1=ENABLED)
                                  937   CLINEA 0000H 0001H 0224H 0002H 0045H
00:0098 B2-A0 17-F0               938   	rb	0f017h.3
                                  939   
                                  940   ;;	irq_setHdr((unsigned char)IRQ_NO_UA0INT, _intUart);
                                  941   CLINEA 0000H 0001H 0226H 0002H 0034H
00:009C 00'02                     942   	mov	r2,	#BYTE1 OFFSET __intUart
00:009E 00'03                     943   	mov	r3,	#BYTE2 OFFSET __intUart
00:00A0 0F 00                     944   	mov	r0,	#0fh
00:00A2 01-F0'00-00'              945   	bl	_irq_setHdr
                                  946   
                                  947   ;;	EUA0 = 1; 	// EUA0 is the enable flag for the UART0 interrupt (1=ENABLED)
                                  948   CLINEA 0000H 0001H 0227H 0002H 004AH
00:00A6 80-A0 14-F0               949   	sb	0f014h.0
                                  950   
                                  951   ;;	irq_setHdr((unsigned char)IRQ_NO_I2CMINT, _intI2c);
                                  952   CLINEA 0000H 0001H 0229H 0002H 0034H
00:00AA 00'02                     953   	mov	r2,	#BYTE1 OFFSET __intI2c
00:00AC 00'03                     954   	mov	r3,	#BYTE2 OFFSET __intI2c
00:00AE 0C 00                     955   	mov	r0,	#0ch
00:00B0 01-F0'00-00'              956   	bl	_irq_setHdr
                                  957   
                                  958   ;;	EI2CM = 1;
                                  959   CLINEA 0000H 0001H 022AH 0002H 000BH
00:00B4 F0-A0 12-F0               960   	sb	0f012h.7
                                  961   
                                  962   ;;	QI2CM = 0;
                                  963   CLINEA 0000H 0001H 022BH 0002H 000BH
00:00B8 F2-A0 1A-F0               964   	rb	0f01ah.7
                                  965   
                                  966   ;;	irq_setHdr((unsigned char)IRQ_NO_SADINT, _intADC);
                                  967   CLINEA 0000H 0001H 022EH 0002H 0033H
00:00BC 00'02                     968   	mov	r2,	#BYTE1 OFFSET __intADC
00:00BE 00'03                     969   	mov	r3,	#BYTE2 OFFSET __intADC
00:00C0 0A 00                     970   	mov	r0,	#0ah
00:00C2 01-F0'00-00'              971   	bl	_irq_setHdr
                                  972   
                                  973   ;;	ESAD = 1;
                                  974   CLINEA 0000H 0001H 022FH 0002H 000AH
00:00C6 A0-A0 12-F0               975   	sb	0f012h.2
                                  976   
                                  977   ;;	QSAD = 0;
                                  978   CLINEA 0000H 0001H 0230H 0002H 000AH
00:00CA A2-A0 1A-F0               979   	rb	0f01ah.2
                                  980   
                                  981   ;;	irq_ei(); // Enable Interrupts
                                  982   CLINEA 0000H 0001H 023CH 0002H 001FH
00:00CE 01-F0'00-00'              983   	bl	_irq_ei
                                  984   
                                  985   ;;	WDTMOD = 0x01; 	
                                  986   CLINEA 0000H 0001H 0248H 0002H 0011H
00:00D2 01 00                     987   	mov	r0,	#01h
00:00D4 11-90 0F-F0               988   	st	r0,	0f00fh
                                  989   
                                  990   ;;	main_clrWDT(); 	// Clear WDT
                                  991   CLINEA 0000H 0001H 0249H 0002H 001DH
00:00D8 01-F0'00-00'              992   	bl	_main_clrWDT
                                  993   
                                  994   ;;	i2c_init(I2C_MOD_FST, (unsigned short)HSCLK_KHZ, I2C_SYN_OFF);
                                  995   CLINEA 0000H 0001H 024FH 0002H 003FH
00:00DC 00 00                     996   	mov	r0,	#00h
00:00DE 4E-F0                     997   	push	r0
00:00E0 40 02                     998   	mov	r2,	#040h
00:00E2 1F 03                     999   	mov	r3,	#01fh
00:00E4 01 00                    1000   	mov	r0,	#01h
00:00E6 01-F0'00-00'             1001   	bl	_i2c_init
00:00EA 02 E1                    1002   	add	sp,	#2 
                                 1003   
                                 1004   ;;			   &_uartSetParam );				/* Param... 	 */
                                 1005   CLINEA 0000H 0001H 0254H 0007H 002BH
00:00EC 00'00                    1006   	mov	r0,	#BYTE1 OFFSET __uartSetParam
00:00EE 00'01                    1007   	mov	r1,	#BYTE2 OFFSET __uartSetParam
00:00F0 5E-F0                    1008   	push	er0
00:00F2 40 02                    1009   	mov	r2,	#040h
00:00F4 1F 03                    1010   	mov	r3,	#01fh
00:00F6 02 00                    1011   	mov	r0,	#02h
00:00F8 01-F0'00-00'             1012   	bl	_uart_init
00:00FC 02 E1                    1013   	add	sp,	#2 
                                 1014   
                                 1015   ;;	uart_PortSet();
                                 1016   CLINEA 0000H 0001H 0255H 0002H 0010H
00:00FE 01-F0'00-00'             1017   	bl	_uart_PortSet
                                 1018   CBLOCKEND 180 2 601
                                 1019   
                                 1020   ;;}//End Initialization
                                 1021   CLINEA 0000H 0001H 0259H 0001H 0015H
00:0102 8E-F2                    1022   	pop	pc
                                 1023   CBLOCKEND 180 1 601
                                 1024   CFUNCTIONEND 180
                                 1025   
                                 1026   
  --------------------------     1027   	rseg $$write$main
                                 1028   CFUNCTION 186
                                 1029   
00:0000                          1030   _write	:
                                 1031   CBLOCK 186 1 615
                                 1032   
                                 1033   ;;{
                                 1034   CLINEA 0000H 0001H 0267H 0001H 0001H
00:0000 CE-F8                    1035   	push	lr
00:0002 5E-FE                    1036   	push	fp
00:0004 1A-AE                    1037   	mov	fp,	sp
00:0006 5E-FA                    1038   	push	er10
00:0008 25-FA                    1039   	mov	er10,	er2
                                 1040   CBLOCK 186 2 615
                                 1041   CRET 0004H
                                 1042   CARGUMENT 47H 0002H 0000H "handle" 02H 00H 01H
                                 1043   CARGUMENT 46H 0002H 0029H "buffer" 04H 03H 00H 00H 00H
                                 1044   CARGUMENT 42H 0002H 0004H "len" 02H 00H 01H
                                 1045   
                                 1046   ;;	_flgUartFin = 0; 
                                 1047   CLINEA 0000H 0001H 0268H 0002H 0012H
00:000A 00 00                    1048   	mov	r0,	#00h
00:000C 11-90 00-00'             1049   	st	r0,	NEAR __flgUartFin
                                 1050   
                                 1051   ;;	uart_stop();
                                 1052   CLINEA 0000H 0001H 0269H 0002H 000DH
00:0010 01-F0'00-00'             1053   	bl	_uart_stop
                                 1054   
                                 1055   ;;	uart_startSend(buffer, len, _funcUartFin); 
                                 1056   CLINEA 0000H 0001H 026AH 0002H 002CH
00:0014 00'00                    1057   	mov	r0,	#BYTE1 OFFSET __funcUartFin
00:0016 00'01                    1058   	mov	r1,	#BYTE2 OFFSET __funcUartFin
00:0018 5E-F0                    1059   	push	er0
00:001A 44 B2                    1060   	l	er2,	4[fp]
00:001C A5-F0                    1061   	mov	er0,	er10
00:001E 01-F0'00-00'             1062   	bl	_uart_startSend
00:0022 02 E1                    1063   	add	sp,	#2 
                                 1064   
                                 1065   ;;	while(_flgUartFin != 1)
                                 1066   CLINEA 0000H 0000H 026BH 0001H 0001H
00:0024 02 CE                    1067   	bal	_$L60
                                 1068   
                                 1069   ;;	while(_flgUartFin != 1)
                                 1070   CLINEA 0000H 0000H 026BH 0002H 0018H
00:0026                          1071   _$L58 :
                                 1072   CBLOCK 186 3 620
                                 1073   
                                 1074   ;;		main_clrWDT();
                                 1075   CLINEA 0000H 0001H 026DH 0003H 0010H
00:0026 01-F0'00-00'             1076   	bl	_main_clrWDT
                                 1077   CBLOCKEND 186 3 622
                                 1078   
                                 1079   ;;	while(_flgUartFin != 1)
                                 1080   CLINEA 0000H 0000H 026BH 0001H 0001H
00:002A                          1081   _$L60 :
00:002A 10-90 00-00'             1082   	l	r0,	NEAR __flgUartFin
00:002E 01 70                    1083   	cmp	r0,	#01h
00:0030 FA C8                    1084   	bne	_$L58
                                 1085   
                                 1086   ;;	return len;
                                 1087   CLINEA 0000H 0001H 026FH 0002H 000CH
00:0032 44 B0                    1088   	l	er0,	4[fp]
                                 1089   CBLOCKEND 186 2 624
                                 1090   
                                 1091   ;;}
                                 1092   CLINEA 0000H 0000H 0270H 0001H 0001H
00:0034 1E-FA                    1093   	pop	er10
00:0036 EA-A1                    1094   	mov	sp,	fp
00:0038 1E-FE                    1095   	pop	fp
00:003A 8E-F2                    1096   	pop	pc
                                 1097   CBLOCKEND 186 1 624
                                 1098   CFUNCTIONEND 186
                                 1099   
                                 1100   
  --------------------------     1101   	rseg $$ADC_Read$main
                                 1102   CFUNCTION 187
                                 1103   
00:0000                          1104   _ADC_Read	:
                                 1105   CBLOCK 187 1 635
                                 1106   
                                 1107   ;;{
                                 1108   CLINEA 0000H 0001H 027BH 0001H 0001H
00:0000 CE-F8                    1109   	push	lr
00:0002 5E-F8                    1110   	push	er8
00:0004 00-88                    1111   	mov	r8,	r0
                                 1112   CBLOCK 187 2 635
                                 1113   CRET 0002H
                                 1114   CARGUMENT 46H 0001H 001CH "idx" 02H 00H 00H
                                 1115   
                                 1116   ;;	_flgADCFin = 0;
                                 1117   CLINEA 0000H 0001H 027CH 0002H 0010H
00:0006 00 00                    1118   	mov	r0,	#00h
00:0008 11-90 00-00'             1119   	st	r0,	NEAR __flgADCFin
                                 1120   
                                 1121   ;;	SADMOD0 = (unsigned char)(1<<idx);
                                 1122   CLINEA 0000H 0001H 027DH 0002H 0023H
00:000C 01 E0                    1123   	mov	er0,	#1 
00:000E 80-82                    1124   	mov	r2,	r8
00:0010                          1125   _$M6 :
00:0010 07 72                    1126   	cmp	r2,	#07h
00:0012 04 C3                    1127   	ble	_$M5
00:0014 7B-91                    1128   	sllc	r1,	#07h
00:0016 7A-90                    1129   	sll	r0,	#07h
00:0018 F9 12                    1130   	add	r2,	#0f9h
00:001A FA C8                    1131   	bne	_$M6
00:001C                          1132   _$M5 :
00:001C 2A-80                    1133   	sll	r0,	r2
00:001E 11-90 F2-F2              1134   	st	r0,	0f2f2h
                                 1135   
                                 1136   ;;	SARUN = 1;
                                 1137   CLINEA 0000H 0001H 027EH 0002H 000BH
00:0022 80-A0 F1-F2              1138   	sb	0f2f1h.0
                                 1139   
                                 1140   ;;	while(_flgADCFin == 0)
                                 1141   CLINEA 0000H 0000H 027FH 0001H 0001H
00:0026 02 CE                    1142   	bal	_$L79
                                 1143   
                                 1144   ;;	while(_flgADCFin == 0)
                                 1145   CLINEA 0000H 0000H 027FH 0002H 0017H
00:0028                          1146   _$L64 :
                                 1147   CBLOCK 187 3 640
                                 1148   
                                 1149   ;;		main_clrWDT();
                                 1150   CLINEA 0000H 0001H 0281H 0003H 0010H
00:0028 01-F0'00-00'             1151   	bl	_main_clrWDT
                                 1152   CBLOCKEND 187 3 642
                                 1153   
                                 1154   ;;	while(_flgADCFin == 0)
                                 1155   CLINEA 0000H 0000H 027FH 0001H 0001H
00:002C                          1156   _$L79 :
00:002C 10-90 00-00'             1157   	l	r0,	NEAR __flgADCFin
00:0030 FB C9                    1158   	beq	_$L64
                                 1159   
                                 1160   ;;	switch(idx)
                                 1161   CLINEA 0000H 0001H 0283H 0002H 000CH
00:0032 80-80                    1162   	mov	r0,	r8
00:0034 00 01                    1163   	mov	r1,	#00h
                                 1164   CBLOCK 187 4 644
00:0036 07 78                    1165   	cmp	r8,	#07h
00:0038 00 51                    1166   	cmpc	r1,	#00h
00:003A 02 C3                    1167   	ble	_$M8
00:003C 00-F0'00-00'             1168   	b	_$L70
00:0040                          1169   _$M8 :
00:0040 1B-91                    1170   	sllc	r1,	#01h
00:0042 1A-90                    1171   	sll	r0,	#01h
00:0044 08-A0 00-00'             1172   	l	er0,	NEAR _$M7[er0]
00:0048 02-F0                    1173   	b	er0
                                 1174   
                                 1175   ;;	}
                                 1176   CBLOCKEND 187 2 655
                                 1177   
                                 1178   ;;}
                                 1179   CLINEA 0000H 0001H 028FH 0001H 0001H
00:004A                          1180   _$L61 :
00:004A 1E-F8                    1181   	pop	er8
00:004C 8E-F2                    1182   	pop	pc
                                 1183   
                                 1184   ;;		case 0:		return (SADR0H<<2|SADR0L>>6);
                                 1185   CLINEA 0000H 0001H 0285H 0003H 0028H
00:004E                          1186   _$S71 :
00:004E 10-90 D1-F2              1187   	l	r0,	0f2d1h
00:0052 00 01                    1188   	mov	r1,	#00h
00:0054 2B-91                    1189   	sllc	r1,	#02h
00:0056 2A-90                    1190   	sll	r0,	#02h
00:0058 10-92 D0-F2              1191   	l	r2,	0f2d0h
00:005C 00 03                    1192   	mov	r3,	#00h
00:005E 6D-92                    1193   	srlc	r2,	#06h
00:0060 6E-93                    1194   	sra	r3,	#06h
00:0062 03-82                    1195   	or	r2,	r0
00:0064 13-83                    1196   	or	r3,	r1
00:0066 25-F0                    1197   	mov	er0,	er2
00:0068 F0 CE                    1198   	bal	_$L61
                                 1199   
                                 1200   ;;		case 1:		return (SADR1H<<2|SADR1L>>6);
                                 1201   CLINEA 0000H 0001H 0286H 0003H 0028H
00:006A                          1202   _$S72 :
00:006A 10-90 D3-F2              1203   	l	r0,	0f2d3h
00:006E 00 01                    1204   	mov	r1,	#00h
00:0070 2B-91                    1205   	sllc	r1,	#02h
00:0072 2A-90                    1206   	sll	r0,	#02h
00:0074 10-92 D2-F2              1207   	l	r2,	0f2d2h
00:0078 00 03                    1208   	mov	r3,	#00h
00:007A 6D-92                    1209   	srlc	r2,	#06h
00:007C 6E-93                    1210   	sra	r3,	#06h
00:007E 03-82                    1211   	or	r2,	r0
00:0080 13-83                    1212   	or	r3,	r1
00:0082 25-F0                    1213   	mov	er0,	er2
00:0084 E2 CE                    1214   	bal	_$L61
                                 1215   
                                 1216   ;;		case 2:		return (SADR2H<<2|SADR2L>>6);
                                 1217   CLINEA 0000H 0001H 0287H 0003H 0028H
00:0086                          1218   _$S73 :
00:0086 10-90 D5-F2              1219   	l	r0,	0f2d5h
00:008A 00 01                    1220   	mov	r1,	#00h
00:008C 2B-91                    1221   	sllc	r1,	#02h
00:008E 2A-90                    1222   	sll	r0,	#02h
00:0090 10-92 D4-F2              1223   	l	r2,	0f2d4h
00:0094 00 03                    1224   	mov	r3,	#00h
00:0096 6D-92                    1225   	srlc	r2,	#06h
00:0098 6E-93                    1226   	sra	r3,	#06h
00:009A 03-82                    1227   	or	r2,	r0
00:009C 13-83                    1228   	or	r3,	r1
00:009E 25-F0                    1229   	mov	er0,	er2
00:00A0 D4 CE                    1230   	bal	_$L61
                                 1231   
                                 1232   ;;		case 3:		return (SADR3H<<2|SADR3L>>6);
                                 1233   CLINEA 0000H 0001H 0288H 0003H 0028H
00:00A2                          1234   _$S74 :
00:00A2 10-90 D7-F2              1235   	l	r0,	0f2d7h
00:00A6 00 01                    1236   	mov	r1,	#00h
00:00A8 2B-91                    1237   	sllc	r1,	#02h
00:00AA 2A-90                    1238   	sll	r0,	#02h
00:00AC 10-92 D6-F2              1239   	l	r2,	0f2d6h
00:00B0 00 03                    1240   	mov	r3,	#00h
00:00B2 6D-92                    1241   	srlc	r2,	#06h
00:00B4 6E-93                    1242   	sra	r3,	#06h
00:00B6 03-82                    1243   	or	r2,	r0
00:00B8 13-83                    1244   	or	r3,	r1
00:00BA 25-F0                    1245   	mov	er0,	er2
00:00BC C6 CE                    1246   	bal	_$L61
                                 1247   
                                 1248   ;;		case 4:		return (SADR4H<<2|SADR4L>>6);
                                 1249   CLINEA 0000H 0001H 0289H 0003H 0028H
00:00BE                          1250   _$S75 :
00:00BE 10-90 D9-F2              1251   	l	r0,	0f2d9h
00:00C2 00 01                    1252   	mov	r1,	#00h
00:00C4 2B-91                    1253   	sllc	r1,	#02h
00:00C6 2A-90                    1254   	sll	r0,	#02h
00:00C8 10-92 D8-F2              1255   	l	r2,	0f2d8h
00:00CC 00 03                    1256   	mov	r3,	#00h
00:00CE 6D-92                    1257   	srlc	r2,	#06h
00:00D0 6E-93                    1258   	sra	r3,	#06h
00:00D2 03-82                    1259   	or	r2,	r0
00:00D4 13-83                    1260   	or	r3,	r1
00:00D6 25-F0                    1261   	mov	er0,	er2
00:00D8 00-F0'00-00'             1262   	b	_$L61
                                 1263   
                                 1264   ;;		case 5:		return (SADR5H<<2|SADR5L>>6);
                                 1265   CLINEA 0000H 0001H 028AH 0003H 0028H
00:00DC                          1266   _$S76 :
00:00DC 10-90 DB-F2              1267   	l	r0,	0f2dbh
00:00E0 00 01                    1268   	mov	r1,	#00h
00:00E2 2B-91                    1269   	sllc	r1,	#02h
00:00E4 2A-90                    1270   	sll	r0,	#02h
00:00E6 10-92 DA-F2              1271   	l	r2,	0f2dah
00:00EA 00 03                    1272   	mov	r3,	#00h
00:00EC 6D-92                    1273   	srlc	r2,	#06h
00:00EE 6E-93                    1274   	sra	r3,	#06h
00:00F0 03-82                    1275   	or	r2,	r0
00:00F2 13-83                    1276   	or	r3,	r1
00:00F4 25-F0                    1277   	mov	er0,	er2
00:00F6 00-F0'00-00'             1278   	b	_$L61
                                 1279   
                                 1280   ;;		case 6:		return (SADR6H<<2|SADR6L>>6);
                                 1281   CLINEA 0000H 0001H 028BH 0003H 0028H
00:00FA                          1282   _$S77 :
00:00FA 10-90 DD-F2              1283   	l	r0,	0f2ddh
00:00FE 00 01                    1284   	mov	r1,	#00h
00:0100 2B-91                    1285   	sllc	r1,	#02h
00:0102 2A-90                    1286   	sll	r0,	#02h
00:0104 10-92 DC-F2              1287   	l	r2,	0f2dch
00:0108 00 03                    1288   	mov	r3,	#00h
00:010A 6D-92                    1289   	srlc	r2,	#06h
00:010C 6E-93                    1290   	sra	r3,	#06h
00:010E 03-82                    1291   	or	r2,	r0
00:0110 13-83                    1292   	or	r3,	r1
00:0112 25-F0                    1293   	mov	er0,	er2
00:0114 00-F0'00-00'             1294   	b	_$L61
                                 1295   
                                 1296   ;;		case 7:		return (SADR7H<<2|SADR7L>>6);
                                 1297   CLINEA 0000H 0001H 028CH 0003H 0028H
00:0118                          1298   _$S78 :
00:0118 10-90 DF-F2              1299   	l	r0,	0f2dfh
00:011C 00 01                    1300   	mov	r1,	#00h
00:011E 2B-91                    1301   	sllc	r1,	#02h
00:0120 2A-90                    1302   	sll	r0,	#02h
00:0122 10-92 DE-F2              1303   	l	r2,	0f2deh
00:0126 00 03                    1304   	mov	r3,	#00h
00:0128 6D-92                    1305   	srlc	r2,	#06h
00:012A 6E-93                    1306   	sra	r3,	#06h
00:012C 03-82                    1307   	or	r2,	r0
00:012E 13-83                    1308   	or	r3,	r1
00:0130 25-F0                    1309   	mov	er0,	er2
00:0132 00-F0'00-00'             1310   	b	_$L61
                                 1311   
                                 1312   ;;		default:	return 0;
                                 1313   CLINEA 0000H 0001H 028DH 0003H 0014H
00:0136                          1314   _$L70 :
00:0136 00 E0                    1315   	mov	er0,	#0 
00:0138 00-F0'00-00'             1316   	b	_$L61
                                 1317   CBLOCKEND 187 4 654
                                 1318   CBLOCKEND 187 1 655
                                 1319   CFUNCTIONEND 187
                                 1320   
                                 1321   
  --------------------------     1322   	rseg $$I2C_Read$main
                                 1323   CFUNCTION 188
                                 1324   
00:0000                          1325   _I2C_Read	:
                                 1326   CBLOCK 188 1 670
                                 1327   
                                 1328   ;;{
                                 1329   CLINEA 0000H 0001H 029EH 0001H 0001H
00:0000 CE-F8                    1330   	push	lr
00:0002 5E-FE                    1331   	push	fp
00:0004 1A-AE                    1332   	mov	fp,	sp
00:0006 6E-F8                    1333   	push	xr8
00:0008 25-FA                    1334   	mov	er10,	er2
00:000A 00-88                    1335   	mov	r8,	r0
                                 1336   CBLOCK 188 2 670
                                 1337   CRET 0006H
                                 1338   CARGUMENT 46H 0001H 001CH "slave_address" 02H 00H 00H
                                 1339   CARGUMENT 46H 0002H 0029H "reg_address" 04H 03H 00H 00H 00H
                                 1340   CARGUMENT 42H 0001H 0004H "reg_address_size" 02H 00H 00H
                                 1341   CARGUMENT 42H 0002H 0006H "buffer" 04H 03H 00H 00H 00H
                                 1342   CARGUMENT 42H 0001H 0008H "size" 02H 00H 00H
                                 1343   
                                 1344   ;;	_flgI2CFin = 0;
                                 1345   CLINEA 0000H 0001H 029FH 0002H 0010H
00:000C 00 00                    1346   	mov	r0,	#00h
00:000E 11-90 00-00'             1347   	st	r0,	NEAR __flgI2CFin
                                 1348   
                                 1349   ;;	i2c_stop();	
                                 1350   CLINEA 0000H 0001H 02A0H 0002H 000DH
00:0012 01-F0'00-00'             1351   	bl	_i2c_stop
                                 1352   
                                 1353   ;;	i2c_startReceive(slave_address, reg_address, reg_address_size, buffer, size, (cbfI2c)_funcI2CFin);
                                 1354   CLINEA 0000H 0001H 02A1H 0002H 0063H
00:0016 00'00                    1355   	mov	r0,	#BYTE1 OFFSET __funcI2CFin
00:0018 00'01                    1356   	mov	r1,	#BYTE2 OFFSET __funcI2CFin
00:001A 5E-F0                    1357   	push	er0
00:001C 48 D0                    1358   	l	r0,	8[fp]
00:001E 00 01                    1359   	mov	r1,	#00h
00:0020 5E-F0                    1360   	push	er0
00:0022 46 B0                    1361   	l	er0,	6[fp]
00:0024 5E-F0                    1362   	push	er0
00:0026 44 D0                    1363   	l	r0,	4[fp]
00:0028 00 01                    1364   	mov	r1,	#00h
00:002A 5E-F0                    1365   	push	er0
00:002C A5-F2                    1366   	mov	er2,	er10
00:002E 80-80                    1367   	mov	r0,	r8
00:0030 01-F0'00-00'             1368   	bl	_i2c_startReceive
00:0034 08 E1                    1369   	add	sp,	#8 
                                 1370   
                                 1371   ;;	while(_flgI2CFin != 1)
                                 1372   CLINEA 0000H 0000H 02A2H 0001H 0001H
00:0036 02 CE                    1373   	bal	_$L85
                                 1374   
                                 1375   ;;	while(_flgI2CFin != 1)
                                 1376   CLINEA 0000H 0000H 02A2H 0002H 0017H
00:0038                          1377   _$L83 :
                                 1378   CBLOCK 188 3 675
                                 1379   
                                 1380   ;;		main_clrWDT();
                                 1381   CLINEA 0000H 0001H 02A4H 0003H 0010H
00:0038 01-F0'00-00'             1382   	bl	_main_clrWDT
                                 1383   CBLOCKEND 188 3 677
                                 1384   
                                 1385   ;;	while(_flgI2CFin != 1)
                                 1386   CLINEA 0000H 0000H 02A2H 0001H 0001H
00:003C                          1387   _$L85 :
00:003C 10-90 00-00'             1388   	l	r0,	NEAR __flgI2CFin
00:0040 01 70                    1389   	cmp	r0,	#01h
00:0042 FA C8                    1390   	bne	_$L83
                                 1391   CBLOCKEND 188 2 678
                                 1392   
                                 1393   ;;}
                                 1394   CLINEA 0000H 0001H 02A6H 0001H 0001H
00:0044 2E-F8                    1395   	pop	xr8
00:0046 EA-A1                    1396   	mov	sp,	fp
00:0048 1E-FE                    1397   	pop	fp
00:004A 8E-F2                    1398   	pop	pc
                                 1399   CBLOCKEND 188 1 678
                                 1400   CFUNCTIONEND 188
                                 1401   
                                 1402   
  --------------------------     1403   	rseg $$I2C_Write$main
                                 1404   CFUNCTION 189
                                 1405   
00:0000                          1406   _I2C_Write	:
                                 1407   CBLOCK 189 1 693
                                 1408   
                                 1409   ;;{
                                 1410   CLINEA 0000H 0001H 02B5H 0001H 0001H
00:0000 CE-F8                    1411   	push	lr
00:0002 5E-FE                    1412   	push	fp
00:0004 1A-AE                    1413   	mov	fp,	sp
00:0006 6E-F8                    1414   	push	xr8
00:0008 25-FA                    1415   	mov	er10,	er2
00:000A 00-88                    1416   	mov	r8,	r0
                                 1417   CBLOCK 189 2 693
                                 1418   CRET 0006H
                                 1419   CARGUMENT 46H 0001H 001CH "slave_address" 02H 00H 00H
                                 1420   CARGUMENT 46H 0002H 0029H "reg_address" 04H 03H 00H 00H 00H
                                 1421   CARGUMENT 42H 0001H 0004H "reg_address_size" 02H 00H 00H
                                 1422   CARGUMENT 42H 0002H 0006H "buffer" 04H 03H 00H 00H 00H
                                 1423   CARGUMENT 42H 0001H 0008H "size" 02H 00H 00H
                                 1424   
                                 1425   ;;	_flgI2CFin = 0;
                                 1426   CLINEA 0000H 0001H 02B6H 0002H 0010H
00:000C 00 00                    1427   	mov	r0,	#00h
00:000E 11-90 00-00'             1428   	st	r0,	NEAR __flgI2CFin
                                 1429   
                                 1430   ;;	i2c_stop();	
                                 1431   CLINEA 0000H 0001H 02B7H 0002H 000DH
00:0012 01-F0'00-00'             1432   	bl	_i2c_stop
                                 1433   
                                 1434   ;;	i2c_startSend(slave_address, reg_address, reg_address_size, buffer, size, (cbfI2c)_funcI2CFin);
                                 1435   CLINEA 0000H 0001H 02B8H 0002H 0060H
00:0016 00'00                    1436   	mov	r0,	#BYTE1 OFFSET __funcI2CFin
00:0018 00'01                    1437   	mov	r1,	#BYTE2 OFFSET __funcI2CFin
00:001A 5E-F0                    1438   	push	er0
00:001C 48 D0                    1439   	l	r0,	8[fp]
00:001E 00 01                    1440   	mov	r1,	#00h
00:0020 5E-F0                    1441   	push	er0
00:0022 46 B0                    1442   	l	er0,	6[fp]
00:0024 5E-F0                    1443   	push	er0
00:0026 44 D0                    1444   	l	r0,	4[fp]
00:0028 00 01                    1445   	mov	r1,	#00h
00:002A 5E-F0                    1446   	push	er0
00:002C A5-F2                    1447   	mov	er2,	er10
00:002E 80-80                    1448   	mov	r0,	r8
00:0030 01-F0'00-00'             1449   	bl	_i2c_startSend
00:0034 08 E1                    1450   	add	sp,	#8 
                                 1451   
                                 1452   ;;	while(_flgI2CFin != 1)
                                 1453   CLINEA 0000H 0000H 02B9H 0001H 0001H
00:0036 02 CE                    1454   	bal	_$L91
                                 1455   
                                 1456   ;;	while(_flgI2CFin != 1)
                                 1457   CLINEA 0000H 0000H 02B9H 0002H 0017H
00:0038                          1458   _$L89 :
                                 1459   CBLOCK 189 3 698
                                 1460   
                                 1461   ;;		main_clrWDT();
                                 1462   CLINEA 0000H 0001H 02BBH 0003H 0010H
00:0038 01-F0'00-00'             1463   	bl	_main_clrWDT
                                 1464   CBLOCKEND 189 3 700
                                 1465   
                                 1466   ;;	while(_flgI2CFin != 1)
                                 1467   CLINEA 0000H 0000H 02B9H 0001H 0001H
00:003C                          1468   _$L91 :
00:003C 10-90 00-00'             1469   	l	r0,	NEAR __flgI2CFin
00:0040 01 70                    1470   	cmp	r0,	#01h
00:0042 FA C8                    1471   	bne	_$L89
                                 1472   CBLOCKEND 189 2 701
                                 1473   
                                 1474   ;;}
                                 1475   CLINEA 0000H 0001H 02BDH 0001H 0001H
00:0044 2E-F8                    1476   	pop	xr8
00:0046 EA-A1                    1477   	mov	sp,	fp
00:0048 1E-FE                    1478   	pop	fp
00:004A 8E-F2                    1479   	pop	pc
                                 1480   CBLOCKEND 189 1 701
                                 1481   CFUNCTIONEND 189
                                 1482   
                                 1483   
  --------------------------     1484   	rseg $$DeviceSelection$main
                                 1485   CFUNCTION 199
                                 1486   
00:0000                          1487   _DeviceSelection	:
                                 1488   CBLOCK 199 1 713
                                 1489   
                                 1490   ;;{  
                                 1491   CLINEA 0000H 0001H 02C9H 0001H 0003H
                                 1492   CBLOCK 199 2 713
                                 1493   
                                 1494   ;;	if(PDD!=SensorPlatformSelection)
                                 1495   CLINEA 0000H 0001H 02D6H 0002H 0021H
00:0000 10-90 68-F2              1496   	l	r0,	0f268h
00:0004 10-91 00-00'             1497   	l	r1,	NEAR _SensorPlatformSelection
00:0008 17-80                    1498   	cmp	r0,	r1
00:000A 07 C9                    1499   	beq	_$L93
                                 1500   CBLOCK 199 3 727
                                 1501   
                                 1502   ;;		SensorIntializationFlag = 1;
                                 1503   CLINEA 0000H 0001H 02D8H 0003H 001EH
00:000C 01 00                    1504   	mov	r0,	#01h
00:000E 11-90 00-00'             1505   	st	r0,	NEAR _SensorIntializationFlag
                                 1506   
                                 1507   ;;		SensorPlatformSelection = PDD;
                                 1508   CLINEA 0000H 0001H 02D9H 0003H 0020H
00:0012 10-90 68-F2              1509   	l	r0,	0f268h
00:0016 11-90 00-00'             1510   	st	r0,	NEAR _SensorPlatformSelection
                                 1511   CBLOCKEND 199 3 730
                                 1512   
                                 1513   ;;	}
                                 1514   CLINEA 0000H 0000H 02DAH 0002H 0002H
00:001A                          1515   _$L93 :
                                 1516   CBLOCKEND 199 2 731
                                 1517   
                                 1518   ;;}
                                 1519   CLINEA 0000H 0001H 02DBH 0001H 0001H
00:001A 1F-FE                    1520   	rt
                                 1521   CBLOCKEND 199 1 731
                                 1522   CFUNCTIONEND 199
                                 1523   
                                 1524   
  --------------------------     1525   	rseg $$SensorInitialization$main
                                 1526   CFUNCTION 200
                                 1527   
00:0000                          1528   _SensorInitialization	:
                                 1529   CBLOCK 200 1 741
                                 1530   
                                 1531   ;;{  
                                 1532   CLINEA 0000H 0001H 02E5H 0001H 0003H
00:0000 CE-F8                    1533   	push	lr
                                 1534   CBLOCK 200 2 741
                                 1535   CRET 0000H
                                 1536   
                                 1537   ;;	switch(SensorPlatformSelection){
                                 1538   CLINEA 0000H 0001H 02E6H 0002H 0021H
00:0002 10-90 00-00'             1539   	l	r0,	NEAR _SensorPlatformSelection
00:0006 00 01                    1540   	mov	r1,	#00h
                                 1541   CBLOCK 200 3 742
00:0008 17 70                    1542   	cmp	r0,	#017h
00:000A 00 51                    1543   	cmpc	r1,	#00h
00:000C 09 C2                    1544   	bgt	_$L99
00:000E 01 70                    1545   	cmp	r0,	#01h
00:0010 00 51                    1546   	cmpc	r1,	#00h
00:0012 06 C1                    1547   	blt	_$L99
00:0014 FF E0                    1548   	add	er0,	#-1
00:0016 1B-91                    1549   	sllc	r1,	#01h
00:0018 1A-90                    1550   	sll	r0,	#01h
00:001A 08-A0 00-00'             1551   	l	er0,	NEAR _$M13[er0]
00:001E 02-F0                    1552   	b	er0
                                 1553   
                                 1554   ;;	} 	 
00:0020                          1555   _$L99 :
                                 1556   CBLOCKEND 200 2 788
                                 1557   
                                 1558   ;;}
                                 1559   CLINEA 0000H 0001H 0314H 0001H 0001H
00:0020 8E-F2                    1560   	pop	pc
                                 1561   
                                 1562   ;;		case 1:
                                 1563   CLINEA 0000H 0001H 02E7H 0003H 0009H
00:0022                          1564   _$S101 :
                                 1565   
                                 1566   ;;			Init_Hall_Effect_Sensors_1(); // Refer to function description for list of sensors
                                 1567   CLINEA 0000H 0001H 02E8H 0004H 0055H
00:0022 01-F0'00-00'             1568   	bl	_Init_Hall_Effect_Sensors_1
                                 1569   
                                 1570   ;;			break;
                                 1571   CLINEA 0000H 0001H 02E9H 0004H 0009H
00:0026 FC CE                    1572   	bal	_$L99
                                 1573   
                                 1574   ;;		case 2:
                                 1575   CLINEA 0000H 0001H 02EAH 0003H 0009H
00:0028                          1576   _$S102 :
                                 1577   
                                 1578   ;;			Init_Hall_Effect_Sensors_2(); // Refer to function description for list of sensors 
                                 1579   CLINEA 0000H 0001H 02EBH 0004H 0056H
00:0028 01-F0'00-00'             1580   	bl	_Init_Hall_Effect_Sensors_2
                                 1581   
                                 1582   ;;			break;
                                 1583   CLINEA 0000H 0001H 02ECH 0004H 0009H
00:002C F9 CE                    1584   	bal	_$L99
                                 1585   
                                 1586   ;;		case 5: 
                                 1587   CLINEA 0000H 0001H 02EDH 0003H 000AH
00:002E                          1588   _$S103 :
                                 1589   
                                 1590   ;;			Init_Ambient_Light_Sensor_5(); // Refer to function description for list of sensors
                                 1591   CLINEA 0000H 0001H 02EEH 0004H 0056H
00:002E 01-F0'00-00'             1592   	bl	_Init_Ambient_Light_Sensor_5
                                 1593   
                                 1594   ;;			break;
                                 1595   CLINEA 0000H 0001H 02EFH 0004H 0009H
00:0032 F6 CE                    1596   	bal	_$L99
                                 1597   
                                 1598   ;;		case 6:
                                 1599   CLINEA 0000H 0001H 02F0H 0003H 0009H
00:0034                          1600   _$S104 :
                                 1601   
                                 1602   ;;			Init_Ambient_Light_Sensor_6(); // Refer to function description for list of sensors 
                                 1603   CLINEA 0000H 0001H 02F1H 0004H 0057H
00:0034 01-F0'00-00'             1604   	bl	_Init_Ambient_Light_Sensor_6
                                 1605   
                                 1606   ;;			break;
                                 1607   CLINEA 0000H 0001H 02F2H 0004H 0009H
00:0038 F3 CE                    1608   	bal	_$L99
                                 1609   
                                 1610   ;;		case 7:
                                 1611   CLINEA 0000H 0001H 02F3H 0003H 0009H
00:003A                          1612   _$S105 :
                                 1613   
                                 1614   ;;			Init_Ambient_Light_Sensor_7(); // Refer to function description for list of sensors 
                                 1615   CLINEA 0000H 0001H 02F4H 0004H 0057H
00:003A 01-F0'00-00'             1616   	bl	_Init_Ambient_Light_Sensor_7
                                 1617   
                                 1618   ;;			break;
                                 1619   CLINEA 0000H 0001H 02F5H 0004H 0009H
00:003E F0 CE                    1620   	bal	_$L99
                                 1621   
                                 1622   ;;		case 8:
                                 1623   CLINEA 0000H 0001H 02F6H 0003H 0009H
00:0040                          1624   _$S106 :
                                 1625   
                                 1626   ;;			Init_Ambient_Light_Sensor_8(); // Refer to function description for list of sensors 
                                 1627   CLINEA 0000H 0001H 02F7H 0004H 0057H
00:0040 01-F0'00-00'             1628   	bl	_Init_Ambient_Light_Sensor_8
                                 1629   
                                 1630   ;;			break;
                                 1631   CLINEA 0000H 0001H 02F8H 0004H 0009H
00:0044 ED CE                    1632   	bal	_$L99
                                 1633   
                                 1634   ;;		case 9:
                                 1635   CLINEA 0000H 0001H 02F9H 0003H 0009H
00:0046                          1636   _$S107 :
                                 1637   
                                 1638   ;;			Init_Ambient_Light_Sensor_9(); // Refer to function description for list of sensors 
                                 1639   CLINEA 0000H 0001H 02FAH 0004H 0057H
00:0046 01-F0'00-00'             1640   	bl	_Init_Ambient_Light_Sensor_9
                                 1641   
                                 1642   ;;			break;
                                 1643   CLINEA 0000H 0001H 02FBH 0004H 0009H
00:004A EA CE                    1644   	bal	_$L99
                                 1645   
                                 1646   ;;		case 10:
                                 1647   CLINEA 0000H 0001H 02FCH 0003H 000AH
00:004C                          1648   _$S108 :
                                 1649   
                                 1650   ;;			Init_UV_Sensor_10(); // Refer to function description for list of sensors 
                                 1651   CLINEA 0000H 0001H 02FDH 0004H 004DH
00:004C 01-F0'00-00'             1652   	bl	_Init_UV_Sensor_10
                                 1653   
                                 1654   ;;			break;
                                 1655   CLINEA 0000H 0001H 02FEH 0004H 0009H
00:0050 E7 CE                    1656   	bal	_$L99
                                 1657   
                                 1658   ;;		case 15:
                                 1659   CLINEA 0000H 0001H 02FFH 0003H 000AH
00:0052                          1660   _$S109 :
                                 1661   
                                 1662   ;;			Init_KX022(); // Refer to function description for list of sensors 
                                 1663   CLINEA 0000H 0001H 0300H 0004H 0046H
00:0052 01-F0'00-00'             1664   	bl	_Init_KX022
                                 1665   
                                 1666   ;;			break;
                                 1667   CLINEA 0000H 0001H 0301H 0004H 0009H
00:0056 E4 CE                    1668   	bal	_$L99
                                 1669   
                                 1670   ;;		case 16:
                                 1671   CLINEA 0000H 0001H 0302H 0003H 000AH
00:0058                          1672   _$S110 :
                                 1673   
                                 1674   ;;			Init_KMX61(); // Refer to function description for list of sensors 
                                 1675   CLINEA 0000H 0001H 0303H 0004H 0046H
00:0058 01-F0'00-00'             1676   	bl	_Init_KMX61
                                 1677   
                                 1678   ;;			break;
                                 1679   CLINEA 0000H 0001H 0304H 0004H 0009H
00:005C E1 CE                    1680   	bal	_$L99
                                 1681   
                                 1682   ;;		case 20:
                                 1683   CLINEA 0000H 0001H 0305H 0003H 000AH
00:005E                          1684   _$S111 :
                                 1685   
                                 1686   ;;			Init_Temperature_Sensor_20(); // Refer to function description for list of sensors 
                                 1687   CLINEA 0000H 0001H 0306H 0004H 0056H
00:005E 01-F0'00-00'             1688   	bl	_Init_Temperature_Sensor_20
                                 1689   
                                 1690   ;;			break;
                                 1691   CLINEA 0000H 0001H 0307H 0004H 0009H
00:0062 DE CE                    1692   	bal	_$L99
                                 1693   
                                 1694   ;;		case 21:
                                 1695   CLINEA 0000H 0001H 0308H 0003H 000AH
00:0064                          1696   _$S112 :
                                 1697   
                                 1698   ;;			Init_Temperature_Sensor_21(); // Refer to function description for list of sensors
                                 1699   CLINEA 0000H 0001H 0309H 0004H 0055H
00:0064 01-F0'00-00'             1700   	bl	_Init_Temperature_Sensor_21
                                 1701   
                                 1702   ;;			break;
                                 1703   CLINEA 0000H 0001H 030AH 0004H 0009H
00:0068 DB CE                    1704   	bal	_$L99
                                 1705   
                                 1706   ;;		case 22:
                                 1707   CLINEA 0000H 0001H 030BH 0003H 000AH
00:006A                          1708   _$S113 :
                                 1709   
                                 1710   ;;			Init_Temperature_Sensor_22(); // Refer to function description for list of sensors 
                                 1711   CLINEA 0000H 0001H 030CH 0004H 0056H
00:006A 01-F0'00-00'             1712   	bl	_Init_Temperature_Sensor_22
                                 1713   
                                 1714   ;;			break;
                                 1715   CLINEA 0000H 0001H 030DH 0004H 0009H
00:006E D8 CE                    1716   	bal	_$L99
                                 1717   
                                 1718   ;;		case 23:
                                 1719   CLINEA 0000H 0001H 030EH 0003H 000AH
00:0070                          1720   _$S114 :
                                 1721   
                                 1722   ;;			Init_Temperature_Sensor_23(); // Refer to function description for list of sensors
                                 1723   CLINEA 0000H 0001H 030FH 0004H 0055H
00:0070 01-F0'00-00'             1724   	bl	_Init_Temperature_Sensor_23
                                 1725   
                                 1726   ;;			break; 
                                 1727   CLINEA 0000H 0001H 0310H 0004H 000AH
00:0074 D5 CE                    1728   	bal	_$L99
                                 1729   
                                 1730   ;;		default:
                                 1731   CLINEA 0000H 0001H 0311H 0003H 000AH
00:0076                          1732   _$L100 :
                                 1733   
                                 1734   ;;			break;
                                 1735   CLINEA 0000H 0001H 0312H 0004H 0009H
00:0076 D4 CE                    1736   	bal	_$L99
                                 1737   CBLOCKEND 200 3 787
                                 1738   CBLOCKEND 200 1 788
                                 1739   CFUNCTIONEND 200
                                 1740   
                                 1741   
  --------------------------     1742   	rseg $$MainOp_Hall_Effect_Sensors_1$main
                                 1743   CFUNCTION 202
                                 1744   
00:0000                          1745   _MainOp_Hall_Effect_Sensors_1	:
                                 1746   CBLOCK 202 1 801
                                 1747   
                                 1748   ;;{
                                 1749   CLINEA 0000H 0001H 0321H 0001H 0001H
00:0000 CE-F8                    1750   	push	lr
                                 1751   CBLOCK 202 2 801
                                 1752   CRET 0000H
                                 1753   
                                 1754   ;;	if(SENINTF_HDR1_GPIO0(D)==1 && SENINTF_HDR1_GPIO1(D)==1)
                                 1755   CLINEA 0000H 0001H 0322H 0002H 0039H
00:0002 A1-A0 58-F2              1756   	tb	0f258h.2
00:0006 0E C9                    1757   	beq	_$L116
00:0008 B1-A0 58-F2              1758   	tb	0f258h.3
00:000C 0B C9                    1759   	beq	_$L116
                                 1760   CBLOCK 202 3 803
                                 1761   
                                 1762   ;;		LEDOUT(0x0);	// Turn off all LEDs
                                 1763   CLINEA 0000H 0001H 0324H 0003H 0023H
00:000E 00 00                    1764   	mov	r0,	#00h
00:0010 11-90 60-F2              1765   	st	r0,	0f260h
                                 1766   
                                 1767   ;;		PRINTF(ESC_ERASE2END "BU52004GUL> Hall  No Mag Fields Detected." ESC_SOL);
                                 1768   CLINEA 0000H 0001H 0325H 0003H 004FH
00:0014 31 E0                    1769   	mov	er0,	#49
00:0016 5E-F0                    1770   	push	er0
00:0018 00'02                    1771   	mov	r2,	#BYTE1 OFFSET $$S123
00:001A 00'03                    1772   	mov	r3,	#BYTE2 OFFSET $$S123
00:001C 00 E0                    1773   	mov	er0,	#0 
00:001E 01-F0'00-00'             1774   	bl	_write
                                 1775   
                                 1776   ;;	else if(SENINTF_HDR1_GPIO0(D)==1 && SENINTF_HDR1_GPIO1(D)==0)
                                 1777   CLINEA 0000H 0001H 0327H 0002H 003EH
00:0022 2C CE                    1778   	bal	_$L142
00:0024                          1779   _$L116 :
00:0024 A1-A0 58-F2              1780   	tb	0f258h.2
00:0028 0E C9                    1781   	beq	_$L125
00:002A B1-A0 58-F2              1782   	tb	0f258h.3
00:002E 0B C8                    1783   	bne	_$L125
                                 1784   CBLOCK 202 4 808
                                 1785   
                                 1786   ;;		LEDOUT(0x02);	// Turn on LED1
                                 1787   CLINEA 0000H 0001H 0329H 0003H 001FH
00:0030 02 00                    1788   	mov	r0,	#02h
00:0032 11-90 60-F2              1789   	st	r0,	0f260h
                                 1790   
                                 1791   ;;		PRINTF(ESC_ERASE2END "BU52004GUL> Hall  North Mag Field Detected." ESC_SOL);
                                 1792   CLINEA 0000H 0001H 032AH 0003H 0051H
00:0036 33 E0                    1793   	mov	er0,	#51
00:0038 5E-F0                    1794   	push	er0
00:003A 00'02                    1795   	mov	r2,	#BYTE1 OFFSET $$S132
00:003C 00'03                    1796   	mov	r3,	#BYTE2 OFFSET $$S132
00:003E 00 E0                    1797   	mov	er0,	#0 
00:0040 01-F0'00-00'             1798   	bl	_write
                                 1799   
                                 1800   ;;	else if(SENINTF_HDR1_GPIO0(D)==0 && SENINTF_HDR1_GPIO1(D)==1)
                                 1801   CLINEA 0000H 0001H 032CH 0002H 003EH
00:0044 1B CE                    1802   	bal	_$L142
00:0046                          1803   _$L125 :
00:0046 A1-A0 58-F2              1804   	tb	0f258h.2
00:004A 0E C8                    1805   	bne	_$L134
00:004C B1-A0 58-F2              1806   	tb	0f258h.3
00:0050 0B C9                    1807   	beq	_$L134
                                 1808   CBLOCK 202 5 813
                                 1809   
                                 1810   ;;		LEDOUT(0x80);	// Turn on LED7
                                 1811   CLINEA 0000H 0001H 032EH 0003H 001FH
00:0052 80 00                    1812   	mov	r0,	#080h
00:0054 11-90 60-F2              1813   	st	r0,	0f260h
                                 1814   
                                 1815   ;;		PRINTF(ESC_ERASE2END "BU52004GUL> Hall  South Mag Field Detected." ESC_SOL);
                                 1816   CLINEA 0000H 0001H 032FH 0003H 0051H
00:0058 33 E0                    1817   	mov	er0,	#51
00:005A 5E-F0                    1818   	push	er0
00:005C 00'02                    1819   	mov	r2,	#BYTE1 OFFSET $$S141
00:005E 00'03                    1820   	mov	r3,	#BYTE2 OFFSET $$S141
00:0060 00 E0                    1821   	mov	er0,	#0 
00:0062 01-F0'00-00'             1822   	bl	_write
                                 1823   CBLOCKEND 202 5 816
                                 1824   
                                 1825   ;;	else
                                 1826   CLINEA 0000H 0001H 0331H 0002H 0005H
00:0066 0A CE                    1827   	bal	_$L142
00:0068                          1828   _$L134 :
                                 1829   CBLOCK 202 6 818
                                 1830   
                                 1831   ;;		LEDOUT(0x82);	// Turn on LED7 and LED1
                                 1832   CLINEA 0000H 0001H 0333H 0003H 0028H
00:0068 82 00                    1833   	mov	r0,	#082h
00:006A 11-90 60-F2              1834   	st	r0,	0f260h
                                 1835   
                                 1836   ;;		PRINTF(ESC_ERASE2END "BU52004GUL> Hall  Both Mag Fields Detected." ESC_SOL);
                                 1837   CLINEA 0000H 0001H 0334H 0003H 0051H
00:006E 33 E0                    1838   	mov	er0,	#51
00:0070 5E-F0                    1839   	push	er0
00:0072 00'02                    1840   	mov	r2,	#BYTE1 OFFSET $$S143
00:0074 00'03                    1841   	mov	r3,	#BYTE2 OFFSET $$S143
00:0076 00 E0                    1842   	mov	er0,	#0 
00:0078 01-F0'00-00'             1843   	bl	_write
                                 1844   CBLOCKEND 202 6 821
                                 1845   
                                 1846   ;;	}
                                 1847   CLINEA 0000H 0000H 0335H 0002H 0002H
00:007C                          1848   _$L142 :
00:007C 02 E1                    1849   	add	sp,	#2 
                                 1850   CBLOCKEND 202 4 822
                                 1851   CBLOCKEND 202 3 822
                                 1852   CBLOCKEND 202 2 822
                                 1853   
                                 1854   ;;}
                                 1855   CLINEA 0000H 0001H 0336H 0001H 0001H
00:007E 8E-F2                    1856   	pop	pc
                                 1857   CBLOCKEND 202 1 822
                                 1858   CFUNCTIONEND 202
                                 1859   
                                 1860   
  --------------------------     1861   	rseg $$MainOp_Hall_Effect_Sensors_2$main
                                 1862   CFUNCTION 201
                                 1863   
00:0000                          1864   _MainOp_Hall_Effect_Sensors_2	:
                                 1865   CBLOCK 201 1 835
                                 1866   
                                 1867   ;;{
                                 1868   CLINEA 0000H 0001H 0343H 0001H 0001H
00:0000 CE-F8                    1869   	push	lr
                                 1870   CBLOCK 201 2 835
                                 1871   CRET 0000H
                                 1872   
                                 1873   ;;	if(SENINTF_HDR1_GPIO0(D)==0)
                                 1874   CLINEA 0000H 0001H 0344H 0002H 001DH
00:0002 A1-A0 58-F2              1875   	tb	0f258h.2
00:0006 0B C8                    1876   	bne	_$L145
                                 1877   CBLOCK 201 3 837
                                 1878   
                                 1879   ;;		LEDOUT(0x80);	// Turn on LED7
                                 1880   CLINEA 0000H 0001H 0346H 0003H 001FH
00:0008 80 00                    1881   	mov	r0,	#080h
00:000A 11-90 60-F2              1882   	st	r0,	0f260h
                                 1883   
                                 1884   ;;		PRINTF(ESC_ERASE2END "BU52011HFV> Hall  Mag Field Detected." ESC_SOL);
                                 1885   CLINEA 0000H 0001H 0347H 0003H 004BH
00:000E 2D E0                    1886   	mov	er0,	#45
00:0010 5E-F0                    1887   	push	er0
00:0012 00'02                    1888   	mov	r2,	#BYTE1 OFFSET $$S147
00:0014 00'03                    1889   	mov	r3,	#BYTE2 OFFSET $$S147
00:0016 00 E0                    1890   	mov	er0,	#0 
00:0018 01-F0'00-00'             1891   	bl	_write
                                 1892   CBLOCKEND 201 3 840
                                 1893   
                                 1894   ;;	else
                                 1895   CLINEA 0000H 0001H 0349H 0002H 0005H
00:001C 0A CE                    1896   	bal	_$L148
00:001E                          1897   _$L145 :
                                 1898   CBLOCK 201 4 842
                                 1899   
                                 1900   ;;		LEDOUT(0x0);	// Turn off all LEDs
                                 1901   CLINEA 0000H 0001H 034BH 0003H 0023H
00:001E 00 00                    1902   	mov	r0,	#00h
00:0020 11-90 60-F2              1903   	st	r0,	0f260h
                                 1904   
                                 1905   ;;		PRINTF(ESC_ERASE2END "BU52011HFV> Hall  No Mag Fields Detected." ESC_SOL);
                                 1906   CLINEA 0000H 0001H 034CH 0003H 004FH
00:0024 31 E0                    1907   	mov	er0,	#49
00:0026 5E-F0                    1908   	push	er0
00:0028 00'02                    1909   	mov	r2,	#BYTE1 OFFSET $$S149
00:002A 00'03                    1910   	mov	r3,	#BYTE2 OFFSET $$S149
00:002C 00 E0                    1911   	mov	er0,	#0 
00:002E 01-F0'00-00'             1912   	bl	_write
                                 1913   CBLOCKEND 201 4 845
                                 1914   
                                 1915   ;;	}
                                 1916   CLINEA 0000H 0000H 034DH 0002H 0002H
00:0032                          1917   _$L148 :
00:0032 02 E1                    1918   	add	sp,	#2 
                                 1919   CBLOCKEND 201 2 846
                                 1920   
                                 1921   ;;}
                                 1922   CLINEA 0000H 0001H 034EH 0001H 0001H
00:0034 8E-F2                    1923   	pop	pc
                                 1924   CBLOCKEND 201 1 846
                                 1925   CFUNCTIONEND 201
                                 1926   
                                 1927   
  --------------------------     1928   	rseg $$MainOp_Ambient_Light_Sensor_5$main
                                 1929   CFUNCTION 203
                                 1930   
00:0000                          1931   _MainOp_Ambient_Light_Sensor_5	:
                                 1932   CBLOCK 203 1 859
                                 1933   
                                 1934   ;;{	
                                 1935   CLINEA 0000H 0001H 035BH 0001H 0002H
00:0000 CE-F8                    1936   	push	lr
                                 1937   CBLOCK 203 2 859
                                 1938   CRET 0000H
                                 1939   
                                 1940   ;;	uniRawSensorOut._uint = ADC_Read(0);
                                 1941   CLINEA 0000H 0000H 035CH 0002H 0025H
00:0002 00 00                    1942   	mov	r0,	#00h
00:0004 01-F0'00-00'             1943   	bl	_ADC_Read
00:0008 13-90 00-00'             1944   	st	er0,	NEAR _uniRawSensorOut
                                 1945   
                                 1946   ;;	flSensorOut[0] = uniRawSensorOut._uint*3.3f/1023;
                                 1947   CLINEA 0000H 0001H 035EH 0002H 0032H
00:000C 00 E2                    1948   	mov	er2,	#0 
00:000E 6E-F0                    1949   	push	xr0
00:0010 01-F0'00-00'             1950   	bl	__fuldu8sw
00:0014 33 00                    1951   	mov	r0,	#033h
00:0016 33 01                    1952   	mov	r1,	#033h
00:0018 53 02                    1953   	mov	r2,	#053h
00:001A 40 03                    1954   	mov	r3,	#040h
00:001C 6E-F0                    1955   	push	xr0
00:001E 01-F0'00-00'             1956   	bl	__fmulu8sw
00:0022 04 E1                    1957   	add	sp,	#4 
00:0024 00 00                    1958   	mov	r0,	#00h
00:0026 C0 01                    1959   	mov	r1,	#0c0h
00:0028 7F 02                    1960   	mov	r2,	#07fh
00:002A 44 03                    1961   	mov	r3,	#044h
00:002C 6E-F0                    1962   	push	xr0
00:002E 01-F0'00-00'             1963   	bl	__fdivu8sw
00:0032 04 E1                    1964   	add	sp,	#4 
00:0034 2E-F0                    1965   	pop	xr0
00:0036 13-90 00-00'             1966   	st	er0,	NEAR _flSensorOut
00:003A 13-92 00-00'             1967   	st	er2,	NEAR _flSensorOut+02h
                                 1968   
                                 1969   ;;	switch(SENINTF_HDR1_GPIO1(D)<<1|SENINTF_HDR1_GPIO0(D))
                                 1970   CLINEA 0000H 0001H 0363H 0002H 0037H
00:003E 10-90 58-F2              1971   	l	r0,	0f258h
00:0042 3C-90                    1972   	srl	r0,	#03h
00:0044 01 20                    1973   	and	r0,	#01h
00:0046 00 01                    1974   	mov	r1,	#00h
00:0048 05-F2                    1975   	mov	er2,	er0
00:004A 1B-93                    1976   	sllc	r3,	#01h
00:004C 1A-92                    1977   	sll	r2,	#01h
00:004E 10-90 58-F2              1978   	l	r0,	0f258h
00:0052 2C-90                    1979   	srl	r0,	#02h
00:0054 01 20                    1980   	and	r0,	#01h
00:0056 23-80                    1981   	or	r0,	r2
00:0058 33-81                    1982   	or	r1,	r3
00:005A 05-F2                    1983   	mov	er2,	er0
                                 1984   CBLOCK 203 3 868
00:005C 00 71                    1985   	cmp	r1,	#00h
00:005E 0A C8                    1986   	bne	_$L159
00:0060 20-80                    1987   	mov	r0,	r2
00:0062 08 C9                    1988   	beq	_$L159
                                 1989   
                                 1990   ;;	switch(SENINTF_HDR1_GPIO1(D)<<1|SENINTF_HDR1_GPIO0(D))
                                 1991   CLINEA 0000H 0000H 0363H 0002H 0037H
00:0064 01 72                    1992   	cmp	r2,	#01h
00:0066 22 C9                    1993   	beq	_$L156
                                 1994   
                                 1995   ;;	switch(SENINTF_HDR1_GPIO1(D)<<1|SENINTF_HDR1_GPIO0(D))
                                 1996   CLINEA 0000H 0000H 0363H 0002H 0037H
00:0068 02 72                    1997   	cmp	r2,	#02h
00:006A 33 C9                    1998   	beq	_$L157
                                 1999   
                                 2000   ;;	switch(SENINTF_HDR1_GPIO1(D)<<1|SENINTF_HDR1_GPIO0(D))
                                 2001   CLINEA 0000H 0000H 0363H 0002H 0037H
00:006C 03 72                    2002   	cmp	r2,	#03h
00:006E 02 C8                    2003   	bne	_$M17
00:0070 00-F0'00-00'             2004   	b	_$L158
00:0074                          2005   _$M17 :
                                 2006   
                                 2007   ;;		case 0:	// Shutdown
                                 2008   CLINEA 0000H 0001H 036EH 0003H 0015H
00:0074                          2009   _$L159 :
                                 2010   
                                 2011   ;;			flSensorOut[0] = 0;
                                 2012   CLINEA 0000H 0001H 0370H 0004H 0016H
00:0074 00 E0                    2013   	mov	er0,	#0 
00:0076 13-90 00-00'             2014   	st	er0,	NEAR _flSensorOut
00:007A 13-90 00-00'             2015   	st	er0,	NEAR _flSensorOut+02h
                                 2016   CBLOCKEND 203 3 882
                                 2017   
                                 2018   ;;	}
                                 2019   CLINEA 0000H 0000H 0372H 0002H 0002H
00:007E                          2020   _$L154 :
                                 2021   
                                 2022   ;;	LEDOUT(ReverseBits((unsigned char)(uniRawSensorOut._uint>>2)));
                                 2023   CLINEA 0000H 0000H 0374H 0002H 0040H
00:007E 12-90 00-00'             2024   	l	er0,	NEAR _uniRawSensorOut
00:0082 2D-90                    2025   	srlc	r0,	#02h
00:0084 01-F0'00-00'             2026   	bl	_ReverseBits
00:0088 11-90 60-F2              2027   	st	r0,	0f260h
                                 2028   
                                 2029   ;;	printf(ESC_ERASE2END "BH1620FVC> Ambient Light = %lu[lx]" ESC_SOL, (unsigned long)flSensorOut[0]);
                                 2030   CLINEA 0000H 0001H 0375H 0002H 0063H
00:008C 12-90 00-00'             2031   	l	er0,	NEAR _flSensorOut
00:0090 12-92 00-00'             2032   	l	er2,	NEAR _flSensorOut+02h
00:0094 6E-F0                    2033   	push	xr0
00:0096 01-F0'00-00'             2034   	bl	__ftolu8sw
00:009A 2E-F0                    2035   	pop	xr0
00:009C 6E-F0                    2036   	push	xr0
00:009E 00'00                    2037   	mov	r0,	#BYTE1 OFFSET $$S160
00:00A0 00'01                    2038   	mov	r1,	#BYTE2 OFFSET $$S160
00:00A2 5E-F0                    2039   	push	er0
00:00A4 01-F0'00-00'             2040   	bl	_printf_n
00:00A8 06 E1                    2041   	add	sp,	#6 
                                 2042   CBLOCKEND 203 2 886
                                 2043   
                                 2044   ;;}
                                 2045   CLINEA 0000H 0001H 0376H 0001H 0001H
00:00AA 8E-F2                    2046   	pop	pc
                                 2047   
                                 2048   ;;		case 1: // H-Gain mode
                                 2049   CLINEA 0000H 0001H 0365H 0003H 0018H
00:00AC                          2050   _$L156 :
                                 2051   
                                 2052   ;;			flSensorOut[0] = flSensorOut[0]/(0.57e-6f*5.6e3f);
                                 2053   CLINEA 0000H 0001H 0366H 0004H 0035H
00:00AC 12-90 00-00'             2054   	l	er0,	NEAR _flSensorOut
00:00B0 12-92 00-00'             2055   	l	er2,	NEAR _flSensorOut+02h
00:00B4 6E-F0                    2056   	push	xr0
00:00B6 E0 00                    2057   	mov	r0,	#0e0h
00:00B8 30 01                    2058   	mov	r1,	#030h
00:00BA 51 02                    2059   	mov	r2,	#051h
00:00BC 3B 03                    2060   	mov	r3,	#03bh
00:00BE 6E-F0                    2061   	push	xr0
00:00C0 01-F0'00-00'             2062   	bl	__fdivu8sw
00:00C4 04 E1                    2063   	add	sp,	#4 
00:00C6 2E-F0                    2064   	pop	xr0
00:00C8 13-90 00-00'             2065   	st	er0,	NEAR _flSensorOut
00:00CC 13-92 00-00'             2066   	st	er2,	NEAR _flSensorOut+02h
                                 2067   
                                 2068   ;;			break;
                                 2069   CLINEA 0000H 0001H 0367H 0004H 0009H
00:00D0 D6 CE                    2070   	bal	_$L154
                                 2071   
                                 2072   ;;		case 2: // M-Gain mode
                                 2073   CLINEA 0000H 0001H 0368H 0003H 0018H
00:00D2                          2074   _$L157 :
                                 2075   
                                 2076   ;;			flSensorOut[0] = flSensorOut[0]/(0.057e-6f*5.6e3f);
                                 2077   CLINEA 0000H 0001H 0369H 0004H 0036H
00:00D2 12-90 00-00'             2078   	l	er0,	NEAR _flSensorOut
00:00D6 12-92 00-00'             2079   	l	er2,	NEAR _flSensorOut+02h
00:00DA 6E-F0                    2080   	push	xr0
00:00DC 4D 00                    2081   	mov	r0,	#04dh
00:00DE 5A 01                    2082   	mov	r1,	#05ah
00:00E0 A7 02                    2083   	mov	r2,	#0a7h
00:00E2 39 03                    2084   	mov	r3,	#039h
00:00E4 6E-F0                    2085   	push	xr0
00:00E6 01-F0'00-00'             2086   	bl	__fdivu8sw
00:00EA 04 E1                    2087   	add	sp,	#4 
00:00EC 2E-F0                    2088   	pop	xr0
00:00EE 13-90 00-00'             2089   	st	er0,	NEAR _flSensorOut
00:00F2 13-92 00-00'             2090   	st	er2,	NEAR _flSensorOut+02h
                                 2091   
                                 2092   ;;			break;
                                 2093   CLINEA 0000H 0001H 036AH 0004H 0009H
00:00F6 C3 CE                    2094   	bal	_$L154
                                 2095   
                                 2096   ;;		case 3: // L-Gain mode
                                 2097   CLINEA 0000H 0001H 036BH 0003H 0018H
00:00F8                          2098   _$L158 :
                                 2099   
                                 2100   ;;			flSensorOut[0] = flSensorOut[0]/(0.0057e-6f*5.6e3f);
                                 2101   CLINEA 0000H 0001H 036CH 0004H 0037H
00:00F8 12-90 00-00'             2102   	l	er0,	NEAR _flSensorOut
00:00FC 12-92 00-00'             2103   	l	er2,	NEAR _flSensorOut+02h
00:0100 6E-F0                    2104   	push	xr0
00:0102 D7 00                    2105   	mov	r0,	#0d7h
00:0104 E1 01                    2106   	mov	r1,	#0e1h
00:0106 05 02                    2107   	mov	r2,	#05h
00:0108 38 03                    2108   	mov	r3,	#038h
00:010A 6E-F0                    2109   	push	xr0
00:010C 01-F0'00-00'             2110   	bl	__fdivu8sw
00:0110 04 E1                    2111   	add	sp,	#4 
00:0112 2E-F0                    2112   	pop	xr0
00:0114 13-90 00-00'             2113   	st	er0,	NEAR _flSensorOut
00:0118 13-92 00-00'             2114   	st	er2,	NEAR _flSensorOut+02h
                                 2115   
                                 2116   ;;			break;
                                 2117   CLINEA 0000H 0001H 036DH 0004H 0009H
00:011C 00-F0'00-00'             2118   	b	_$L154
                                 2119   CBLOCKEND 203 1 886
                                 2120   CFUNCTIONEND 203
                                 2121   
                                 2122   
  --------------------------     2123   	rseg $$MainOp_Ambient_Light_Sensor_6$main
                                 2124   CFUNCTION 204
                                 2125   
00:0000                          2126   _MainOp_Ambient_Light_Sensor_6	:
                                 2127   CBLOCK 204 1 899
                                 2128   
                                 2129   ;;{
                                 2130   CLINEA 0000H 0001H 0383H 0001H 0001H
00:0000 CE-F8                    2131   	push	lr
                                 2132   CBLOCK 204 2 899
                                 2133   CRET 0000H
                                 2134   
                                 2135   ;;	I2C_Read(BH17xxFVC_ADDR_1, NULL, 0, uniRawSensorOut._ucharArr, 2);
                                 2136   CLINEA 0000H 0001H 0389H 0002H 0043H
00:0002 02 00                    2137   	mov	r0,	#02h
00:0004 4E-F0                    2138   	push	r0
00:0006 00'00                    2139   	mov	r0,	#BYTE1 OFFSET _uniRawSensorOut
00:0008 00'01                    2140   	mov	r1,	#BYTE2 OFFSET _uniRawSensorOut
00:000A 5E-F0                    2141   	push	er0
00:000C 00 00                    2142   	mov	r0,	#00h
00:000E 4E-F0                    2143   	push	r0
00:0010 00 E2                    2144   	mov	er2,	#0 
00:0012 23 00                    2145   	mov	r0,	#023h
00:0014 01-F0'00-00'             2146   	bl	_I2C_Read
00:0018 06 E1                    2147   	add	sp,	#6 
                                 2148   
                                 2149   ;;	flSensorOut[0] = (uniRawSensorOut._ucharArr[0]<<8|uniRawSensorOut._ucharArr[1])/1.2f;
                                 2150   CLINEA 0000H 0001H 038DH 0002H 0056H
00:001A 10-90 00-00'             2151   	l	r0,	NEAR _uniRawSensorOut
00:001E 00 01                    2152   	mov	r1,	#00h
00:0020 00-83                    2153   	mov	r3,	r0
00:0022 10-90 00-00'             2154   	l	r0,	NEAR _uniRawSensorOut+01h
00:0026 33-81                    2155   	or	r1,	r3
00:0028 10-82                    2156   	mov	r2,	r1
00:002A 2F-83                    2157   	extbw	er2
00:002C 30-82                    2158   	mov	r2,	r3
00:002E 6E-F0                    2159   	push	xr0
00:0030 01-F0'00-00'             2160   	bl	__fildu8sw
00:0034 9A 00                    2161   	mov	r0,	#09ah
00:0036 99 01                    2162   	mov	r1,	#099h
00:0038 99 02                    2163   	mov	r2,	#099h
00:003A 3F 03                    2164   	mov	r3,	#03fh
00:003C 6E-F0                    2165   	push	xr0
00:003E 01-F0'00-00'             2166   	bl	__fdivu8sw
00:0042 04 E1                    2167   	add	sp,	#4 
00:0044 2E-F0                    2168   	pop	xr0
00:0046 13-90 00-00'             2169   	st	er0,	NEAR _flSensorOut
00:004A 13-92 00-00'             2170   	st	er2,	NEAR _flSensorOut+02h
                                 2171   
                                 2172   ;;	LEDOUT(ReverseBits(uniRawSensorOut._ucharArr[0]));
                                 2173   CLINEA 0000H 0000H 038FH 0002H 0033H
00:004E 10-90 00-00'             2174   	l	r0,	NEAR _uniRawSensorOut
00:0052 01-F0'00-00'             2175   	bl	_ReverseBits
00:0056 11-90 60-F2              2176   	st	r0,	0f260h
                                 2177   
                                 2178   ;;	printf(ESC_ERASE2END "BH1710FVC> Ambient Light = %lu[lx]" ESC_SOL, (unsigned long)flSensorOut[0]);
                                 2179   CLINEA 0000H 0001H 0390H 0002H 0063H
00:005A 12-90 00-00'             2180   	l	er0,	NEAR _flSensorOut
00:005E 12-92 00-00'             2181   	l	er2,	NEAR _flSensorOut+02h
00:0062 6E-F0                    2182   	push	xr0
00:0064 01-F0'00-00'             2183   	bl	__ftolu8sw
00:0068 2E-F0                    2184   	pop	xr0
00:006A 6E-F0                    2185   	push	xr0
00:006C 00'00                    2186   	mov	r0,	#BYTE1 OFFSET $$S162
00:006E 00'01                    2187   	mov	r1,	#BYTE2 OFFSET $$S162
00:0070 5E-F0                    2188   	push	er0
00:0072 01-F0'00-00'             2189   	bl	_printf_n
00:0076 06 E1                    2190   	add	sp,	#6 
                                 2191   CBLOCKEND 204 2 913
                                 2192   
                                 2193   ;;}
                                 2194   CLINEA 0000H 0001H 0391H 0001H 0001H
00:0078 8E-F2                    2195   	pop	pc
                                 2196   CBLOCKEND 204 1 913
                                 2197   CFUNCTIONEND 204
                                 2198   
                                 2199   
  --------------------------     2200   	rseg $$MainOp_Ambient_Light_Sensor_7$main
                                 2201   CFUNCTION 205
                                 2202   
00:0000                          2203   _MainOp_Ambient_Light_Sensor_7	:
                                 2204   CBLOCK 205 1 926
                                 2205   
                                 2206   ;;{
                                 2207   CLINEA 0000H 0001H 039EH 0001H 0001H
00:0000 CE-F8                    2208   	push	lr
00:0002 6E-F4                    2209   	push	xr4
                                 2210   CBLOCK 205 2 926
                                 2211   CRET 0004H
                                 2212   
                                 2213   ;;	I2C_Read(BH17xxFVC_ADDR_2, NULL, 0, uniRawSensorOut._ucharArr, 4);
                                 2214   CLINEA 0000H 0001H 03A4H 0002H 0043H
00:0004 04 00                    2215   	mov	r0,	#04h
00:0006 4E-F0                    2216   	push	r0
00:0008 00'00                    2217   	mov	r0,	#BYTE1 OFFSET _uniRawSensorOut
00:000A 00'01                    2218   	mov	r1,	#BYTE2 OFFSET _uniRawSensorOut
00:000C 5E-F0                    2219   	push	er0
00:000E 00 00                    2220   	mov	r0,	#00h
00:0010 4E-F0                    2221   	push	r0
00:0012 00 E2                    2222   	mov	er2,	#0 
00:0014 29 00                    2223   	mov	r0,	#029h
00:0016 01-F0'00-00'             2224   	bl	_I2C_Read
00:001A 06 E1                    2225   	add	sp,	#6 
                                 2226   
                                 2227   ;;	flSensorOut[0] = (float)uniRawSensorOut._uintArr[1]/uniRawSensorOut._uintArr[0];
                                 2228   CLINEA 0000H 0001H 03ABH 0002H 0051H
00:001C 12-90 00-00'             2229   	l	er0,	NEAR _uniRawSensorOut+02h
00:0020 00 E2                    2230   	mov	er2,	#0 
00:0022 6E-F0                    2231   	push	xr0
00:0024 01-F0'00-00'             2232   	bl	__fuldu8sw
00:0028 2E-F0                    2233   	pop	xr0
00:002A 12-94 00-00'             2234   	l	er4,	NEAR _uniRawSensorOut
00:002E 00 E6                    2235   	mov	er6,	#0 
00:0030 6E-F4                    2236   	push	xr4
00:0032 01-F0'00-00'             2237   	bl	__fuldu8sw
00:0036 2E-F4                    2238   	pop	xr4
00:0038 6E-F0                    2239   	push	xr0
00:003A 6E-F4                    2240   	push	xr4
00:003C 01-F0'00-00'             2241   	bl	__fdivu8sw
00:0040 04 E1                    2242   	add	sp,	#4 
00:0042 2E-F0                    2243   	pop	xr0
00:0044 13-90 00-00'             2244   	st	er0,	NEAR _flSensorOut
00:0048 13-92 00-00'             2245   	st	er2,	NEAR _flSensorOut+02h
                                 2246   
                                 2247   ;;	if(flSensorOut[0]<0.26f)
                                 2248   CLINEA 0000H 0001H 03ACH 0002H 0019H
00:004C 6E-F0                    2249   	push	xr0
00:004E B8 00                    2250   	mov	r0,	#0b8h
00:0050 1E 01                    2251   	mov	r1,	#01eh
00:0052 85 02                    2252   	mov	r2,	#085h
00:0054 3E 03                    2253   	mov	r3,	#03eh
00:0056 6E-F0                    2254   	push	xr0
00:0058 01-F0'00-00'             2255   	bl	__fcmpu8sw
00:005C 08 E1                    2256   	add	sp,	#8 
00:005E 0B-A0                    2257   	mov	psw,	r0
00:0060 36 C0                    2258   	bge	_$L164
                                 2259   
                                 2260   ;;		flSensorOut[0] = (1.290f*uniRawSensorOut._uintArr[0]-2.733f*uniRawSensorOut._uintArr[1])/1*100/218;
                                 2261   CLINEA 0000H 0001H 03ADH 0003H 0065H
00:0062 12-90 00-00'             2262   	l	er0,	NEAR _uniRawSensorOut
00:0066 00 E2                    2263   	mov	er2,	#0 
00:0068 6E-F0                    2264   	push	xr0
00:006A 01-F0'00-00'             2265   	bl	__fuldu8sw
00:006E B8 00                    2266   	mov	r0,	#0b8h
00:0070 1E 01                    2267   	mov	r1,	#01eh
00:0072 A5 02                    2268   	mov	r2,	#0a5h
00:0074 3F 03                    2269   	mov	r3,	#03fh
00:0076 6E-F0                    2270   	push	xr0
00:0078 01-F0'00-00'             2271   	bl	__fmulu8sw
00:007C 04 E1                    2272   	add	sp,	#4 
00:007E 2E-F4                    2273   	pop	xr4
00:0080 12-90 00-00'             2274   	l	er0,	NEAR _uniRawSensorOut+02h
00:0084 00 E2                    2275   	mov	er2,	#0 
00:0086 6E-F0                    2276   	push	xr0
00:0088 01-F0'00-00'             2277   	bl	__fuldu8sw
00:008C 79 00                    2278   	mov	r0,	#079h
00:008E E9 01                    2279   	mov	r1,	#0e9h
00:0090 2E 02                    2280   	mov	r2,	#02eh
00:0092 40 03                    2281   	mov	r3,	#040h
00:0094 6E-F0                    2282   	push	xr0
00:0096 01-F0'00-00'             2283   	bl	__fmulu8sw
00:009A 04 E1                    2284   	add	sp,	#4 
00:009C 2E-F0                    2285   	pop	xr0
00:009E 7E-F0                    2286   	push	qr0
00:00A0 01-F0'00-00'             2287   	bl	__fsubu8sw
00:00A4 04 E1                    2288   	add	sp,	#4 
00:00A6 00 E0                    2289   	mov	er0,	#0 
00:00A8 C8 02                    2290   	mov	r2,	#0c8h
00:00AA 42 03                    2291   	mov	r3,	#042h
00:00AC 6E-F0                    2292   	push	xr0
00:00AE 01-F0'00-00'             2293   	bl	__fmulu8sw
00:00B2 04 E1                    2294   	add	sp,	#4 
00:00B4 5A 02                    2295   	mov	r2,	#05ah
00:00B6 43 03                    2296   	mov	r3,	#043h
00:00B8 6E-F0                    2297   	push	xr0
00:00BA 01-F0'00-00'             2298   	bl	__fdivu8sw
00:00BE 04 E1                    2299   	add	sp,	#4 
00:00C0 2E-F0                    2300   	pop	xr0
00:00C2 13-90 00-00'             2301   	st	er0,	NEAR _flSensorOut
00:00C6 13-92 00-00'             2302   	st	er2,	NEAR _flSensorOut+02h
                                 2303   
                                 2304   ;;	else if(flSensorOut[0]<0.55f)
                                 2305   CLINEA 0000H 0001H 03AEH 0002H 001EH
00:00CA 00-F0'00-00'             2306   	b	_$L175
00:00CE                          2307   _$L164 :
00:00CE 12-90 00-00'             2308   	l	er0,	NEAR _flSensorOut
00:00D2 12-92 00-00'             2309   	l	er2,	NEAR _flSensorOut+02h
00:00D6 6E-F0                    2310   	push	xr0
00:00D8 CD 00                    2311   	mov	r0,	#0cdh
00:00DA CC 01                    2312   	mov	r1,	#0cch
00:00DC 0C 02                    2313   	mov	r2,	#0ch
00:00DE 3F 03                    2314   	mov	r3,	#03fh
00:00E0 6E-F0                    2315   	push	xr0
00:00E2 01-F0'00-00'             2316   	bl	__fcmpu8sw
00:00E6 08 E1                    2317   	add	sp,	#8 
00:00E8 0B-A0                    2318   	mov	psw,	r0
00:00EA 36 C0                    2319   	bge	_$L167
                                 2320   
                                 2321   ;;		flSensorOut[0] = (0.795f*uniRawSensorOut._uintArr[0]-0.859f*uniRawSensorOut._uintArr[1])/1*100/218;
                                 2322   CLINEA 0000H 0001H 03AFH 0003H 0065H
00:00EC 12-90 00-00'             2323   	l	er0,	NEAR _uniRawSensorOut
00:00F0 00 E2                    2324   	mov	er2,	#0 
00:00F2 6E-F0                    2325   	push	xr0
00:00F4 01-F0'00-00'             2326   	bl	__fuldu8sw
00:00F8 1F 00                    2327   	mov	r0,	#01fh
00:00FA 85 01                    2328   	mov	r1,	#085h
00:00FC 4B 02                    2329   	mov	r2,	#04bh
00:00FE 3F 03                    2330   	mov	r3,	#03fh
00:0100 6E-F0                    2331   	push	xr0
00:0102 01-F0'00-00'             2332   	bl	__fmulu8sw
00:0106 04 E1                    2333   	add	sp,	#4 
00:0108 2E-F4                    2334   	pop	xr4
00:010A 12-90 00-00'             2335   	l	er0,	NEAR _uniRawSensorOut+02h
00:010E 00 E2                    2336   	mov	er2,	#0 
00:0110 6E-F0                    2337   	push	xr0
00:0112 01-F0'00-00'             2338   	bl	__fuldu8sw
00:0116 6D 00                    2339   	mov	r0,	#06dh
00:0118 E7 01                    2340   	mov	r1,	#0e7h
00:011A 5B 02                    2341   	mov	r2,	#05bh
00:011C 3F 03                    2342   	mov	r3,	#03fh
00:011E 6E-F0                    2343   	push	xr0
00:0120 01-F0'00-00'             2344   	bl	__fmulu8sw
00:0124 04 E1                    2345   	add	sp,	#4 
00:0126 2E-F0                    2346   	pop	xr0
00:0128 7E-F0                    2347   	push	qr0
00:012A 01-F0'00-00'             2348   	bl	__fsubu8sw
00:012E 04 E1                    2349   	add	sp,	#4 
00:0130 00 E0                    2350   	mov	er0,	#0 
00:0132 C8 02                    2351   	mov	r2,	#0c8h
00:0134 42 03                    2352   	mov	r3,	#042h
00:0136 6E-F0                    2353   	push	xr0
00:0138 01-F0'00-00'             2354   	bl	__fmulu8sw
00:013C 04 E1                    2355   	add	sp,	#4 
00:013E 5A 02                    2356   	mov	r2,	#05ah
00:0140 43 03                    2357   	mov	r3,	#043h
00:0142 6E-F0                    2358   	push	xr0
00:0144 01-F0'00-00'             2359   	bl	__fdivu8sw
00:0148 04 E1                    2360   	add	sp,	#4 
00:014A 2E-F0                    2361   	pop	xr0
00:014C 13-90 00-00'             2362   	st	er0,	NEAR _flSensorOut
00:0150 13-92 00-00'             2363   	st	er2,	NEAR _flSensorOut+02h
                                 2364   
                                 2365   ;;	else if(flSensorOut[0]<1.09f)
                                 2366   CLINEA 0000H 0001H 03B0H 0002H 001EH
00:0154 00-F0'00-00'             2367   	b	_$L175
00:0158                          2368   _$L167 :
00:0158 12-90 00-00'             2369   	l	er0,	NEAR _flSensorOut
00:015C 12-92 00-00'             2370   	l	er2,	NEAR _flSensorOut+02h
00:0160 6E-F0                    2371   	push	xr0
00:0162 1F 00                    2372   	mov	r0,	#01fh
00:0164 85 01                    2373   	mov	r1,	#085h
00:0166 8B 02                    2374   	mov	r2,	#08bh
00:0168 3F 03                    2375   	mov	r3,	#03fh
00:016A 6E-F0                    2376   	push	xr0
00:016C 01-F0'00-00'             2377   	bl	__fcmpu8sw
00:0170 08 E1                    2378   	add	sp,	#8 
00:0172 0B-A0                    2379   	mov	psw,	r0
00:0174 36 C0                    2380   	bge	_$L170
                                 2381   
                                 2382   ;;		flSensorOut[0] = (0.510f*uniRawSensorOut._uintArr[0]-0.345f*uniRawSensorOut._uintArr[1])/1*100/218;
                                 2383   CLINEA 0000H 0001H 03B1H 0003H 0065H
00:0176 12-90 00-00'             2384   	l	er0,	NEAR _uniRawSensorOut
00:017A 00 E2                    2385   	mov	er2,	#0 
00:017C 6E-F0                    2386   	push	xr0
00:017E 01-F0'00-00'             2387   	bl	__fuldu8sw
00:0182 5C 00                    2388   	mov	r0,	#05ch
00:0184 8F 01                    2389   	mov	r1,	#08fh
00:0186 02 02                    2390   	mov	r2,	#02h
00:0188 3F 03                    2391   	mov	r3,	#03fh
00:018A 6E-F0                    2392   	push	xr0
00:018C 01-F0'00-00'             2393   	bl	__fmulu8sw
00:0190 04 E1                    2394   	add	sp,	#4 
00:0192 2E-F4                    2395   	pop	xr4
00:0194 12-90 00-00'             2396   	l	er0,	NEAR _uniRawSensorOut+02h
00:0198 00 E2                    2397   	mov	er2,	#0 
00:019A 6E-F0                    2398   	push	xr0
00:019C 01-F0'00-00'             2399   	bl	__fuldu8sw
00:01A0 D7 00                    2400   	mov	r0,	#0d7h
00:01A2 A3 01                    2401   	mov	r1,	#0a3h
00:01A4 B0 02                    2402   	mov	r2,	#0b0h
00:01A6 3E 03                    2403   	mov	r3,	#03eh
00:01A8 6E-F0                    2404   	push	xr0
00:01AA 01-F0'00-00'             2405   	bl	__fmulu8sw
00:01AE 04 E1                    2406   	add	sp,	#4 
00:01B0 2E-F0                    2407   	pop	xr0
00:01B2 7E-F0                    2408   	push	qr0
00:01B4 01-F0'00-00'             2409   	bl	__fsubu8sw
00:01B8 04 E1                    2410   	add	sp,	#4 
00:01BA 00 E0                    2411   	mov	er0,	#0 
00:01BC C8 02                    2412   	mov	r2,	#0c8h
00:01BE 42 03                    2413   	mov	r3,	#042h
00:01C0 6E-F0                    2414   	push	xr0
00:01C2 01-F0'00-00'             2415   	bl	__fmulu8sw
00:01C6 04 E1                    2416   	add	sp,	#4 
00:01C8 5A 02                    2417   	mov	r2,	#05ah
00:01CA 43 03                    2418   	mov	r3,	#043h
00:01CC 6E-F0                    2419   	push	xr0
00:01CE 01-F0'00-00'             2420   	bl	__fdivu8sw
00:01D2 04 E1                    2421   	add	sp,	#4 
00:01D4 2E-F0                    2422   	pop	xr0
00:01D6 13-90 00-00'             2423   	st	er0,	NEAR _flSensorOut
00:01DA 13-92 00-00'             2424   	st	er2,	NEAR _flSensorOut+02h
                                 2425   
                                 2426   ;;	else if(flSensorOut[0]<2.13f)
                                 2427   CLINEA 0000H 0001H 03B2H 0002H 001EH
00:01DE 00-F0'00-00'             2428   	b	_$L175
00:01E2                          2429   _$L170 :
00:01E2 12-90 00-00'             2430   	l	er0,	NEAR _flSensorOut
00:01E6 12-92 00-00'             2431   	l	er2,	NEAR _flSensorOut+02h
00:01EA 6E-F0                    2432   	push	xr0
00:01EC EC 00                    2433   	mov	r0,	#0ech
00:01EE 51 01                    2434   	mov	r1,	#051h
00:01F0 08 02                    2435   	mov	r2,	#08h
00:01F2 40 03                    2436   	mov	r3,	#040h
00:01F4 6E-F0                    2437   	push	xr0
00:01F6 01-F0'00-00'             2438   	bl	__fcmpu8sw
00:01FA 08 E1                    2439   	add	sp,	#8 
00:01FC 0B-A0                    2440   	mov	psw,	r0
00:01FE 35 C0                    2441   	bge	_$L173
                                 2442   
                                 2443   ;;		flSensorOut[0] = (0.276f*uniRawSensorOut._uintArr[0]-0.130f*uniRawSensorOut._uintArr[1])/1*100/218;
                                 2444   CLINEA 0000H 0001H 03B3H 0003H 0065H
00:0200 12-90 00-00'             2445   	l	er0,	NEAR _uniRawSensorOut
00:0204 00 E2                    2446   	mov	er2,	#0 
00:0206 6E-F0                    2447   	push	xr0
00:0208 01-F0'00-00'             2448   	bl	__fuldu8sw
00:020C DF 00                    2449   	mov	r0,	#0dfh
00:020E 4F 01                    2450   	mov	r1,	#04fh
00:0210 8D 02                    2451   	mov	r2,	#08dh
00:0212 3E 03                    2452   	mov	r3,	#03eh
00:0214 6E-F0                    2453   	push	xr0
00:0216 01-F0'00-00'             2454   	bl	__fmulu8sw
00:021A 04 E1                    2455   	add	sp,	#4 
00:021C 2E-F4                    2456   	pop	xr4
00:021E 12-90 00-00'             2457   	l	er0,	NEAR _uniRawSensorOut+02h
00:0222 00 E2                    2458   	mov	er2,	#0 
00:0224 6E-F0                    2459   	push	xr0
00:0226 01-F0'00-00'             2460   	bl	__fuldu8sw
00:022A B8 00                    2461   	mov	r0,	#0b8h
00:022C 1E 01                    2462   	mov	r1,	#01eh
00:022E 05 02                    2463   	mov	r2,	#05h
00:0230 3E 03                    2464   	mov	r3,	#03eh
00:0232 6E-F0                    2465   	push	xr0
00:0234 01-F0'00-00'             2466   	bl	__fmulu8sw
00:0238 04 E1                    2467   	add	sp,	#4 
00:023A 2E-F0                    2468   	pop	xr0
00:023C 7E-F0                    2469   	push	qr0
00:023E 01-F0'00-00'             2470   	bl	__fsubu8sw
00:0242 04 E1                    2471   	add	sp,	#4 
00:0244 00 E0                    2472   	mov	er0,	#0 
00:0246 C8 02                    2473   	mov	r2,	#0c8h
00:0248 42 03                    2474   	mov	r3,	#042h
00:024A 6E-F0                    2475   	push	xr0
00:024C 01-F0'00-00'             2476   	bl	__fmulu8sw
00:0250 04 E1                    2477   	add	sp,	#4 
00:0252 5A 02                    2478   	mov	r2,	#05ah
00:0254 43 03                    2479   	mov	r3,	#043h
00:0256 6E-F0                    2480   	push	xr0
00:0258 01-F0'00-00'             2481   	bl	__fdivu8sw
00:025C 04 E1                    2482   	add	sp,	#4 
00:025E 2E-F0                    2483   	pop	xr0
00:0260 13-90 00-00'             2484   	st	er0,	NEAR _flSensorOut
00:0264 13-92 00-00'             2485   	st	er2,	NEAR _flSensorOut+02h
                                 2486   
                                 2487   ;;	else
                                 2488   CLINEA 0000H 0001H 03B4H 0002H 0005H
00:0268 05 CE                    2489   	bal	_$L175
00:026A                          2490   _$L173 :
                                 2491   
                                 2492   ;;		flSensorOut[0] = 0;
                                 2493   CLINEA 0000H 0001H 03B5H 0003H 0015H
00:026A 00 E0                    2494   	mov	er0,	#0 
00:026C 13-90 00-00'             2495   	st	er0,	NEAR _flSensorOut
00:0270 13-90 00-00'             2496   	st	er0,	NEAR _flSensorOut+02h
00:0274                          2497   _$L175 :
                                 2498   
                                 2499   ;;	LEDOUT(ReverseBits(uniRawSensorOut._ucharArr[1]));
                                 2500   CLINEA 0000H 0000H 03B7H 0002H 0033H
00:0274 10-90 00-00'             2501   	l	r0,	NEAR _uniRawSensorOut+01h
00:0278 01-F0'00-00'             2502   	bl	_ReverseBits
00:027C 11-90 60-F2              2503   	st	r0,	0f260h
                                 2504   
                                 2505   ;;	printf(ESC_ERASE2END "BH1730FVC> Ambient Light = %lu[lx]" ESC_SOL, (unsigned long)flSensorOut[0]);
                                 2506   CLINEA 0000H 0001H 03B8H 0002H 0063H
00:0280 12-90 00-00'             2507   	l	er0,	NEAR _flSensorOut
00:0284 12-92 00-00'             2508   	l	er2,	NEAR _flSensorOut+02h
00:0288 6E-F0                    2509   	push	xr0
00:028A 01-F0'00-00'             2510   	bl	__ftolu8sw
00:028E 2E-F0                    2511   	pop	xr0
00:0290 6E-F0                    2512   	push	xr0
00:0292 00'00                    2513   	mov	r0,	#BYTE1 OFFSET $$S176
00:0294 00'01                    2514   	mov	r1,	#BYTE2 OFFSET $$S176
00:0296 5E-F0                    2515   	push	er0
00:0298 01-F0'00-00'             2516   	bl	_printf_n
00:029C 06 E1                    2517   	add	sp,	#6 
                                 2518   CBLOCKEND 205 2 953
                                 2519   
                                 2520   ;;}
                                 2521   CLINEA 0000H 0001H 03B9H 0001H 0001H
00:029E 2E-F4                    2522   	pop	xr4
00:02A0 8E-F2                    2523   	pop	pc
                                 2524   CBLOCKEND 205 1 953
                                 2525   CFUNCTIONEND 205
                                 2526   
                                 2527   
  --------------------------     2528   	rseg $$MainOp_Ambient_Light_Sensor_8$main
                                 2529   CFUNCTION 206
                                 2530   
00:0000                          2531   _MainOp_Ambient_Light_Sensor_8	:
                                 2532   CBLOCK 206 1 966
                                 2533   
                                 2534   ;;{	
                                 2535   CLINEA 0000H 0001H 03C6H 0001H 0002H
00:0000 CE-F8                    2536   	push	lr
                                 2537   CBLOCK 206 2 966
                                 2538   CRET 0000H
                                 2539   
                                 2540   ;;	I2C_Read(BH17xxFVC_ADDR_1, NULL, 0, uniRawSensorOut._ucharArr, 2);
                                 2541   CLINEA 0000H 0001H 03CBH 0002H 0043H
00:0002 02 00                    2542   	mov	r0,	#02h
00:0004 4E-F0                    2543   	push	r0
00:0006 00'00                    2544   	mov	r0,	#BYTE1 OFFSET _uniRawSensorOut
00:0008 00'01                    2545   	mov	r1,	#BYTE2 OFFSET _uniRawSensorOut
00:000A 5E-F0                    2546   	push	er0
00:000C 00 00                    2547   	mov	r0,	#00h
00:000E 4E-F0                    2548   	push	r0
00:0010 00 E2                    2549   	mov	er2,	#0 
00:0012 23 00                    2550   	mov	r0,	#023h
00:0014 01-F0'00-00'             2551   	bl	_I2C_Read
00:0018 06 E1                    2552   	add	sp,	#6 
                                 2553   
                                 2554   ;;	flSensorOut[0] = (uniRawSensorOut._ucharArr[0]<<8|uniRawSensorOut._ucharArr[1])/1.2f;
                                 2555   CLINEA 0000H 0001H 03CFH 0002H 0056H
00:001A 10-90 00-00'             2556   	l	r0,	NEAR _uniRawSensorOut
00:001E 00 01                    2557   	mov	r1,	#00h
00:0020 00-83                    2558   	mov	r3,	r0
00:0022 10-90 00-00'             2559   	l	r0,	NEAR _uniRawSensorOut+01h
00:0026 33-81                    2560   	or	r1,	r3
00:0028 10-82                    2561   	mov	r2,	r1
00:002A 2F-83                    2562   	extbw	er2
00:002C 30-82                    2563   	mov	r2,	r3
00:002E 6E-F0                    2564   	push	xr0
00:0030 01-F0'00-00'             2565   	bl	__fildu8sw
00:0034 9A 00                    2566   	mov	r0,	#09ah
00:0036 99 01                    2567   	mov	r1,	#099h
00:0038 99 02                    2568   	mov	r2,	#099h
00:003A 3F 03                    2569   	mov	r3,	#03fh
00:003C 6E-F0                    2570   	push	xr0
00:003E 01-F0'00-00'             2571   	bl	__fdivu8sw
00:0042 04 E1                    2572   	add	sp,	#4 
00:0044 2E-F0                    2573   	pop	xr0
00:0046 13-90 00-00'             2574   	st	er0,	NEAR _flSensorOut
00:004A 13-92 00-00'             2575   	st	er2,	NEAR _flSensorOut+02h
                                 2576   
                                 2577   ;;	LEDOUT(ReverseBits(uniRawSensorOut._ucharArr[0]));
                                 2578   CLINEA 0000H 0000H 03D1H 0002H 0033H
00:004E 10-90 00-00'             2579   	l	r0,	NEAR _uniRawSensorOut
00:0052 01-F0'00-00'             2580   	bl	_ReverseBits
00:0056 11-90 60-F2              2581   	st	r0,	0f260h
                                 2582   
                                 2583   ;;	printf(ESC_ERASE2END "BH1721FVC> Ambient Light = %lu[lx]" ESC_SOL, (unsigned long)flSensorOut[0]);
                                 2584   CLINEA 0000H 0001H 03D2H 0002H 0063H
00:005A 12-90 00-00'             2585   	l	er0,	NEAR _flSensorOut
00:005E 12-92 00-00'             2586   	l	er2,	NEAR _flSensorOut+02h
00:0062 6E-F0                    2587   	push	xr0
00:0064 01-F0'00-00'             2588   	bl	__ftolu8sw
00:0068 2E-F0                    2589   	pop	xr0
00:006A 6E-F0                    2590   	push	xr0
00:006C 00'00                    2591   	mov	r0,	#BYTE1 OFFSET $$S178
00:006E 00'01                    2592   	mov	r1,	#BYTE2 OFFSET $$S178
00:0070 5E-F0                    2593   	push	er0
00:0072 01-F0'00-00'             2594   	bl	_printf_n
00:0076 06 E1                    2595   	add	sp,	#6 
                                 2596   CBLOCKEND 206 2 979
                                 2597   
                                 2598   ;;}
                                 2599   CLINEA 0000H 0001H 03D3H 0001H 0001H
00:0078 8E-F2                    2600   	pop	pc
                                 2601   CBLOCKEND 206 1 979
                                 2602   CFUNCTIONEND 206
                                 2603   
                                 2604   
  --------------------------     2605   	rseg $$MainOp_Ambient_Light_Sensor_9$main
                                 2606   CFUNCTION 207
                                 2607   
00:0000                          2608   _MainOp_Ambient_Light_Sensor_9	:
                                 2609   CBLOCK 207 1 992
                                 2610   
                                 2611   ;;{
                                 2612   CLINEA 0000H 0001H 03E0H 0001H 0001H
00:0000 CE-F8                    2613   	push	lr
                                 2614   CBLOCK 207 2 992
                                 2615   CRET 0000H
                                 2616   
                                 2617   ;;	I2C_Read(BH17xxFVC_ADDR_2, NULL, 0, uniRawSensorOut._ucharArr, 2);
                                 2618   CLINEA 0000H 0001H 03E6H 0002H 0043H
00:0002 02 00                    2619   	mov	r0,	#02h
00:0004 4E-F0                    2620   	push	r0
00:0006 00'00                    2621   	mov	r0,	#BYTE1 OFFSET _uniRawSensorOut
00:0008 00'01                    2622   	mov	r1,	#BYTE2 OFFSET _uniRawSensorOut
00:000A 5E-F0                    2623   	push	er0
00:000C 00 00                    2624   	mov	r0,	#00h
00:000E 4E-F0                    2625   	push	r0
00:0010 00 E2                    2626   	mov	er2,	#0 
00:0012 29 00                    2627   	mov	r0,	#029h
00:0014 01-F0'00-00'             2628   	bl	_I2C_Read
00:0018 06 E1                    2629   	add	sp,	#6 
                                 2630   
                                 2631   ;;	flSensorOut[0] = uniRawSensorOut._uint;
                                 2632   CLINEA 0000H 0001H 03EAH 0002H 0028H
00:001A 12-90 00-00'             2633   	l	er0,	NEAR _uniRawSensorOut
00:001E 00 E2                    2634   	mov	er2,	#0 
00:0020 6E-F0                    2635   	push	xr0
00:0022 01-F0'00-00'             2636   	bl	__fuldu8sw
00:0026 2E-F0                    2637   	pop	xr0
00:0028 13-90 00-00'             2638   	st	er0,	NEAR _flSensorOut
00:002C 13-92 00-00'             2639   	st	er2,	NEAR _flSensorOut+02h
                                 2640   
                                 2641   ;;	LEDOUT(ReverseBits(uniRawSensorOut._ucharArr[1]));
                                 2642   CLINEA 0000H 0000H 03ECH 0002H 0033H
00:0030 10-90 00-00'             2643   	l	r0,	NEAR _uniRawSensorOut+01h
00:0034 01-F0'00-00'             2644   	bl	_ReverseBits
00:0038 11-90 60-F2              2645   	st	r0,	0f260h
                                 2646   
                                 2647   ;;	printf(ESC_ERASE2END "BH1780GLI> Ambient Light = %lu[lx]" ESC_SOL, (unsigned long)flSensorOut[0]);
                                 2648   CLINEA 0000H 0001H 03EDH 0002H 0063H
00:003C 12-90 00-00'             2649   	l	er0,	NEAR _flSensorOut
00:0040 12-92 00-00'             2650   	l	er2,	NEAR _flSensorOut+02h
00:0044 6E-F0                    2651   	push	xr0
00:0046 01-F0'00-00'             2652   	bl	__ftolu8sw
00:004A 2E-F0                    2653   	pop	xr0
00:004C 6E-F0                    2654   	push	xr0
00:004E 00'00                    2655   	mov	r0,	#BYTE1 OFFSET $$S180
00:0050 00'01                    2656   	mov	r1,	#BYTE2 OFFSET $$S180
00:0052 5E-F0                    2657   	push	er0
00:0054 01-F0'00-00'             2658   	bl	_printf_n
00:0058 06 E1                    2659   	add	sp,	#6 
                                 2660   CBLOCKEND 207 2 1006
                                 2661   
                                 2662   ;;}
                                 2663   CLINEA 0000H 0001H 03EEH 0001H 0001H
00:005A 8E-F2                    2664   	pop	pc
                                 2665   CBLOCKEND 207 1 1006
                                 2666   CFUNCTIONEND 207
                                 2667   
                                 2668   
  --------------------------     2669   	rseg $$MainOp_UV_Sensor_10$main
                                 2670   CFUNCTION 208
                                 2671   
00:0000                          2672   _MainOp_UV_Sensor_10	:
                                 2673   CBLOCK 208 1 1019
                                 2674   
                                 2675   ;;{
                                 2676   CLINEA 0000H 0001H 03FBH 0001H 0001H
00:0000 CE-F8                    2677   	push	lr
                                 2678   CBLOCK 208 2 1019
                                 2679   CRET 0000H
                                 2680   
                                 2681   ;;	uniRawSensorOut._uint = ADC_Read(0);
                                 2682   CLINEA 0000H 0000H 03FCH 0002H 0025H
00:0002 00 00                    2683   	mov	r0,	#00h
00:0004 01-F0'00-00'             2684   	bl	_ADC_Read
00:0008 13-90 00-00'             2685   	st	er0,	NEAR _uniRawSensorOut
                                 2686   
                                 2687   ;;	flSensorOut[0] = uniRawSensorOut._uint*3.3f/1023;
                                 2688   CLINEA 0000H 0001H 03FEH 0002H 0032H
00:000C 00 E2                    2689   	mov	er2,	#0 
00:000E 6E-F0                    2690   	push	xr0
00:0010 01-F0'00-00'             2691   	bl	__fuldu8sw
00:0014 33 00                    2692   	mov	r0,	#033h
00:0016 33 01                    2693   	mov	r1,	#033h
00:0018 53 02                    2694   	mov	r2,	#053h
00:001A 40 03                    2695   	mov	r3,	#040h
00:001C 6E-F0                    2696   	push	xr0
00:001E 01-F0'00-00'             2697   	bl	__fmulu8sw
00:0022 04 E1                    2698   	add	sp,	#4 
00:0024 00 00                    2699   	mov	r0,	#00h
00:0026 C0 01                    2700   	mov	r1,	#0c0h
00:0028 7F 02                    2701   	mov	r2,	#07fh
00:002A 44 03                    2702   	mov	r3,	#044h
00:002C 6E-F0                    2703   	push	xr0
00:002E 01-F0'00-00'             2704   	bl	__fdivu8sw
00:0032 04 E1                    2705   	add	sp,	#4 
00:0034 2E-F0                    2706   	pop	xr0
00:0036 13-90 00-00'             2707   	st	er0,	NEAR _flSensorOut
00:003A 13-92 00-00'             2708   	st	er2,	NEAR _flSensorOut+02h
                                 2709   
                                 2710   ;;	flSensorOut[1] = Voltage2UVIntensity(flSensorOut[0]);
                                 2711   CLINEA 0000H 0001H 0400H 0002H 0036H
00:003E 6E-F0                    2712   	push	xr0
00:0040 CD 00                    2713   	mov	r0,	#0cdh
00:0042 CC 01                    2714   	mov	r1,	#0cch
00:0044 0C 02                    2715   	mov	r2,	#0ch
00:0046 C0 03                    2716   	mov	r3,	#0c0h
00:0048 6E-F0                    2717   	push	xr0
00:004A 01-F0'00-00'             2718   	bl	__faddu8sw
00:004E 04 E1                    2719   	add	sp,	#4 
00:0050 93 00                    2720   	mov	r0,	#093h
00:0052 18 01                    2721   	mov	r1,	#018h
00:0054 04 02                    2722   	mov	r2,	#04h
00:0056 3E 03                    2723   	mov	r3,	#03eh
00:0058 6E-F0                    2724   	push	xr0
00:005A 01-F0'00-00'             2725   	bl	__fdivu8sw
00:005E 04 E1                    2726   	add	sp,	#4 
00:0060 00 E0                    2727   	mov	er0,	#0 
00:0062 20 02                    2728   	mov	r2,	#020h
00:0064 41 03                    2729   	mov	r3,	#041h
00:0066 6E-F0                    2730   	push	xr0
00:0068 01-F0'00-00'             2731   	bl	__faddu8sw
00:006C 04 E1                    2732   	add	sp,	#4 
00:006E 2E-F0                    2733   	pop	xr0
00:0070 13-90 00-00'             2734   	st	er0,	NEAR _flSensorOut+04h
00:0074 13-92 00-00'             2735   	st	er2,	NEAR _flSensorOut+06h
                                 2736   
                                 2737   ;;	LEDOUT(ReverseBits((unsigned char)(uniRawSensorOut._uint>>2)));
                                 2738   CLINEA 0000H 0000H 0402H 0002H 0040H
00:0078 12-90 00-00'             2739   	l	er0,	NEAR _uniRawSensorOut
00:007C 2D-90                    2740   	srlc	r0,	#02h
00:007E 01-F0'00-00'             2741   	bl	_ReverseBits
00:0082 11-90 60-F2              2742   	st	r0,	0f260h
                                 2743   
                                 2744   ;;	printf(ESC_ERASE2END "ML8511> UV Intensity = %.02f[mW/cm2]. Vsenout = %.02f[V]" ESC_SOL, flSensorOut[1], flSensorOut[0]);
                                 2745   CLINEA 0000H 0001H 0403H 0002H 007AH
00:0086 12-90 00-00'             2746   	l	er0,	NEAR _flSensorOut
00:008A 12-92 00-00'             2747   	l	er2,	NEAR _flSensorOut+02h
00:008E 6E-F0                    2748   	push	xr0
00:0090 FC E1                    2749   	add	sp,	#-4
00:0092 01-F0'00-00'             2750   	bl	__ftodu8sw
00:0096 12-90 00-00'             2751   	l	er0,	NEAR _flSensorOut+04h
00:009A 12-92 00-00'             2752   	l	er2,	NEAR _flSensorOut+06h
00:009E 6E-F0                    2753   	push	xr0
00:00A0 FC E1                    2754   	add	sp,	#-4
00:00A2 01-F0'00-00'             2755   	bl	__ftodu8sw
00:00A6 00'00                    2756   	mov	r0,	#BYTE1 OFFSET $$S182
00:00A8 00'01                    2757   	mov	r1,	#BYTE2 OFFSET $$S182
00:00AA 5E-F0                    2758   	push	er0
00:00AC 01-F0'00-00'             2759   	bl	_printf_n
00:00B0 12 E1                    2760   	add	sp,	#18
                                 2761   CBLOCKEND 208 2 1028
                                 2762   
                                 2763   ;;}
                                 2764   CLINEA 0000H 0001H 0404H 0001H 0001H
00:00B2 8E-F2                    2765   	pop	pc
                                 2766   CBLOCKEND 208 1 1028
                                 2767   CFUNCTIONEND 208
                                 2768   
                                 2769   
  --------------------------     2770   	rseg $$MainOp_KX022$main
                                 2771   CFUNCTION 209
                                 2772   
00:0000                          2773   _MainOp_KX022	:
                                 2774   CBLOCK 209 1 1041
                                 2775   
                                 2776   ;;{
                                 2777   CLINEA 0000H 0001H 0411H 0001H 0001H
00:0000 CE-F8                    2778   	push	lr
                                 2779   CBLOCK 209 2 1041
                                 2780   CRET 0000H
                                 2781   
                                 2782   ;;	I2C_Read(KX022_I2C_ADDR, &KX022_XOUTL, 1, uniRawSensorOut._ucharArr, 6);
                                 2783   CLINEA 0000H 0001H 0416H 0002H 0049H
00:0002 06 00                    2784   	mov	r0,	#06h
00:0004 4E-F0                    2785   	push	r0
00:0006 00'00                    2786   	mov	r0,	#BYTE1 OFFSET _uniRawSensorOut
00:0008 00'01                    2787   	mov	r1,	#BYTE2 OFFSET _uniRawSensorOut
00:000A 5E-F0                    2788   	push	er0
00:000C 01 00                    2789   	mov	r0,	#01h
00:000E 4E-F0                    2790   	push	r0
00:0010 00'02                    2791   	mov	r2,	#BYTE1 OFFSET _KX022_XOUTL
00:0012 00'03                    2792   	mov	r3,	#BYTE2 OFFSET _KX022_XOUTL
00:0014 1E 00                    2793   	mov	r0,	#01eh
00:0016 01-F0'00-00'             2794   	bl	_I2C_Read
00:001A 06 E1                    2795   	add	sp,	#6 
                                 2796   
                                 2797   ;;	flSensorOut[0] = (float)uniRawSensorOut._intArr[0]/16384.0f;	// X
                                 2798   CLINEA 0000H 0001H 0419H 0002H 0042H
00:001C 12-90 00-00'             2799   	l	er0,	NEAR _uniRawSensorOut
00:0020 10-82                    2800   	mov	r2,	r1
00:0022 2F-83                    2801   	extbw	er2
00:0024 30-82                    2802   	mov	r2,	r3
00:0026 6E-F0                    2803   	push	xr0
00:0028 01-F0'00-00'             2804   	bl	__fildu8sw
00:002C 00 E0                    2805   	mov	er0,	#0 
00:002E 80 02                    2806   	mov	r2,	#080h
00:0030 46 03                    2807   	mov	r3,	#046h
00:0032 6E-F0                    2808   	push	xr0
00:0034 01-F0'00-00'             2809   	bl	__fdivu8sw
00:0038 04 E1                    2810   	add	sp,	#4 
00:003A 2E-F0                    2811   	pop	xr0
00:003C 13-90 00-00'             2812   	st	er0,	NEAR _flSensorOut
00:0040 13-92 00-00'             2813   	st	er2,	NEAR _flSensorOut+02h
                                 2814   
                                 2815   ;;	flSensorOut[1] = (float)uniRawSensorOut._intArr[1]/16384.0f;	// Y
                                 2816   CLINEA 0000H 0001H 041AH 0002H 0042H
00:0044 12-90 00-00'             2817   	l	er0,	NEAR _uniRawSensorOut+02h
00:0048 10-82                    2818   	mov	r2,	r1
00:004A 2F-83                    2819   	extbw	er2
00:004C 30-82                    2820   	mov	r2,	r3
00:004E 6E-F0                    2821   	push	xr0
00:0050 01-F0'00-00'             2822   	bl	__fildu8sw
00:0054 00 E0                    2823   	mov	er0,	#0 
00:0056 80 02                    2824   	mov	r2,	#080h
00:0058 46 03                    2825   	mov	r3,	#046h
00:005A 6E-F0                    2826   	push	xr0
00:005C 01-F0'00-00'             2827   	bl	__fdivu8sw
00:0060 04 E1                    2828   	add	sp,	#4 
00:0062 2E-F0                    2829   	pop	xr0
00:0064 13-90 00-00'             2830   	st	er0,	NEAR _flSensorOut+04h
00:0068 13-92 00-00'             2831   	st	er2,	NEAR _flSensorOut+06h
                                 2832   
                                 2833   ;;	flSensorOut[2] = (float)uniRawSensorOut._intArr[2]/16384.0f;	// Y
                                 2834   CLINEA 0000H 0001H 041BH 0002H 0042H
00:006C 12-90 00-00'             2835   	l	er0,	NEAR _uniRawSensorOut+04h
00:0070 10-82                    2836   	mov	r2,	r1
00:0072 2F-83                    2837   	extbw	er2
00:0074 30-82                    2838   	mov	r2,	r3
00:0076 6E-F0                    2839   	push	xr0
00:0078 01-F0'00-00'             2840   	bl	__fildu8sw
00:007C 00 E0                    2841   	mov	er0,	#0 
00:007E 80 02                    2842   	mov	r2,	#080h
00:0080 46 03                    2843   	mov	r3,	#046h
00:0082 6E-F0                    2844   	push	xr0
00:0084 01-F0'00-00'             2845   	bl	__fdivu8sw
00:0088 04 E1                    2846   	add	sp,	#4 
00:008A 2E-F0                    2847   	pop	xr0
00:008C 13-90 00-00'             2848   	st	er0,	NEAR _flSensorOut+08h
00:0090 13-92 00-00'             2849   	st	er2,	NEAR _flSensorOut+0ah
                                 2850   
                                 2851   ;;		uniRawSensorOut._intArr[0], flSensorOut[0], uniRawSensorOut._intArr[1], flSensorOut[1], uniRawSensorOut._intArr[2], flSensorOut[2]);
                                 2852   CLINEA 0000H 0001H 041EH 0003H 0086H
00:0094 6E-F0                    2853   	push	xr0
00:0096 FC E1                    2854   	add	sp,	#-4
00:0098 01-F0'00-00'             2855   	bl	__ftodu8sw
00:009C 12-90 00-00'             2856   	l	er0,	NEAR _uniRawSensorOut+04h
00:00A0 5E-F0                    2857   	push	er0
00:00A2 12-90 00-00'             2858   	l	er0,	NEAR _flSensorOut+04h
00:00A6 12-92 00-00'             2859   	l	er2,	NEAR _flSensorOut+06h
00:00AA 6E-F0                    2860   	push	xr0
00:00AC FC E1                    2861   	add	sp,	#-4
00:00AE 01-F0'00-00'             2862   	bl	__ftodu8sw
00:00B2 12-90 00-00'             2863   	l	er0,	NEAR _uniRawSensorOut+02h
00:00B6 5E-F0                    2864   	push	er0
00:00B8 12-90 00-00'             2865   	l	er0,	NEAR _flSensorOut
00:00BC 12-92 00-00'             2866   	l	er2,	NEAR _flSensorOut+02h
00:00C0 6E-F0                    2867   	push	xr0
00:00C2 FC E1                    2868   	add	sp,	#-4
00:00C4 01-F0'00-00'             2869   	bl	__ftodu8sw
00:00C8 12-90 00-00'             2870   	l	er0,	NEAR _uniRawSensorOut
00:00CC 5E-F0                    2871   	push	er0
00:00CE 00'00                    2872   	mov	r0,	#BYTE1 OFFSET $$S184
00:00D0 00'01                    2873   	mov	r1,	#BYTE2 OFFSET $$S184
00:00D2 5E-F0                    2874   	push	er0
00:00D4 01-F0'00-00'             2875   	bl	_printf_n
00:00D8 20 E1                    2876   	add	sp,	#32
                                 2877   
                                 2878   ;;	I2C_Read(KX022_I2C_ADDR, &KX022_TSCP, 1, uniRawSensorOut._ucharArr, 2);
                                 2879   CLINEA 0000H 0001H 0421H 0002H 0048H
00:00DA 02 00                    2880   	mov	r0,	#02h
00:00DC 4E-F0                    2881   	push	r0
00:00DE 00'00                    2882   	mov	r0,	#BYTE1 OFFSET _uniRawSensorOut
00:00E0 00'01                    2883   	mov	r1,	#BYTE2 OFFSET _uniRawSensorOut
00:00E2 5E-F0                    2884   	push	er0
00:00E4 01 00                    2885   	mov	r0,	#01h
00:00E6 4E-F0                    2886   	push	r0
00:00E8 00'02                    2887   	mov	r2,	#BYTE1 OFFSET _KX022_TSCP
00:00EA 00'03                    2888   	mov	r3,	#BYTE2 OFFSET _KX022_TSCP
00:00EC 1E 00                    2889   	mov	r0,	#01eh
00:00EE 01-F0'00-00'             2890   	bl	_I2C_Read
00:00F2 06 E1                    2891   	add	sp,	#6 
                                 2892   
                                 2893   ;;	switch(uniRawSensorOut._ucharArr[0])
                                 2894   CLINEA 0000H 0001H 0423H 0002H 0025H
00:00F4 10-90 00-00'             2895   	l	r0,	NEAR _uniRawSensorOut
                                 2896   CBLOCK 209 3 1060
00:00F8 01 70                    2897   	cmp	r0,	#01h
00:00FA 0E C9                    2898   	beq	_$L190
                                 2899   
                                 2900   ;;	switch(uniRawSensorOut._ucharArr[0])
                                 2901   CLINEA 0000H 0000H 0423H 0002H 0025H
00:00FC 02 70                    2902   	cmp	r0,	#02h
00:00FE 0E C9                    2903   	beq	_$L191
                                 2904   
                                 2905   ;;	switch(uniRawSensorOut._ucharArr[0])
                                 2906   CLINEA 0000H 0000H 0423H 0002H 0025H
00:0100 04 70                    2907   	cmp	r0,	#04h
00:0102 0E C9                    2908   	beq	_$L192
                                 2909   
                                 2910   ;;	switch(uniRawSensorOut._ucharArr[0])
                                 2911   CLINEA 0000H 0000H 0423H 0002H 0025H
00:0104 08 70                    2912   	cmp	r0,	#08h
00:0106 0E C9                    2913   	beq	_$L193
                                 2914   
                                 2915   ;;	switch(uniRawSensorOut._ucharArr[0])
                                 2916   CLINEA 0000H 0000H 0423H 0002H 0025H
00:0108 10 70                    2917   	cmp	r0,	#010h
00:010A 0E C9                    2918   	beq	_$L194
                                 2919   
                                 2920   ;;	switch(uniRawSensorOut._ucharArr[0])
                                 2921   CLINEA 0000H 0000H 0423H 0002H 0025H
00:010C 20 70                    2922   	cmp	r0,	#020h
00:010E 0E C9                    2923   	beq	_$L195
                                 2924   
                                 2925   ;;		default:	LEDOUT(0x00u); break;	// NONE
                                 2926   CLINEA 0000H 0000H 042BH 0003H 0028H
00:0110 00 00                    2927   	mov	r0,	#00h
                                 2928   CBLOCKEND 209 3 1068
                                 2929   
                                 2930   ;;	}
                                 2931   CLINEA 0000H 0000H 042CH 0002H 0002H
00:0112                          2932   _$L188 :
00:0112 11-90 60-F2              2933   	st	r0,	0f260h
                                 2934   CBLOCKEND 209 2 1069
                                 2935   
                                 2936   ;;}
                                 2937   CLINEA 0000H 0001H 042DH 0001H 0001H
00:0116 8E-F2                    2938   	pop	pc
                                 2939   
                                 2940   ;;		case 0x01u:	LEDOUT(0x1u<<4); break;	// FU: Face-Up State (Z+). Turn on LED4
                                 2941   CLINEA 0000H 0001H 0425H 0003H 004DH
00:0118                          2942   _$L190 :
00:0118 10 00                    2943   	mov	r0,	#010h
00:011A FB CE                    2944   	bal	_$L188
                                 2945   
                                 2946   ;;		case 0x02u:	LEDOUT(0x1u<<3); break;	// FD: Face-Down State (Z-). Turn on LED3
                                 2947   CLINEA 0000H 0001H 0426H 0003H 004FH
00:011C                          2948   _$L191 :
00:011C 08 00                    2949   	mov	r0,	#08h
00:011E F9 CE                    2950   	bal	_$L188
                                 2951   
                                 2952   ;;		case 0x04u:	LEDOUT(0x1u<<2); break;	// UP: Up State (Y+). Turn on LED2
                                 2953   CLINEA 0000H 0001H 0427H 0003H 0048H
00:0120                          2954   _$L192 :
00:0120 04 00                    2955   	mov	r0,	#04h
00:0122 F7 CE                    2956   	bal	_$L188
                                 2957   
                                 2958   ;;		case 0x08u:	LEDOUT(0x1u<<5); break;	// DO: Down State (Y-). Turn on LED5
                                 2959   CLINEA 0000H 0001H 0428H 0003H 004AH
00:0124                          2960   _$L193 :
00:0124 20 00                    2961   	mov	r0,	#020h
00:0126 F5 CE                    2962   	bal	_$L188
                                 2963   
                                 2964   ;;		case 0x10u:	LEDOUT(0x1u<<7); break;	// RI: Right State (X+). Turn on LED7
                                 2965   CLINEA 0000H 0001H 0429H 0003H 004BH
00:0128                          2966   _$L194 :
00:0128 80 00                    2967   	mov	r0,	#080h
00:012A F3 CE                    2968   	bal	_$L188
                                 2969   
                                 2970   ;;		case 0x20u:	LEDOUT(0x1u<<0); break;	// LE: Left State (X-). Turn on LED0
                                 2971   CLINEA 0000H 0001H 042AH 0003H 004AH
00:012C                          2972   _$L195 :
00:012C 01 00                    2973   	mov	r0,	#01h
00:012E F1 CE                    2974   	bal	_$L188
                                 2975   CBLOCKEND 209 1 1069
                                 2976   CFUNCTIONEND 209
                                 2977   
                                 2978   
  --------------------------     2979   	rseg $$MainOp_KMX61$main
                                 2980   CFUNCTION 210
                                 2981   
00:0000                          2982   _MainOp_KMX61	:
                                 2983   CBLOCK 210 1 1082
                                 2984   
                                 2985   ;;{ 
                                 2986   CLINEA 0000H 0001H 043AH 0001H 0002H
00:0000 CE-F8                    2987   	push	lr
                                 2988   CBLOCK 210 2 1082
                                 2989   CRET 0000H
                                 2990   
                                 2991   ;;	I2C_Read(KMX61_I2C_ADDR, &KMX61_ACCEL_XOUT_L, 1, uniRawSensorOut._ucharArr, 6);
                                 2992   CLINEA 0000H 0001H 043CH 0002H 0050H
00:0002 06 00                    2993   	mov	r0,	#06h
00:0004 4E-F0                    2994   	push	r0
00:0006 00'00                    2995   	mov	r0,	#BYTE1 OFFSET _uniRawSensorOut
00:0008 00'01                    2996   	mov	r1,	#BYTE2 OFFSET _uniRawSensorOut
00:000A 5E-F0                    2997   	push	er0
00:000C 01 00                    2998   	mov	r0,	#01h
00:000E 4E-F0                    2999   	push	r0
00:0010 00'02                    3000   	mov	r2,	#BYTE1 OFFSET _KMX61_ACCEL_XOUT_L
00:0012 00'03                    3001   	mov	r3,	#BYTE2 OFFSET _KMX61_ACCEL_XOUT_L
00:0014 0E 00                    3002   	mov	r0,	#0eh
00:0016 01-F0'00-00'             3003   	bl	_I2C_Read
00:001A 06 E1                    3004   	add	sp,	#6 
                                 3005   
                                 3006   ;;	uniRawSensorOut._intArr[0] = uniRawSensorOut._intArr[0]>>2;
                                 3007   CLINEA 0000H 0001H 043DH 0002H 003CH
00:001C 12-90 00-00'             3008   	l	er0,	NEAR _uniRawSensorOut
00:0020 2D-90                    3009   	srlc	r0,	#02h
00:0022 2E-91                    3010   	sra	r1,	#02h
00:0024 13-90 00-00'             3011   	st	er0,	NEAR _uniRawSensorOut
                                 3012   
                                 3013   ;;	uniRawSensorOut._intArr[1] = uniRawSensorOut._intArr[1]>>2;
                                 3014   CLINEA 0000H 0001H 043EH 0002H 003CH
00:0028 12-90 00-00'             3015   	l	er0,	NEAR _uniRawSensorOut+02h
00:002C 2D-90                    3016   	srlc	r0,	#02h
00:002E 2E-91                    3017   	sra	r1,	#02h
00:0030 13-90 00-00'             3018   	st	er0,	NEAR _uniRawSensorOut+02h
                                 3019   
                                 3020   ;;	uniRawSensorOut._intArr[2] = uniRawSensorOut._intArr[2]>>2;
                                 3021   CLINEA 0000H 0001H 043FH 0002H 003CH
00:0034 12-90 00-00'             3022   	l	er0,	NEAR _uniRawSensorOut+04h
00:0038 2D-90                    3023   	srlc	r0,	#02h
00:003A 2E-91                    3024   	sra	r1,	#02h
00:003C 13-90 00-00'             3025   	st	er0,	NEAR _uniRawSensorOut+04h
                                 3026   
                                 3027   ;;	flSensorOut[0] = (float)uniRawSensorOut._intArr[0]/1024.0f;	// X
                                 3028   CLINEA 0000H 0001H 0441H 0002H 0041H
00:0040 12-90 00-00'             3029   	l	er0,	NEAR _uniRawSensorOut
00:0044 10-82                    3030   	mov	r2,	r1
00:0046 2F-83                    3031   	extbw	er2
00:0048 30-82                    3032   	mov	r2,	r3
00:004A 6E-F0                    3033   	push	xr0
00:004C 01-F0'00-00'             3034   	bl	__fildu8sw
00:0050 00 E0                    3035   	mov	er0,	#0 
00:0052 80 02                    3036   	mov	r2,	#080h
00:0054 44 03                    3037   	mov	r3,	#044h
00:0056 6E-F0                    3038   	push	xr0
00:0058 01-F0'00-00'             3039   	bl	__fdivu8sw
00:005C 04 E1                    3040   	add	sp,	#4 
00:005E 2E-F0                    3041   	pop	xr0
00:0060 13-90 00-00'             3042   	st	er0,	NEAR _flSensorOut
00:0064 13-92 00-00'             3043   	st	er2,	NEAR _flSensorOut+02h
                                 3044   
                                 3045   ;;	flSensorOut[1] = (float)uniRawSensorOut._intArr[1]/1024.0f;	// Y
                                 3046   CLINEA 0000H 0001H 0442H 0002H 0041H
00:0068 12-90 00-00'             3047   	l	er0,	NEAR _uniRawSensorOut+02h
00:006C 10-82                    3048   	mov	r2,	r1
00:006E 2F-83                    3049   	extbw	er2
00:0070 30-82                    3050   	mov	r2,	r3
00:0072 6E-F0                    3051   	push	xr0
00:0074 01-F0'00-00'             3052   	bl	__fildu8sw
00:0078 00 E0                    3053   	mov	er0,	#0 
00:007A 80 02                    3054   	mov	r2,	#080h
00:007C 44 03                    3055   	mov	r3,	#044h
00:007E 6E-F0                    3056   	push	xr0
00:0080 01-F0'00-00'             3057   	bl	__fdivu8sw
00:0084 04 E1                    3058   	add	sp,	#4 
00:0086 2E-F0                    3059   	pop	xr0
00:0088 13-90 00-00'             3060   	st	er0,	NEAR _flSensorOut+04h
00:008C 13-92 00-00'             3061   	st	er2,	NEAR _flSensorOut+06h
                                 3062   
                                 3063   ;;	flSensorOut[2] = (float)uniRawSensorOut._intArr[2]/1024.0f;	// Y
                                 3064   CLINEA 0000H 0001H 0443H 0002H 0041H
00:0090 12-90 00-00'             3065   	l	er0,	NEAR _uniRawSensorOut+04h
00:0094 10-82                    3066   	mov	r2,	r1
00:0096 2F-83                    3067   	extbw	er2
00:0098 30-82                    3068   	mov	r2,	r3
00:009A 6E-F0                    3069   	push	xr0
00:009C 01-F0'00-00'             3070   	bl	__fildu8sw
00:00A0 00 E0                    3071   	mov	er0,	#0 
00:00A2 80 02                    3072   	mov	r2,	#080h
00:00A4 44 03                    3073   	mov	r3,	#044h
00:00A6 6E-F0                    3074   	push	xr0
00:00A8 01-F0'00-00'             3075   	bl	__fdivu8sw
00:00AC 04 E1                    3076   	add	sp,	#4 
00:00AE 2E-F0                    3077   	pop	xr0
00:00B0 13-90 00-00'             3078   	st	er0,	NEAR _flSensorOut+08h
00:00B4 13-92 00-00'             3079   	st	er2,	NEAR _flSensorOut+0ah
                                 3080   
                                 3081   ;;		uniRawSensorOut._intArr[0], flSensorOut[0], uniRawSensorOut._intArr[1], flSensorOut[1], uniRawSensorOut._intArr[2], flSensorOut[2]);
                                 3082   CLINEA 0000H 0001H 0445H 0003H 0086H
00:00B8 6E-F0                    3083   	push	xr0
00:00BA FC E1                    3084   	add	sp,	#-4
00:00BC 01-F0'00-00'             3085   	bl	__ftodu8sw
00:00C0 12-90 00-00'             3086   	l	er0,	NEAR _uniRawSensorOut+04h
00:00C4 5E-F0                    3087   	push	er0
00:00C6 12-90 00-00'             3088   	l	er0,	NEAR _flSensorOut+04h
00:00CA 12-92 00-00'             3089   	l	er2,	NEAR _flSensorOut+06h
00:00CE 6E-F0                    3090   	push	xr0
00:00D0 FC E1                    3091   	add	sp,	#-4
00:00D2 01-F0'00-00'             3092   	bl	__ftodu8sw
00:00D6 12-90 00-00'             3093   	l	er0,	NEAR _uniRawSensorOut+02h
00:00DA 5E-F0                    3094   	push	er0
00:00DC 12-90 00-00'             3095   	l	er0,	NEAR _flSensorOut
00:00E0 12-92 00-00'             3096   	l	er2,	NEAR _flSensorOut+02h
00:00E4 6E-F0                    3097   	push	xr0
00:00E6 FC E1                    3098   	add	sp,	#-4
00:00E8 01-F0'00-00'             3099   	bl	__ftodu8sw
00:00EC 12-90 00-00'             3100   	l	er0,	NEAR _uniRawSensorOut
00:00F0 5E-F0                    3101   	push	er0
00:00F2 00'00                    3102   	mov	r0,	#BYTE1 OFFSET $$S197
00:00F4 00'01                    3103   	mov	r1,	#BYTE2 OFFSET $$S197
00:00F6 5E-F0                    3104   	push	er0
00:00F8 01-F0'00-00'             3105   	bl	_printf_n
00:00FC 20 E1                    3106   	add	sp,	#32
                                 3107   
                                 3108   ;;	if(-0.5f<flSensorOut[0] && flSensorOut[0]<0.5f && 0.5f<flSensorOut[1])
                                 3109   CLINEA 0000H 0001H 0447H 0002H 0047H
00:00FE 00 E0                    3110   	mov	er0,	#0 
00:0100 00 02                    3111   	mov	r2,	#00h
00:0102 BF 03                    3112   	mov	r3,	#0bfh
00:0104 6E-F0                    3113   	push	xr0
00:0106 12-90 00-00'             3114   	l	er0,	NEAR _flSensorOut
00:010A 12-92 00-00'             3115   	l	er2,	NEAR _flSensorOut+02h
00:010E 6E-F0                    3116   	push	xr0
00:0110 01-F0'00-00'             3117   	bl	__fcmpu8sw
00:0114 08 E1                    3118   	add	sp,	#8 
00:0116 0B-A0                    3119   	mov	psw,	r0
00:0118 1F C0                    3120   	bge	_$L198
00:011A 12-90 00-00'             3121   	l	er0,	NEAR _flSensorOut
00:011E 6E-F0                    3122   	push	xr0
00:0120 00 E0                    3123   	mov	er0,	#0 
00:0122 00 02                    3124   	mov	r2,	#00h
00:0124 3F 03                    3125   	mov	r3,	#03fh
00:0126 6E-F0                    3126   	push	xr0
00:0128 01-F0'00-00'             3127   	bl	__fcmpu8sw
00:012C 08 E1                    3128   	add	sp,	#8 
00:012E 0B-A0                    3129   	mov	psw,	r0
00:0130 13 C0                    3130   	bge	_$L198
00:0132 00 E0                    3131   	mov	er0,	#0 
00:0134 00 02                    3132   	mov	r2,	#00h
00:0136 3F 03                    3133   	mov	r3,	#03fh
00:0138 6E-F0                    3134   	push	xr0
00:013A 12-90 00-00'             3135   	l	er0,	NEAR _flSensorOut+04h
00:013E 12-92 00-00'             3136   	l	er2,	NEAR _flSensorOut+06h
00:0142 6E-F0                    3137   	push	xr0
00:0144 01-F0'00-00'             3138   	bl	__fcmpu8sw
00:0148 08 E1                    3139   	add	sp,	#8 
00:014A 0B-A0                    3140   	mov	psw,	r0
00:014C 05 C0                    3141   	bge	_$L198
                                 3142   
                                 3143   ;;		LEDOUT(0x1u<<5);	// -30<angle(X,1g)<30 & angle(Y,1g)>30. Turn on LED5
                                 3144   CLINEA 0000H 0001H 0448H 0003H 0047H
00:014E 20 00                    3145   	mov	r0,	#020h
00:0150 11-90 60-F2              3146   	st	r0,	0f260h
                                 3147   
                                 3148   ;;	else if(0.5f<flSensorOut[0] && -0.5f<flSensorOut[1] && flSensorOut[1]<0.5f)
                                 3149   CLINEA 0000H 0001H 0449H 0002H 004CH
00:0154 00-F0'00-00'             3150   	b	_$L245
00:0158                          3151   _$L198 :
00:0158 00 E0                    3152   	mov	er0,	#0 
00:015A 00 02                    3153   	mov	r2,	#00h
00:015C 3F 03                    3154   	mov	r3,	#03fh
00:015E 6E-F0                    3155   	push	xr0
00:0160 12-90 00-00'             3156   	l	er0,	NEAR _flSensorOut
00:0164 12-92 00-00'             3157   	l	er2,	NEAR _flSensorOut+02h
00:0168 6E-F0                    3158   	push	xr0
00:016A 01-F0'00-00'             3159   	bl	__fcmpu8sw
00:016E 08 E1                    3160   	add	sp,	#8 
00:0170 0B-A0                    3161   	mov	psw,	r0
00:0172 1F C0                    3162   	bge	_$L209
00:0174 00 E0                    3163   	mov	er0,	#0 
00:0176 00 02                    3164   	mov	r2,	#00h
00:0178 BF 03                    3165   	mov	r3,	#0bfh
00:017A 6E-F0                    3166   	push	xr0
00:017C 12-90 00-00'             3167   	l	er0,	NEAR _flSensorOut+04h
00:0180 12-92 00-00'             3168   	l	er2,	NEAR _flSensorOut+06h
00:0184 6E-F0                    3169   	push	xr0
00:0186 01-F0'00-00'             3170   	bl	__fcmpu8sw
00:018A 08 E1                    3171   	add	sp,	#8 
00:018C 0B-A0                    3172   	mov	psw,	r0
00:018E 11 C0                    3173   	bge	_$L209
00:0190 12-90 00-00'             3174   	l	er0,	NEAR _flSensorOut+04h
00:0194 6E-F0                    3175   	push	xr0
00:0196 00 E0                    3176   	mov	er0,	#0 
00:0198 00 02                    3177   	mov	r2,	#00h
00:019A 3F 03                    3178   	mov	r3,	#03fh
00:019C 6E-F0                    3179   	push	xr0
00:019E 01-F0'00-00'             3180   	bl	__fcmpu8sw
00:01A2 08 E1                    3181   	add	sp,	#8 
00:01A4 0B-A0                    3182   	mov	psw,	r0
00:01A6 05 C0                    3183   	bge	_$L209
                                 3184   
                                 3185   ;;		LEDOUT(0x1u<<0);	// 30<angle(X,1g) & -30<angle(Y,1g)<30. Turn on LED0
                                 3186   CLINEA 0000H 0001H 044AH 0003H 0047H
00:01A8 01 00                    3187   	mov	r0,	#01h
00:01AA 11-90 60-F2              3188   	st	r0,	0f260h
                                 3189   
                                 3190   ;;	else if(-0.5f<flSensorOut[0] && flSensorOut[0]<0.5f && flSensorOut[1]<-0.5f)
                                 3191   CLINEA 0000H 0001H 044BH 0002H 004DH
00:01AE 00-F0'00-00'             3192   	b	_$L245
00:01B2                          3193   _$L209 :
00:01B2 00 E0                    3194   	mov	er0,	#0 
00:01B4 00 02                    3195   	mov	r2,	#00h
00:01B6 BF 03                    3196   	mov	r3,	#0bfh
00:01B8 6E-F0                    3197   	push	xr0
00:01BA 12-90 00-00'             3198   	l	er0,	NEAR _flSensorOut
00:01BE 12-92 00-00'             3199   	l	er2,	NEAR _flSensorOut+02h
00:01C2 6E-F0                    3200   	push	xr0
00:01C4 01-F0'00-00'             3201   	bl	__fcmpu8sw
00:01C8 08 E1                    3202   	add	sp,	#8 
00:01CA 0B-A0                    3203   	mov	psw,	r0
00:01CC 1F C0                    3204   	bge	_$L220
00:01CE 12-90 00-00'             3205   	l	er0,	NEAR _flSensorOut
00:01D2 6E-F0                    3206   	push	xr0
00:01D4 00 E0                    3207   	mov	er0,	#0 
00:01D6 00 02                    3208   	mov	r2,	#00h
00:01D8 3F 03                    3209   	mov	r3,	#03fh
00:01DA 6E-F0                    3210   	push	xr0
00:01DC 01-F0'00-00'             3211   	bl	__fcmpu8sw
00:01E0 08 E1                    3212   	add	sp,	#8 
00:01E2 0B-A0                    3213   	mov	psw,	r0
00:01E4 13 C0                    3214   	bge	_$L220
00:01E6 12-90 00-00'             3215   	l	er0,	NEAR _flSensorOut+04h
00:01EA 12-92 00-00'             3216   	l	er2,	NEAR _flSensorOut+06h
00:01EE 6E-F0                    3217   	push	xr0
00:01F0 00 E0                    3218   	mov	er0,	#0 
00:01F2 00 02                    3219   	mov	r2,	#00h
00:01F4 BF 03                    3220   	mov	r3,	#0bfh
00:01F6 6E-F0                    3221   	push	xr0
00:01F8 01-F0'00-00'             3222   	bl	__fcmpu8sw
00:01FC 08 E1                    3223   	add	sp,	#8 
00:01FE 0B-A0                    3224   	mov	psw,	r0
00:0200 05 C0                    3225   	bge	_$L220
                                 3226   
                                 3227   ;;		LEDOUT(0x1u<<2);	// -30<angle(X,1g)<30 & angle(Y,1g)<-30. Turn on LED2
                                 3228   CLINEA 0000H 0001H 044CH 0003H 0048H
00:0202 04 00                    3229   	mov	r0,	#04h
00:0204 11-90 60-F2              3230   	st	r0,	0f260h
                                 3231   
                                 3232   ;;	else if(flSensorOut[0]<-0.5f && -0.5f<flSensorOut[1] && flSensorOut[1]<0.5f)
                                 3233   CLINEA 0000H 0001H 044DH 0002H 004DH
00:0208 00-F0'00-00'             3234   	b	_$L245
00:020C                          3235   _$L220 :
00:020C 12-90 00-00'             3236   	l	er0,	NEAR _flSensorOut
00:0210 12-92 00-00'             3237   	l	er2,	NEAR _flSensorOut+02h
00:0214 6E-F0                    3238   	push	xr0
00:0216 00 E0                    3239   	mov	er0,	#0 
00:0218 00 02                    3240   	mov	r2,	#00h
00:021A BF 03                    3241   	mov	r3,	#0bfh
00:021C 6E-F0                    3242   	push	xr0
00:021E 01-F0'00-00'             3243   	bl	__fcmpu8sw
00:0222 08 E1                    3244   	add	sp,	#8 
00:0224 0B-A0                    3245   	mov	psw,	r0
00:0226 1E C0                    3246   	bge	_$L231
00:0228 00 E0                    3247   	mov	er0,	#0 
00:022A 00 02                    3248   	mov	r2,	#00h
00:022C BF 03                    3249   	mov	r3,	#0bfh
00:022E 6E-F0                    3250   	push	xr0
00:0230 12-90 00-00'             3251   	l	er0,	NEAR _flSensorOut+04h
00:0234 12-92 00-00'             3252   	l	er2,	NEAR _flSensorOut+06h
00:0238 6E-F0                    3253   	push	xr0
00:023A 01-F0'00-00'             3254   	bl	__fcmpu8sw
00:023E 08 E1                    3255   	add	sp,	#8 
00:0240 0B-A0                    3256   	mov	psw,	r0
00:0242 10 C0                    3257   	bge	_$L231
00:0244 12-90 00-00'             3258   	l	er0,	NEAR _flSensorOut+04h
00:0248 6E-F0                    3259   	push	xr0
00:024A 00 E0                    3260   	mov	er0,	#0 
00:024C 00 02                    3261   	mov	r2,	#00h
00:024E 3F 03                    3262   	mov	r3,	#03fh
00:0250 6E-F0                    3263   	push	xr0
00:0252 01-F0'00-00'             3264   	bl	__fcmpu8sw
00:0256 08 E1                    3265   	add	sp,	#8 
00:0258 0B-A0                    3266   	mov	psw,	r0
00:025A 04 C0                    3267   	bge	_$L231
                                 3268   
                                 3269   ;;		LEDOUT(0x1u<<7);	// angle(X,1g)<-30 & -30<angle(Y,1g)<30. Turn on LED7
                                 3270   CLINEA 0000H 0001H 044EH 0003H 0048H
00:025C 80 00                    3271   	mov	r0,	#080h
00:025E 11-90 60-F2              3272   	st	r0,	0f260h
                                 3273   
                                 3274   ;;	else if(flSensorOut[2]>0.5f)
                                 3275   CLINEA 0000H 0001H 044FH 0002H 001DH
00:0262 23 CE                    3276   	bal	_$L245
00:0264                          3277   _$L231 :
00:0264 12-90 00-00'             3278   	l	er0,	NEAR _flSensorOut+08h
00:0268 12-92 00-00'             3279   	l	er2,	NEAR _flSensorOut+0ah
00:026C 6E-F0                    3280   	push	xr0
00:026E 00 E0                    3281   	mov	er0,	#0 
00:0270 00 02                    3282   	mov	r2,	#00h
00:0272 3F 03                    3283   	mov	r3,	#03fh
00:0274 6E-F0                    3284   	push	xr0
00:0276 01-F0'00-00'             3285   	bl	__fcmpu8sw
00:027A 08 E1                    3286   	add	sp,	#8 
00:027C 0B-A0                    3287   	mov	psw,	r0
00:027E 04 C3                    3288   	ble	_$L242
                                 3289   
                                 3290   ;;		LEDOUT(0x1u<<4);	// angle(Z,1g)>30. Turn on LED4
                                 3291   CLINEA 0000H 0001H 0450H 0003H 0032H
00:0280 10 00                    3292   	mov	r0,	#010h
00:0282 11-90 60-F2              3293   	st	r0,	0f260h
                                 3294   
                                 3295   ;;	else if(flSensorOut[2]<-0.5f)
                                 3296   CLINEA 0000H 0001H 0451H 0002H 001EH
00:0286 11 CE                    3297   	bal	_$L245
00:0288                          3298   _$L242 :
00:0288 12-90 00-00'             3299   	l	er0,	NEAR _flSensorOut+08h
00:028C 12-92 00-00'             3300   	l	er2,	NEAR _flSensorOut+0ah
00:0290 6E-F0                    3301   	push	xr0
00:0292 00 E0                    3302   	mov	er0,	#0 
00:0294 00 02                    3303   	mov	r2,	#00h
00:0296 BF 03                    3304   	mov	r3,	#0bfh
00:0298 6E-F0                    3305   	push	xr0
00:029A 01-F0'00-00'             3306   	bl	__fcmpu8sw
00:029E 08 E1                    3307   	add	sp,	#8 
00:02A0 0B-A0                    3308   	mov	psw,	r0
00:02A2 03 C0                    3309   	bge	_$L245
                                 3310   
                                 3311   ;;		LEDOUT(0x1u<<3);	// angle(Z,1g)<-30. Turn on LED3
                                 3312   CLINEA 0000H 0001H 0452H 0003H 0033H
00:02A4 08 00                    3313   	mov	r0,	#08h
00:02A6 11-90 60-F2              3314   	st	r0,	0f260h
00:02AA                          3315   _$L245 :
                                 3316   
                                 3317   ;;	I2C_Read(KMX61_I2C_ADDR, &KMX61_MAG_XOUT_L, 1, uniRawSensorOut._ucharArr, 6);
                                 3318   CLINEA 0000H 0001H 0455H 0002H 004EH
00:02AA 06 00                    3319   	mov	r0,	#06h
00:02AC 4E-F0                    3320   	push	r0
00:02AE 00'00                    3321   	mov	r0,	#BYTE1 OFFSET _uniRawSensorOut
00:02B0 00'01                    3322   	mov	r1,	#BYTE2 OFFSET _uniRawSensorOut
00:02B2 5E-F0                    3323   	push	er0
00:02B4 01 00                    3324   	mov	r0,	#01h
00:02B6 4E-F0                    3325   	push	r0
00:02B8 00'02                    3326   	mov	r2,	#BYTE1 OFFSET _KMX61_MAG_XOUT_L
00:02BA 00'03                    3327   	mov	r3,	#BYTE2 OFFSET _KMX61_MAG_XOUT_L
00:02BC 0E 00                    3328   	mov	r0,	#0eh
00:02BE 01-F0'00-00'             3329   	bl	_I2C_Read
00:02C2 06 E1                    3330   	add	sp,	#6 
                                 3331   
                                 3332   ;;	uniRawSensorOut._intArr[0] = uniRawSensorOut._intArr[0]>>2;
                                 3333   CLINEA 0000H 0001H 0456H 0002H 003CH
00:02C4 12-90 00-00'             3334   	l	er0,	NEAR _uniRawSensorOut
00:02C8 2D-90                    3335   	srlc	r0,	#02h
00:02CA 2E-91                    3336   	sra	r1,	#02h
00:02CC 13-90 00-00'             3337   	st	er0,	NEAR _uniRawSensorOut
                                 3338   
                                 3339   ;;	uniRawSensorOut._intArr[1] = uniRawSensorOut._intArr[1]>>2;
                                 3340   CLINEA 0000H 0001H 0457H 0002H 003CH
00:02D0 12-90 00-00'             3341   	l	er0,	NEAR _uniRawSensorOut+02h
00:02D4 2D-90                    3342   	srlc	r0,	#02h
00:02D6 2E-91                    3343   	sra	r1,	#02h
00:02D8 13-90 00-00'             3344   	st	er0,	NEAR _uniRawSensorOut+02h
                                 3345   
                                 3346   ;;	uniRawSensorOut._intArr[2] = uniRawSensorOut._intArr[2]>>2;
                                 3347   CLINEA 0000H 0001H 0458H 0002H 003CH
00:02DC 12-90 00-00'             3348   	l	er0,	NEAR _uniRawSensorOut+04h
00:02E0 2D-90                    3349   	srlc	r0,	#02h
00:02E2 2E-91                    3350   	sra	r1,	#02h
00:02E4 13-90 00-00'             3351   	st	er0,	NEAR _uniRawSensorOut+04h
                                 3352   
                                 3353   ;;	flSensorOut[0] = (float)uniRawSensorOut._intArr[0]*0.146f;	// X
                                 3354   CLINEA 0000H 0001H 045AH 0002H 0040H
00:02E8 12-90 00-00'             3355   	l	er0,	NEAR _uniRawSensorOut
00:02EC 10-82                    3356   	mov	r2,	r1
00:02EE 2F-83                    3357   	extbw	er2
00:02F0 30-82                    3358   	mov	r2,	r3
00:02F2 6E-F0                    3359   	push	xr0
00:02F4 01-F0'00-00'             3360   	bl	__fildu8sw
00:02F8 06 00                    3361   	mov	r0,	#06h
00:02FA 81 01                    3362   	mov	r1,	#081h
00:02FC 15 02                    3363   	mov	r2,	#015h
00:02FE 3E 03                    3364   	mov	r3,	#03eh
00:0300 6E-F0                    3365   	push	xr0
00:0302 01-F0'00-00'             3366   	bl	__fmulu8sw
00:0306 04 E1                    3367   	add	sp,	#4 
00:0308 2E-F0                    3368   	pop	xr0
00:030A 13-90 00-00'             3369   	st	er0,	NEAR _flSensorOut
00:030E 13-92 00-00'             3370   	st	er2,	NEAR _flSensorOut+02h
                                 3371   
                                 3372   ;;	flSensorOut[1] = (float)uniRawSensorOut._intArr[1]*0.146f;	// Y
                                 3373   CLINEA 0000H 0001H 045BH 0002H 0040H
00:0312 12-90 00-00'             3374   	l	er0,	NEAR _uniRawSensorOut+02h
00:0316 10-82                    3375   	mov	r2,	r1
00:0318 2F-83                    3376   	extbw	er2
00:031A 30-82                    3377   	mov	r2,	r3
00:031C 6E-F0                    3378   	push	xr0
00:031E 01-F0'00-00'             3379   	bl	__fildu8sw
00:0322 06 00                    3380   	mov	r0,	#06h
00:0324 81 01                    3381   	mov	r1,	#081h
00:0326 15 02                    3382   	mov	r2,	#015h
00:0328 3E 03                    3383   	mov	r3,	#03eh
00:032A 6E-F0                    3384   	push	xr0
00:032C 01-F0'00-00'             3385   	bl	__fmulu8sw
00:0330 04 E1                    3386   	add	sp,	#4 
00:0332 2E-F0                    3387   	pop	xr0
00:0334 13-90 00-00'             3388   	st	er0,	NEAR _flSensorOut+04h
00:0338 13-92 00-00'             3389   	st	er2,	NEAR _flSensorOut+06h
                                 3390   
                                 3391   ;;	flSensorOut[2] = (float)uniRawSensorOut._intArr[2]*0.146f;	// Y
                                 3392   CLINEA 0000H 0001H 045CH 0002H 0040H
00:033C 12-90 00-00'             3393   	l	er0,	NEAR _uniRawSensorOut+04h
00:0340 10-82                    3394   	mov	r2,	r1
00:0342 2F-83                    3395   	extbw	er2
00:0344 30-82                    3396   	mov	r2,	r3
00:0346 6E-F0                    3397   	push	xr0
00:0348 01-F0'00-00'             3398   	bl	__fildu8sw
00:034C 06 00                    3399   	mov	r0,	#06h
00:034E 81 01                    3400   	mov	r1,	#081h
00:0350 15 02                    3401   	mov	r2,	#015h
00:0352 3E 03                    3402   	mov	r3,	#03eh
00:0354 6E-F0                    3403   	push	xr0
00:0356 01-F0'00-00'             3404   	bl	__fmulu8sw
00:035A 04 E1                    3405   	add	sp,	#4 
00:035C 2E-F0                    3406   	pop	xr0
00:035E 13-90 00-00'             3407   	st	er0,	NEAR _flSensorOut+08h
00:0362 13-92 00-00'             3408   	st	er2,	NEAR _flSensorOut+0ah
                                 3409   
                                 3410   ;;		uniRawSensorOut._intArr[0], flSensorOut[0], uniRawSensorOut._intArr[1], flSensorOut[1], uniRawSensorOut._intArr[2], flSensorOut[2]);
                                 3411   CLINEA 0000H 0001H 045EH 0003H 0086H
00:0366 6E-F0                    3412   	push	xr0
00:0368 FC E1                    3413   	add	sp,	#-4
00:036A 01-F0'00-00'             3414   	bl	__ftodu8sw
00:036E 12-90 00-00'             3415   	l	er0,	NEAR _uniRawSensorOut+04h
00:0372 5E-F0                    3416   	push	er0
00:0374 12-90 00-00'             3417   	l	er0,	NEAR _flSensorOut+04h
00:0378 12-92 00-00'             3418   	l	er2,	NEAR _flSensorOut+06h
00:037C 6E-F0                    3419   	push	xr0
00:037E FC E1                    3420   	add	sp,	#-4
00:0380 01-F0'00-00'             3421   	bl	__ftodu8sw
00:0384 12-90 00-00'             3422   	l	er0,	NEAR _uniRawSensorOut+02h
00:0388 5E-F0                    3423   	push	er0
00:038A 12-90 00-00'             3424   	l	er0,	NEAR _flSensorOut
00:038E 12-92 00-00'             3425   	l	er2,	NEAR _flSensorOut+02h
00:0392 6E-F0                    3426   	push	xr0
00:0394 FC E1                    3427   	add	sp,	#-4
00:0396 01-F0'00-00'             3428   	bl	__ftodu8sw
00:039A 12-90 00-00'             3429   	l	er0,	NEAR _uniRawSensorOut
00:039E 5E-F0                    3430   	push	er0
00:03A0 00'00                    3431   	mov	r0,	#BYTE1 OFFSET $$S247
00:03A2 00'01                    3432   	mov	r1,	#BYTE2 OFFSET $$S247
00:03A4 5E-F0                    3433   	push	er0
00:03A6 01-F0'00-00'             3434   	bl	_printf_n
00:03AA 20 E1                    3435   	add	sp,	#32
                                 3436   CBLOCKEND 210 2 1119
                                 3437   
                                 3438   ;;}
                                 3439   CLINEA 0000H 0001H 045FH 0001H 0001H
00:03AC 8E-F2                    3440   	pop	pc
                                 3441   CBLOCKEND 210 1 1119
                                 3442   CFUNCTIONEND 210
                                 3443   
                                 3444   
  --------------------------     3445   	rseg $$MainOp_Temperature_Sensor_20$main
                                 3446   CFUNCTION 211
                                 3447   
00:0000                          3448   _MainOp_Temperature_Sensor_20	:
                                 3449   CBLOCK 211 1 1132
                                 3450   
                                 3451   ;;{
                                 3452   CLINEA 0000H 0001H 046CH 0001H 0001H
00:0000 CE-F8                    3453   	push	lr
                                 3454   CBLOCK 211 2 1132
                                 3455   CRET 0000H
                                 3456   
                                 3457   ;;	uniRawSensorOut._uint = ADC_Read(0);
                                 3458   CLINEA 0000H 0000H 046DH 0002H 0025H
00:0002 00 00                    3459   	mov	r0,	#00h
00:0004 01-F0'00-00'             3460   	bl	_ADC_Read
00:0008 13-90 00-00'             3461   	st	er0,	NEAR _uniRawSensorOut
                                 3462   
                                 3463   ;;	flSensorOut[0] = uniRawSensorOut._uint*3.3f/1023;
                                 3464   CLINEA 0000H 0001H 046FH 0002H 0032H
00:000C 00 E2                    3465   	mov	er2,	#0 
00:000E 6E-F0                    3466   	push	xr0
00:0010 01-F0'00-00'             3467   	bl	__fuldu8sw
00:0014 33 00                    3468   	mov	r0,	#033h
00:0016 33 01                    3469   	mov	r1,	#033h
00:0018 53 02                    3470   	mov	r2,	#053h
00:001A 40 03                    3471   	mov	r3,	#040h
00:001C 6E-F0                    3472   	push	xr0
00:001E 01-F0'00-00'             3473   	bl	__fmulu8sw
00:0022 04 E1                    3474   	add	sp,	#4 
00:0024 00 00                    3475   	mov	r0,	#00h
00:0026 C0 01                    3476   	mov	r1,	#0c0h
00:0028 7F 02                    3477   	mov	r2,	#07fh
00:002A 44 03                    3478   	mov	r3,	#044h
00:002C 6E-F0                    3479   	push	xr0
00:002E 01-F0'00-00'             3480   	bl	__fdivu8sw
00:0032 04 E1                    3481   	add	sp,	#4 
00:0034 2E-F0                    3482   	pop	xr0
00:0036 13-90 00-00'             3483   	st	er0,	NEAR _flSensorOut
00:003A 13-92 00-00'             3484   	st	er2,	NEAR _flSensorOut+02h
                                 3485   
                                 3486   ;;	flSensorOut[1] = Voltage2Temperature(flSensorOut[0], 1.3f, 30.0f, -0.0082f);
                                 3487   CLINEA 0000H 0001H 0471H 0002H 004DH
00:003E 6E-F0                    3488   	push	xr0
00:0040 66 00                    3489   	mov	r0,	#066h
00:0042 66 01                    3490   	mov	r1,	#066h
00:0044 A6 02                    3491   	mov	r2,	#0a6h
00:0046 BF 03                    3492   	mov	r3,	#0bfh
00:0048 6E-F0                    3493   	push	xr0
00:004A 01-F0'00-00'             3494   	bl	__faddu8sw
00:004E 04 E1                    3495   	add	sp,	#4 
00:0050 4B 00                    3496   	mov	r0,	#04bh
00:0052 59 01                    3497   	mov	r1,	#059h
00:0054 06 02                    3498   	mov	r2,	#06h
00:0056 BC 03                    3499   	mov	r3,	#0bch
00:0058 6E-F0                    3500   	push	xr0
00:005A 01-F0'00-00'             3501   	bl	__fdivu8sw
00:005E 04 E1                    3502   	add	sp,	#4 
00:0060 00 E0                    3503   	mov	er0,	#0 
00:0062 F0 02                    3504   	mov	r2,	#0f0h
00:0064 41 03                    3505   	mov	r3,	#041h
00:0066 6E-F0                    3506   	push	xr0
00:0068 01-F0'00-00'             3507   	bl	__faddu8sw
00:006C 04 E1                    3508   	add	sp,	#4 
00:006E 2E-F0                    3509   	pop	xr0
00:0070 13-90 00-00'             3510   	st	er0,	NEAR _flSensorOut+04h
00:0074 13-92 00-00'             3511   	st	er2,	NEAR _flSensorOut+06h
                                 3512   
                                 3513   ;;	LEDOUT(((unsigned char)(uniRawSensorOut._uint>>2)));
                                 3514   CLINEA 0000H 0001H 0473H 0002H 0035H
00:0078 12-90 00-00'             3515   	l	er0,	NEAR _uniRawSensorOut
00:007C 2D-90                    3516   	srlc	r0,	#02h
00:007E 11-90 60-F2              3517   	st	r0,	0f260h
                                 3518   
                                 3519   ;;	printf(ESC_ERASE2END "BD1020HFV> Temperature = %.02f[C]. Vsenout = %.02f[V]" ESC_SOL, flSensorOut[1], flSensorOut[0]);
                                 3520   CLINEA 0000H 0001H 0474H 0002H 0079H
00:0082 12-90 00-00'             3521   	l	er0,	NEAR _flSensorOut
00:0086 12-92 00-00'             3522   	l	er2,	NEAR _flSensorOut+02h
00:008A 6E-F0                    3523   	push	xr0
00:008C FC E1                    3524   	add	sp,	#-4
00:008E 01-F0'00-00'             3525   	bl	__ftodu8sw
00:0092 12-90 00-00'             3526   	l	er0,	NEAR _flSensorOut+04h
00:0096 12-92 00-00'             3527   	l	er2,	NEAR _flSensorOut+06h
00:009A 6E-F0                    3528   	push	xr0
00:009C FC E1                    3529   	add	sp,	#-4
00:009E 01-F0'00-00'             3530   	bl	__ftodu8sw
00:00A2 00'00                    3531   	mov	r0,	#BYTE1 OFFSET $$S249
00:00A4 00'01                    3532   	mov	r1,	#BYTE2 OFFSET $$S249
00:00A6 5E-F0                    3533   	push	er0
00:00A8 01-F0'00-00'             3534   	bl	_printf_n
00:00AC 12 E1                    3535   	add	sp,	#18
                                 3536   CBLOCKEND 211 2 1141
                                 3537   
                                 3538   ;;}
                                 3539   CLINEA 0000H 0001H 0475H 0001H 0001H
00:00AE 8E-F2                    3540   	pop	pc
                                 3541   CBLOCKEND 211 1 1141
                                 3542   CFUNCTIONEND 211
                                 3543   
                                 3544   
  --------------------------     3545   	rseg $$MainOp_Temperature_Sensor_21$main
                                 3546   CFUNCTION 212
                                 3547   
00:0000                          3548   _MainOp_Temperature_Sensor_21	:
                                 3549   CBLOCK 212 1 1154
                                 3550   
                                 3551   ;;{
                                 3552   CLINEA 0000H 0001H 0482H 0001H 0001H
00:0000 CE-F8                    3553   	push	lr
                                 3554   CBLOCK 212 2 1154
                                 3555   CRET 0000H
                                 3556   
                                 3557   ;;	uniRawSensorOut._uint = ADC_Read(0);
                                 3558   CLINEA 0000H 0000H 0483H 0002H 0025H
00:0002 00 00                    3559   	mov	r0,	#00h
00:0004 01-F0'00-00'             3560   	bl	_ADC_Read
00:0008 13-90 00-00'             3561   	st	er0,	NEAR _uniRawSensorOut
                                 3562   
                                 3563   ;;	flSensorOut[0] = uniRawSensorOut._uint*3.3f/1023;
                                 3564   CLINEA 0000H 0001H 0485H 0002H 0032H
00:000C 00 E2                    3565   	mov	er2,	#0 
00:000E 6E-F0                    3566   	push	xr0
00:0010 01-F0'00-00'             3567   	bl	__fuldu8sw
00:0014 33 00                    3568   	mov	r0,	#033h
00:0016 33 01                    3569   	mov	r1,	#033h
00:0018 53 02                    3570   	mov	r2,	#053h
00:001A 40 03                    3571   	mov	r3,	#040h
00:001C 6E-F0                    3572   	push	xr0
00:001E 01-F0'00-00'             3573   	bl	__fmulu8sw
00:0022 04 E1                    3574   	add	sp,	#4 
00:0024 00 00                    3575   	mov	r0,	#00h
00:0026 C0 01                    3576   	mov	r1,	#0c0h
00:0028 7F 02                    3577   	mov	r2,	#07fh
00:002A 44 03                    3578   	mov	r3,	#044h
00:002C 6E-F0                    3579   	push	xr0
00:002E 01-F0'00-00'             3580   	bl	__fdivu8sw
00:0032 04 E1                    3581   	add	sp,	#4 
00:0034 2E-F0                    3582   	pop	xr0
00:0036 13-90 00-00'             3583   	st	er0,	NEAR _flSensorOut
00:003A 13-92 00-00'             3584   	st	er2,	NEAR _flSensorOut+02h
                                 3585   
                                 3586   ;;	flSensorOut[1] = Voltage2Temperature(flSensorOut[0], 1.3f, 30.0f, -0.0082f);
                                 3587   CLINEA 0000H 0001H 0487H 0002H 004DH
00:003E 6E-F0                    3588   	push	xr0
00:0040 66 00                    3589   	mov	r0,	#066h
00:0042 66 01                    3590   	mov	r1,	#066h
00:0044 A6 02                    3591   	mov	r2,	#0a6h
00:0046 BF 03                    3592   	mov	r3,	#0bfh
00:0048 6E-F0                    3593   	push	xr0
00:004A 01-F0'00-00'             3594   	bl	__faddu8sw
00:004E 04 E1                    3595   	add	sp,	#4 
00:0050 4B 00                    3596   	mov	r0,	#04bh
00:0052 59 01                    3597   	mov	r1,	#059h
00:0054 06 02                    3598   	mov	r2,	#06h
00:0056 BC 03                    3599   	mov	r3,	#0bch
00:0058 6E-F0                    3600   	push	xr0
00:005A 01-F0'00-00'             3601   	bl	__fdivu8sw
00:005E 04 E1                    3602   	add	sp,	#4 
00:0060 00 E0                    3603   	mov	er0,	#0 
00:0062 F0 02                    3604   	mov	r2,	#0f0h
00:0064 41 03                    3605   	mov	r3,	#041h
00:0066 6E-F0                    3606   	push	xr0
00:0068 01-F0'00-00'             3607   	bl	__faddu8sw
00:006C 04 E1                    3608   	add	sp,	#4 
00:006E 2E-F0                    3609   	pop	xr0
00:0070 13-90 00-00'             3610   	st	er0,	NEAR _flSensorOut+04h
00:0074 13-92 00-00'             3611   	st	er2,	NEAR _flSensorOut+06h
                                 3612   
                                 3613   ;;	LEDOUT(ReverseBits((unsigned char)(uniRawSensorOut._uint>>3)));
                                 3614   CLINEA 0000H 0000H 0489H 0002H 0040H
00:0078 12-90 00-00'             3615   	l	er0,	NEAR _uniRawSensorOut
00:007C 3D-90                    3616   	srlc	r0,	#03h
00:007E 01-F0'00-00'             3617   	bl	_ReverseBits
00:0082 11-90 60-F2              3618   	st	r0,	0f260h
                                 3619   
                                 3620   ;;	printf(ESC_ERASE2END "BDJ0601HFV> Temperature = %.02f[C]. Vsenout = %.02f[V]", flSensorOut[1], flSensorOut[0]);
                                 3621   CLINEA 0000H 0001H 048AH 0002H 0072H
00:0086 12-90 00-00'             3622   	l	er0,	NEAR _flSensorOut
00:008A 12-92 00-00'             3623   	l	er2,	NEAR _flSensorOut+02h
00:008E 6E-F0                    3624   	push	xr0
00:0090 FC E1                    3625   	add	sp,	#-4
00:0092 01-F0'00-00'             3626   	bl	__ftodu8sw
00:0096 12-90 00-00'             3627   	l	er0,	NEAR _flSensorOut+04h
00:009A 12-92 00-00'             3628   	l	er2,	NEAR _flSensorOut+06h
00:009E 6E-F0                    3629   	push	xr0
00:00A0 FC E1                    3630   	add	sp,	#-4
00:00A2 01-F0'00-00'             3631   	bl	__ftodu8sw
00:00A6 00'00                    3632   	mov	r0,	#BYTE1 OFFSET $$S251
00:00A8 00'01                    3633   	mov	r1,	#BYTE2 OFFSET $$S251
00:00AA 5E-F0                    3634   	push	er0
00:00AC 01-F0'00-00'             3635   	bl	_printf_n
00:00B0 12 E1                    3636   	add	sp,	#18
                                 3637   
                                 3638   ;;	if(SENINTF_HDR1_GPIO0(D)==1)
                                 3639   CLINEA 0000H 0001H 048BH 0002H 001DH
00:00B2 A1-A0 58-F2              3640   	tb	0f258h.2
00:00B6 08 C9                    3641   	beq	_$L252
                                 3642   
                                 3643   ;;		PRINTF(ESC_NEWLINE "BDJ0601HFV> Temperature Threshold Reached." ESC_PREVLINE);
                                 3644   CLINEA 0000H 0001H 048CH 0003H 0050H
00:00B8 30 E0                    3645   	mov	er0,	#48
00:00BA 5E-F0                    3646   	push	er0
00:00BC 00'02                    3647   	mov	r2,	#BYTE1 OFFSET $$S254
00:00BE 00'03                    3648   	mov	r3,	#BYTE2 OFFSET $$S254
00:00C0 00 E0                    3649   	mov	er0,	#0 
00:00C2 01-F0'00-00'             3650   	bl	_write
                                 3651   
                                 3652   ;;	else
                                 3653   CLINEA 0000H 0001H 048DH 0002H 0005H
00:00C6 07 CE                    3654   	bal	_$L255
00:00C8                          3655   _$L252 :
                                 3656   
                                 3657   ;;		PRINTF(ESC_NEWLINE "BDJ0601HFV> Temperature Threshold Not Reached." ESC_PREVLINE);
                                 3658   CLINEA 0000H 0001H 048EH 0003H 0054H
00:00C8 34 E0                    3659   	mov	er0,	#52
00:00CA 5E-F0                    3660   	push	er0
00:00CC 00'02                    3661   	mov	r2,	#BYTE1 OFFSET $$S256
00:00CE 00'03                    3662   	mov	r3,	#BYTE2 OFFSET $$S256
00:00D0 00 E0                    3663   	mov	er0,	#0 
00:00D2 01-F0'00-00'             3664   	bl	_write
00:00D6                          3665   _$L255 :
00:00D6 02 E1                    3666   	add	sp,	#2 
                                 3667   CBLOCKEND 212 2 1167
                                 3668   
                                 3669   ;;}
                                 3670   CLINEA 0000H 0001H 048FH 0001H 0001H
00:00D8 8E-F2                    3671   	pop	pc
                                 3672   CBLOCKEND 212 1 1167
                                 3673   CFUNCTIONEND 212
                                 3674   
                                 3675   
  --------------------------     3676   	rseg $$MainOp_Temperature_Sensor_22$main
                                 3677   CFUNCTION 213
                                 3678   
00:0000                          3679   _MainOp_Temperature_Sensor_22	:
                                 3680   CBLOCK 213 1 1180
                                 3681   
                                 3682   ;;{
                                 3683   CLINEA 0000H 0001H 049CH 0001H 0001H
00:0000 CE-F8                    3684   	push	lr
                                 3685   CBLOCK 213 2 1180
                                 3686   CRET 0000H
                                 3687   
                                 3688   ;;	uniRawSensorOut._uint = ADC_Read(0);
                                 3689   CLINEA 0000H 0000H 049DH 0002H 0025H
00:0002 00 00                    3690   	mov	r0,	#00h
00:0004 01-F0'00-00'             3691   	bl	_ADC_Read
00:0008 13-90 00-00'             3692   	st	er0,	NEAR _uniRawSensorOut
                                 3693   
                                 3694   ;;	flSensorOut[0] = uniRawSensorOut._uint*3.3f/1023;
                                 3695   CLINEA 0000H 0001H 049FH 0002H 0032H
00:000C 00 E2                    3696   	mov	er2,	#0 
00:000E 6E-F0                    3697   	push	xr0
00:0010 01-F0'00-00'             3698   	bl	__fuldu8sw
00:0014 33 00                    3699   	mov	r0,	#033h
00:0016 33 01                    3700   	mov	r1,	#033h
00:0018 53 02                    3701   	mov	r2,	#053h
00:001A 40 03                    3702   	mov	r3,	#040h
00:001C 6E-F0                    3703   	push	xr0
00:001E 01-F0'00-00'             3704   	bl	__fmulu8sw
00:0022 04 E1                    3705   	add	sp,	#4 
00:0024 00 00                    3706   	mov	r0,	#00h
00:0026 C0 01                    3707   	mov	r1,	#0c0h
00:0028 7F 02                    3708   	mov	r2,	#07fh
00:002A 44 03                    3709   	mov	r3,	#044h
00:002C 6E-F0                    3710   	push	xr0
00:002E 01-F0'00-00'             3711   	bl	__fdivu8sw
00:0032 04 E1                    3712   	add	sp,	#4 
00:0034 2E-F0                    3713   	pop	xr0
00:0036 13-90 00-00'             3714   	st	er0,	NEAR _flSensorOut
00:003A 13-92 00-00'             3715   	st	er2,	NEAR _flSensorOut+02h
                                 3716   
                                 3717   ;;	flSensorOut[1] = Voltage2Temperature(flSensorOut[0], 1.753f, 30.0f, -0.01068f);
                                 3718   CLINEA 0000H 0001H 04A1H 0002H 0050H
00:003E 6E-F0                    3719   	push	xr0
00:0040 4E 00                    3720   	mov	r0,	#04eh
00:0042 62 01                    3721   	mov	r1,	#062h
00:0044 E0 02                    3722   	mov	r2,	#0e0h
00:0046 BF 03                    3723   	mov	r3,	#0bfh
00:0048 6E-F0                    3724   	push	xr0
00:004A 01-F0'00-00'             3725   	bl	__faddu8sw
00:004E 04 E1                    3726   	add	sp,	#4 
00:0050 2B 00                    3727   	mov	r0,	#02bh
00:0052 FB 01                    3728   	mov	r1,	#0fbh
00:0054 2E 02                    3729   	mov	r2,	#02eh
00:0056 BC 03                    3730   	mov	r3,	#0bch
00:0058 6E-F0                    3731   	push	xr0
00:005A 01-F0'00-00'             3732   	bl	__fdivu8sw
00:005E 04 E1                    3733   	add	sp,	#4 
00:0060 00 E0                    3734   	mov	er0,	#0 
00:0062 F0 02                    3735   	mov	r2,	#0f0h
00:0064 41 03                    3736   	mov	r3,	#041h
00:0066 6E-F0                    3737   	push	xr0
00:0068 01-F0'00-00'             3738   	bl	__faddu8sw
00:006C 04 E1                    3739   	add	sp,	#4 
00:006E 2E-F0                    3740   	pop	xr0
00:0070 13-90 00-00'             3741   	st	er0,	NEAR _flSensorOut+04h
00:0074 13-92 00-00'             3742   	st	er2,	NEAR _flSensorOut+06h
                                 3743   
                                 3744   ;;	LEDOUT(ReverseBits((unsigned char)(uniRawSensorOut._uint>>3)));
                                 3745   CLINEA 0000H 0000H 04A3H 0002H 0040H
00:0078 12-90 00-00'             3746   	l	er0,	NEAR _uniRawSensorOut
00:007C 3D-90                    3747   	srlc	r0,	#03h
00:007E 01-F0'00-00'             3748   	bl	_ReverseBits
00:0082 11-90 60-F2              3749   	st	r0,	0f260h
                                 3750   
                                 3751   ;;	printf(ESC_ERASE2END "BDE0600G> Temperature = %.02f[C]. Vsenout = %.02f[V]", flSensorOut[1], flSensorOut[0]);
                                 3752   CLINEA 0000H 0001H 04A4H 0002H 0070H
00:0086 12-90 00-00'             3753   	l	er0,	NEAR _flSensorOut
00:008A 12-92 00-00'             3754   	l	er2,	NEAR _flSensorOut+02h
00:008E 6E-F0                    3755   	push	xr0
00:0090 FC E1                    3756   	add	sp,	#-4
00:0092 01-F0'00-00'             3757   	bl	__ftodu8sw
00:0096 12-90 00-00'             3758   	l	er0,	NEAR _flSensorOut+04h
00:009A 12-92 00-00'             3759   	l	er2,	NEAR _flSensorOut+06h
00:009E 6E-F0                    3760   	push	xr0
00:00A0 FC E1                    3761   	add	sp,	#-4
00:00A2 01-F0'00-00'             3762   	bl	__ftodu8sw
00:00A6 00'00                    3763   	mov	r0,	#BYTE1 OFFSET $$S258
00:00A8 00'01                    3764   	mov	r1,	#BYTE2 OFFSET $$S258
00:00AA 5E-F0                    3765   	push	er0
00:00AC 01-F0'00-00'             3766   	bl	_printf_n
00:00B0 12 E1                    3767   	add	sp,	#18
                                 3768   
                                 3769   ;;	if(SENINTF_HDR1_GPIO0(D)==0)
                                 3770   CLINEA 0000H 0001H 04A5H 0002H 001DH
00:00B2 A1-A0 58-F2              3771   	tb	0f258h.2
00:00B6 08 C8                    3772   	bne	_$L259
                                 3773   
                                 3774   ;;		PRINTF(ESC_NEWLINE "BDE0600G> Temperature Threshold Reached." ESC_PREVLINE);
                                 3775   CLINEA 0000H 0001H 04A6H 0003H 004EH
00:00B8 2E E0                    3776   	mov	er0,	#46
00:00BA 5E-F0                    3777   	push	er0
00:00BC 00'02                    3778   	mov	r2,	#BYTE1 OFFSET $$S261
00:00BE 00'03                    3779   	mov	r3,	#BYTE2 OFFSET $$S261
00:00C0 00 E0                    3780   	mov	er0,	#0 
00:00C2 01-F0'00-00'             3781   	bl	_write
                                 3782   
                                 3783   ;;	else
                                 3784   CLINEA 0000H 0001H 04A7H 0002H 0005H
00:00C6 07 CE                    3785   	bal	_$L262
00:00C8                          3786   _$L259 :
                                 3787   
                                 3788   ;;		PRINTF(ESC_NEWLINE "BDE0600G> Temperature Threshold Not Reached." ESC_PREVLINE);
                                 3789   CLINEA 0000H 0001H 04A8H 0003H 0052H
00:00C8 32 E0                    3790   	mov	er0,	#50
00:00CA 5E-F0                    3791   	push	er0
00:00CC 00'02                    3792   	mov	r2,	#BYTE1 OFFSET $$S263
00:00CE 00'03                    3793   	mov	r3,	#BYTE2 OFFSET $$S263
00:00D0 00 E0                    3794   	mov	er0,	#0 
00:00D2 01-F0'00-00'             3795   	bl	_write
00:00D6                          3796   _$L262 :
00:00D6 02 E1                    3797   	add	sp,	#2 
                                 3798   CBLOCKEND 213 2 1193
                                 3799   
                                 3800   ;;}
                                 3801   CLINEA 0000H 0001H 04A9H 0001H 0001H
00:00D8 8E-F2                    3802   	pop	pc
                                 3803   CBLOCKEND 213 1 1193
                                 3804   CFUNCTIONEND 213
                                 3805   
                                 3806   
  --------------------------     3807   	rseg $$MainOp_Temperature_Sensor_23$main
                                 3808   CFUNCTION 214
                                 3809   
00:0000                          3810   _MainOp_Temperature_Sensor_23	:
                                 3811   CBLOCK 214 1 1206
                                 3812   
                                 3813   ;;{
                                 3814   CLINEA 0000H 0001H 04B6H 0001H 0001H
00:0000 CE-F8                    3815   	push	lr
                                 3816   CBLOCK 214 2 1206
                                 3817   CRET 0000H
                                 3818   
                                 3819   ;;	uniRawSensorOut._uint = ADC_Read(0);
                                 3820   CLINEA 0000H 0000H 04B7H 0002H 0025H
00:0002 00 00                    3821   	mov	r0,	#00h
00:0004 01-F0'00-00'             3822   	bl	_ADC_Read
00:0008 13-90 00-00'             3823   	st	er0,	NEAR _uniRawSensorOut
                                 3824   
                                 3825   ;;	flSensorOut[0] = uniRawSensorOut._uint*3.3f/1023;
                                 3826   CLINEA 0000H 0001H 04B9H 0002H 0032H
00:000C 00 E2                    3827   	mov	er2,	#0 
00:000E 6E-F0                    3828   	push	xr0
00:0010 01-F0'00-00'             3829   	bl	__fuldu8sw
00:0014 33 00                    3830   	mov	r0,	#033h
00:0016 33 01                    3831   	mov	r1,	#033h
00:0018 53 02                    3832   	mov	r2,	#053h
00:001A 40 03                    3833   	mov	r3,	#040h
00:001C 6E-F0                    3834   	push	xr0
00:001E 01-F0'00-00'             3835   	bl	__fmulu8sw
00:0022 04 E1                    3836   	add	sp,	#4 
00:0024 00 00                    3837   	mov	r0,	#00h
00:0026 C0 01                    3838   	mov	r1,	#0c0h
00:0028 7F 02                    3839   	mov	r2,	#07fh
00:002A 44 03                    3840   	mov	r3,	#044h
00:002C 6E-F0                    3841   	push	xr0
00:002E 01-F0'00-00'             3842   	bl	__fdivu8sw
00:0032 04 E1                    3843   	add	sp,	#4 
00:0034 2E-F0                    3844   	pop	xr0
00:0036 13-90 00-00'             3845   	st	er0,	NEAR _flSensorOut
00:003A 13-92 00-00'             3846   	st	er2,	NEAR _flSensorOut+02h
                                 3847   
                                 3848   ;;	flSensorOut[1] = Voltage2Temperature(flSensorOut[0], 1.3f, 30.0f, -0.0082f);
                                 3849   CLINEA 0000H 0001H 04BBH 0002H 004DH
00:003E 6E-F0                    3850   	push	xr0
00:0040 66 00                    3851   	mov	r0,	#066h
00:0042 66 01                    3852   	mov	r1,	#066h
00:0044 A6 02                    3853   	mov	r2,	#0a6h
00:0046 BF 03                    3854   	mov	r3,	#0bfh
00:0048 6E-F0                    3855   	push	xr0
00:004A 01-F0'00-00'             3856   	bl	__faddu8sw
00:004E 04 E1                    3857   	add	sp,	#4 
00:0050 4B 00                    3858   	mov	r0,	#04bh
00:0052 59 01                    3859   	mov	r1,	#059h
00:0054 06 02                    3860   	mov	r2,	#06h
00:0056 BC 03                    3861   	mov	r3,	#0bch
00:0058 6E-F0                    3862   	push	xr0
00:005A 01-F0'00-00'             3863   	bl	__fdivu8sw
00:005E 04 E1                    3864   	add	sp,	#4 
00:0060 00 E0                    3865   	mov	er0,	#0 
00:0062 F0 02                    3866   	mov	r2,	#0f0h
00:0064 41 03                    3867   	mov	r3,	#041h
00:0066 6E-F0                    3868   	push	xr0
00:0068 01-F0'00-00'             3869   	bl	__faddu8sw
00:006C 04 E1                    3870   	add	sp,	#4 
00:006E 2E-F0                    3871   	pop	xr0
00:0070 13-90 00-00'             3872   	st	er0,	NEAR _flSensorOut+04h
00:0074 13-92 00-00'             3873   	st	er2,	NEAR _flSensorOut+06h
                                 3874   
                                 3875   ;;	LEDOUT(ReverseBits((unsigned char)(uniRawSensorOut._uint>>3)));
                                 3876   CLINEA 0000H 0000H 04BDH 0002H 0040H
00:0078 12-90 00-00'             3877   	l	er0,	NEAR _uniRawSensorOut
00:007C 3D-90                    3878   	srlc	r0,	#03h
00:007E 01-F0'00-00'             3879   	bl	_ReverseBits
00:0082 11-90 60-F2              3880   	st	r0,	0f260h
                                 3881   
                                 3882   ;;	printf(ESC_ERASE2END "BDJ0550HFV> Temperature = %.02f[C]. Vsenout = %.02f[V]", flSensorOut[1], flSensorOut[0]);
                                 3883   CLINEA 0000H 0001H 04BEH 0002H 0072H
00:0086 12-90 00-00'             3884   	l	er0,	NEAR _flSensorOut
00:008A 12-92 00-00'             3885   	l	er2,	NEAR _flSensorOut+02h
00:008E 6E-F0                    3886   	push	xr0
00:0090 FC E1                    3887   	add	sp,	#-4
00:0092 01-F0'00-00'             3888   	bl	__ftodu8sw
00:0096 12-90 00-00'             3889   	l	er0,	NEAR _flSensorOut+04h
00:009A 12-92 00-00'             3890   	l	er2,	NEAR _flSensorOut+06h
00:009E 6E-F0                    3891   	push	xr0
00:00A0 FC E1                    3892   	add	sp,	#-4
00:00A2 01-F0'00-00'             3893   	bl	__ftodu8sw
00:00A6 00'00                    3894   	mov	r0,	#BYTE1 OFFSET $$S265
00:00A8 00'01                    3895   	mov	r1,	#BYTE2 OFFSET $$S265
00:00AA 5E-F0                    3896   	push	er0
00:00AC 01-F0'00-00'             3897   	bl	_printf_n
00:00B0 12 E1                    3898   	add	sp,	#18
                                 3899   
                                 3900   ;;	if(SENINTF_HDR1_GPIO0(D)==0)
                                 3901   CLINEA 0000H 0001H 04BFH 0002H 001DH
00:00B2 A1-A0 58-F2              3902   	tb	0f258h.2
00:00B6 08 C8                    3903   	bne	_$L266
                                 3904   
                                 3905   ;;		PRINTF(ESC_NEWLINE "BDJ0550HFV> Temperature Threshold Reached." ESC_PREVLINE);
                                 3906   CLINEA 0000H 0001H 04C0H 0003H 0050H
00:00B8 30 E0                    3907   	mov	er0,	#48
00:00BA 5E-F0                    3908   	push	er0
00:00BC 00'02                    3909   	mov	r2,	#BYTE1 OFFSET $$S268
00:00BE 00'03                    3910   	mov	r3,	#BYTE2 OFFSET $$S268
00:00C0 00 E0                    3911   	mov	er0,	#0 
00:00C2 01-F0'00-00'             3912   	bl	_write
                                 3913   
                                 3914   ;;	else
                                 3915   CLINEA 0000H 0001H 04C1H 0002H 0005H
00:00C6 07 CE                    3916   	bal	_$L269
00:00C8                          3917   _$L266 :
                                 3918   
                                 3919   ;;		PRINTF(ESC_NEWLINE "BDJ0550HFV> Temperature Threshold Not Reached." ESC_PREVLINE);
                                 3920   CLINEA 0000H 0001H 04C2H 0003H 0054H
00:00C8 34 E0                    3921   	mov	er0,	#52
00:00CA 5E-F0                    3922   	push	er0
00:00CC 00'02                    3923   	mov	r2,	#BYTE1 OFFSET $$S270
00:00CE 00'03                    3924   	mov	r3,	#BYTE2 OFFSET $$S270
00:00D0 00 E0                    3925   	mov	er0,	#0 
00:00D2 01-F0'00-00'             3926   	bl	_write
00:00D6                          3927   _$L269 :
00:00D6 02 E1                    3928   	add	sp,	#2 
                                 3929   CBLOCKEND 214 2 1219
                                 3930   
                                 3931   ;;}
                                 3932   CLINEA 0000H 0001H 04C3H 0001H 0001H
00:00D8 8E-F2                    3933   	pop	pc
                                 3934   CBLOCKEND 214 1 1219
                                 3935   CFUNCTIONEND 214
                                 3936   
                                 3937   
  --------------------------     3938   	rseg $$Init_Hall_Effect_Sensors_1$main
                                 3939   CFUNCTION 216
                                 3940   
00:0000                          3941   _Init_Hall_Effect_Sensors_1	:
                                 3942   CBLOCK 216 1 1232
                                 3943   
                                 3944   ;;{
                                 3945   CLINEA 0000H 0001H 04D0H 0001H 0001H
                                 3946   CBLOCK 216 2 1232
                                 3947   
                                 3948   ;;	SENINTF_HDR1_GPIO0(DIR) = 1;
                                 3949   CLINEA 0000H 0001H 04D2H 0002H 001DH
00:0000 A0-A0 59-F2              3950   	sb	0f259h.2
                                 3951   
                                 3952   ;;	SENINTF_HDR1_GPIO1(DIR) = 1;
                                 3953   CLINEA 0000H 0001H 04D3H 0002H 001DH
00:0004 B0-A0 59-F2              3954   	sb	0f259h.3
                                 3955   
                                 3956   ;;	SENINTF_HDR1_GPIO0(C0) = 0;
                                 3957   CLINEA 0000H 0001H 04D5H 0002H 001CH
00:0008 A2-A0 5A-F2              3958   	rb	0f25ah.2
                                 3959   
                                 3960   ;;	SENINTF_HDR1_GPIO0(C1) = 1;
                                 3961   CLINEA 0000H 0001H 04D6H 0002H 001CH
00:000C A0-A0 5B-F2              3962   	sb	0f25bh.2
                                 3963   
                                 3964   ;;	SENINTF_HDR1_GPIO1(C0) = 0;
                                 3965   CLINEA 0000H 0001H 04D7H 0002H 001CH
00:0010 B2-A0 5A-F2              3966   	rb	0f25ah.3
                                 3967   
                                 3968   ;;	SENINTF_HDR1_GPIO1(C1) = 1;
                                 3969   CLINEA 0000H 0001H 04D8H 0002H 001CH
00:0014 B0-A0 5B-F2              3970   	sb	0f25bh.3
                                 3971   
                                 3972   ;;	SENINTF_HDR1_GPIO0(MD0) = 0;
                                 3973   CLINEA 0000H 0001H 04DAH 0002H 001DH
00:0018 A2-A0 5C-F2              3974   	rb	0f25ch.2
                                 3975   
                                 3976   ;;	SENINTF_HDR1_GPIO0(MD1) = 0;
                                 3977   CLINEA 0000H 0001H 04DBH 0002H 001DH
00:001C A2-A0 5D-F2              3978   	rb	0f25dh.2
                                 3979   
                                 3980   ;;	SENINTF_HDR1_GPIO1(MD0) = 0;
                                 3981   CLINEA 0000H 0001H 04DCH 0002H 001DH
00:0020 B2-A0 5C-F2              3982   	rb	0f25ch.3
                                 3983   
                                 3984   ;;	SENINTF_HDR1_GPIO1(MD1) = 0;
                                 3985   CLINEA 0000H 0001H 04DDH 0002H 001DH
00:0024 B2-A0 5D-F2              3986   	rb	0f25dh.3
                                 3987   CBLOCKEND 216 2 1246
                                 3988   
                                 3989   ;;}
                                 3990   CLINEA 0000H 0001H 04DEH 0001H 0001H
00:0028 1F-FE                    3991   	rt
                                 3992   CBLOCKEND 216 1 1246
                                 3993   CFUNCTIONEND 216
                                 3994   
                                 3995   
  --------------------------     3996   	rseg $$Init_Hall_Effect_Sensors_2$main
                                 3997   CFUNCTION 215
                                 3998   
00:0000                          3999   _Init_Hall_Effect_Sensors_2	:
                                 4000   CBLOCK 215 1 1259
                                 4001   
                                 4002   ;;{
                                 4003   CLINEA 0000H 0001H 04EBH 0001H 0001H
                                 4004   CBLOCK 215 2 1259
                                 4005   
                                 4006   ;;	SENINTF_HDR1_GPIO0(DIR) = 1;
                                 4007   CLINEA 0000H 0001H 04EDH 0002H 001DH
00:0000 A0-A0 59-F2              4008   	sb	0f259h.2
                                 4009   
                                 4010   ;;	SENINTF_HDR1_GPIO0(C0) = 0;
                                 4011   CLINEA 0000H 0001H 04EFH 0002H 001CH
00:0004 A2-A0 5A-F2              4012   	rb	0f25ah.2
                                 4013   
                                 4014   ;;	SENINTF_HDR1_GPIO0(C1) = 1;
                                 4015   CLINEA 0000H 0001H 04F0H 0002H 001CH
00:0008 A0-A0 5B-F2              4016   	sb	0f25bh.2
                                 4017   
                                 4018   ;;	SENINTF_HDR1_GPIO0(MD0) = 0;
                                 4019   CLINEA 0000H 0001H 04F2H 0002H 001DH
00:000C A2-A0 5C-F2              4020   	rb	0f25ch.2
                                 4021   
                                 4022   ;;	SENINTF_HDR1_GPIO0(MD1) = 0;
                                 4023   CLINEA 0000H 0001H 04F3H 0002H 001DH
00:0010 A2-A0 5D-F2              4024   	rb	0f25dh.2
                                 4025   CBLOCKEND 215 2 1268
                                 4026   
                                 4027   ;;}
                                 4028   CLINEA 0000H 0001H 04F4H 0001H 0001H
00:0014 1F-FE                    4029   	rt
                                 4030   CBLOCKEND 215 1 1268
                                 4031   CFUNCTIONEND 215
                                 4032   
                                 4033   
  --------------------------     4034   	rseg $$Init_Ambient_Light_Sensor_5$main
                                 4035   CFUNCTION 217
                                 4036   
00:0000                          4037   _Init_Ambient_Light_Sensor_5	:
                                 4038   CBLOCK 217 1 1281
                                 4039   
                                 4040   ;;{
                                 4041   CLINEA 0000H 0001H 0501H 0001H 0001H
                                 4042   CBLOCK 217 2 1281
                                 4043   
                                 4044   ;;	SENINTF_HDR1_GPIO0(DIR) = 1;
                                 4045   CLINEA 0000H 0001H 0503H 0002H 001DH
00:0000 A0-A0 59-F2              4046   	sb	0f259h.2
                                 4047   
                                 4048   ;;	SENINTF_HDR1_GPIO1(DIR) = 1;
                                 4049   CLINEA 0000H 0001H 0504H 0002H 001DH
00:0004 B0-A0 59-F2              4050   	sb	0f259h.3
                                 4051   
                                 4052   ;;	SENINTF_HDR1_GPIO0(C0) = 0;
                                 4053   CLINEA 0000H 0001H 0506H 0002H 001CH
00:0008 A2-A0 5A-F2              4054   	rb	0f25ah.2
                                 4055   
                                 4056   ;;	SENINTF_HDR1_GPIO0(C1) = 1;
                                 4057   CLINEA 0000H 0001H 0507H 0002H 001CH
00:000C A0-A0 5B-F2              4058   	sb	0f25bh.2
                                 4059   
                                 4060   ;;	SENINTF_HDR1_GPIO1(C0) = 0;
                                 4061   CLINEA 0000H 0001H 0508H 0002H 001CH
00:0010 B2-A0 5A-F2              4062   	rb	0f25ah.3
                                 4063   
                                 4064   ;;	SENINTF_HDR1_GPIO1(C1) = 1;
                                 4065   CLINEA 0000H 0001H 0509H 0002H 001CH
00:0014 B0-A0 5B-F2              4066   	sb	0f25bh.3
                                 4067   
                                 4068   ;;	SENINTF_HDR1_GPIO0(MD0) = 0;
                                 4069   CLINEA 0000H 0001H 050BH 0002H 001DH
00:0018 A2-A0 5C-F2              4070   	rb	0f25ch.2
                                 4071   
                                 4072   ;;	SENINTF_HDR1_GPIO0(MD1) = 0;
                                 4073   CLINEA 0000H 0001H 050CH 0002H 001DH
00:001C A2-A0 5D-F2              4074   	rb	0f25dh.2
                                 4075   
                                 4076   ;;	SENINTF_HDR1_GPIO1(MD0) = 0;
                                 4077   CLINEA 0000H 0001H 050DH 0002H 001DH
00:0020 B2-A0 5C-F2              4078   	rb	0f25ch.3
                                 4079   
                                 4080   ;;	SENINTF_HDR1_GPIO1(MD1) = 0;
                                 4081   CLINEA 0000H 0001H 050EH 0002H 001DH
00:0024 B2-A0 5D-F2              4082   	rb	0f25dh.3
                                 4083   CBLOCKEND 217 2 1295
                                 4084   
                                 4085   ;;}
                                 4086   CLINEA 0000H 0001H 050FH 0001H 0001H
00:0028 1F-FE                    4087   	rt
                                 4088   CBLOCKEND 217 1 1295
                                 4089   CFUNCTIONEND 217
                                 4090   
                                 4091   
  --------------------------     4092   	rseg $$Init_Ambient_Light_Sensor_6$main
                                 4093   CFUNCTION 218
                                 4094   
00:0000                          4095   _Init_Ambient_Light_Sensor_6	:
                                 4096   CBLOCK 218 1 1308
                                 4097   
                                 4098   ;;{
                                 4099   CLINEA 0000H 0001H 051CH 0001H 0001H
00:0000 CE-F8                    4100   	push	lr
                                 4101   CBLOCK 218 2 1308
                                 4102   CRET 0000H
                                 4103   
                                 4104   ;;	I2C_Write(BH17xxFVC_ADDR_1, NULL, 0, &BH17xxFVC_PWR_ON, 1);
                                 4105   CLINEA 0000H 0001H 051EH 0002H 003CH
00:0002 01 00                    4106   	mov	r0,	#01h
00:0004 4E-F0                    4107   	push	r0
00:0006 00'00                    4108   	mov	r0,	#BYTE1 OFFSET _BH17xxFVC_PWR_ON
00:0008 00'01                    4109   	mov	r1,	#BYTE2 OFFSET _BH17xxFVC_PWR_ON
00:000A 5E-F0                    4110   	push	er0
00:000C 00 00                    4111   	mov	r0,	#00h
00:000E 4E-F0                    4112   	push	r0
00:0010 00 E2                    4113   	mov	er2,	#0 
00:0012 23 00                    4114   	mov	r0,	#023h
00:0014 01-F0'00-00'             4115   	bl	_I2C_Write
00:0018 06 E1                    4116   	add	sp,	#6 
                                 4117   
                                 4118   ;;	I2C_Write(BH17xxFVC_ADDR_1, NULL, 0, &BH1710FVC_CONT_M_RES_MOD, 1);
                                 4119   CLINEA 0000H 0001H 0520H 0002H 0044H
00:001A 01 00                    4120   	mov	r0,	#01h
00:001C 4E-F0                    4121   	push	r0
00:001E 00'00                    4122   	mov	r0,	#BYTE1 OFFSET _BH1710FVC_CONT_M_RES_MOD
00:0020 00'01                    4123   	mov	r1,	#BYTE2 OFFSET _BH1710FVC_CONT_M_RES_MOD
00:0022 5E-F0                    4124   	push	er0
00:0024 00 00                    4125   	mov	r0,	#00h
00:0026 4E-F0                    4126   	push	r0
00:0028 00 E2                    4127   	mov	er2,	#0 
00:002A 23 00                    4128   	mov	r0,	#023h
00:002C 01-F0'00-00'             4129   	bl	_I2C_Write
00:0030 06 E1                    4130   	add	sp,	#6 
                                 4131   
                                 4132   ;;	NOPms(24);
                                 4133   CLINEA 0000H 0001H 0525H 0002H 000BH
00:0032 18 E0                    4134   	mov	er0,	#24
00:0034 01-F0'00-00'             4135   	bl	_NOPms
                                 4136   CBLOCKEND 218 2 1318
                                 4137   
                                 4138   ;;}
                                 4139   CLINEA 0000H 0001H 0526H 0001H 0001H
00:0038 8E-F2                    4140   	pop	pc
                                 4141   CBLOCKEND 218 1 1318
                                 4142   CFUNCTIONEND 218
                                 4143   
                                 4144   
  --------------------------     4145   	rseg $$Init_Ambient_Light_Sensor_7$main
                                 4146   CFUNCTION 219
                                 4147   
00:0000                          4148   _Init_Ambient_Light_Sensor_7	:
                                 4149   CBLOCK 219 1 1331
                                 4150   
                                 4151   ;;{
                                 4152   CLINEA 0000H 0001H 0533H 0001H 0001H
00:0000 CE-F8                    4153   	push	lr
00:0002 5E-FE                    4154   	push	fp
00:0004 1A-AE                    4155   	mov	fp,	sp
00:0006 FE E1                    4156   	add	sp,	#-02
                                 4157   CBLOCK 219 2 1331
                                 4158   CRET 0004H
                                 4159   CLOCAL 42H 0001H 0001H 0002H "cTmp" 02H 00H 00H
                                 4160   
                                 4161   ;;	unsigned char cTmp = 0x0;
                                 4162   CLINEA 0000H 0001H 0534H 0002H 001AH
00:0008 00 00                    4163   	mov	r0,	#00h
00:000A FF D0                    4164   	st	r0,	-1[fp]
                                 4165   
                                 4166   ;;	I2C_Write(BH17xxFVC_ADDR_2, &BH1730FVC_REG_INTERRUPT, 1, &cTmp, 1);
                                 4167   CLINEA 0000H 0001H 0537H 0002H 0044H
00:000C 01 00                    4168   	mov	r0,	#01h
00:000E 4E-F0                    4169   	push	r0
00:0010 E5-F0                    4170   	mov	er0,	fp
00:0012 FF E0                    4171   	add	er0,	#-1
00:0014 5E-F0                    4172   	push	er0
00:0016 01 00                    4173   	mov	r0,	#01h
00:0018 4E-F0                    4174   	push	r0
00:001A 00'02                    4175   	mov	r2,	#BYTE1 OFFSET _BH1730FVC_REG_INTERRUPT
00:001C 00'03                    4176   	mov	r3,	#BYTE2 OFFSET _BH1730FVC_REG_INTERRUPT
00:001E 29 00                    4177   	mov	r0,	#029h
00:0020 01-F0'00-00'             4178   	bl	_I2C_Write
00:0024 06 E1                    4179   	add	sp,	#6 
                                 4180   
                                 4181   ;;	I2C_Write(BH17xxFVC_ADDR_2, &BH1730FVC_REG_GAIN, 1, &cTmp, 1);
                                 4182   CLINEA 0000H 0001H 0539H 0002H 003FH
00:0026 01 00                    4183   	mov	r0,	#01h
00:0028 4E-F0                    4184   	push	r0
00:002A E5-F0                    4185   	mov	er0,	fp
00:002C FF E0                    4186   	add	er0,	#-1
00:002E 5E-F0                    4187   	push	er0
00:0030 01 00                    4188   	mov	r0,	#01h
00:0032 4E-F0                    4189   	push	r0
00:0034 00'02                    4190   	mov	r2,	#BYTE1 OFFSET _BH1730FVC_REG_GAIN
00:0036 00'03                    4191   	mov	r3,	#BYTE2 OFFSET _BH1730FVC_REG_GAIN
00:0038 29 00                    4192   	mov	r0,	#029h
00:003A 01-F0'00-00'             4193   	bl	_I2C_Write
00:003E 06 E1                    4194   	add	sp,	#6 
                                 4195   
                                 4196   ;;	cTmp = 0xdau;
                                 4197   CLINEA 0000H 0001H 053BH 0002H 000EH
00:0040 DA 00                    4198   	mov	r0,	#0dah
00:0042 FF D0                    4199   	st	r0,	-1[fp]
                                 4200   
                                 4201   ;;	I2C_Write(BH17xxFVC_ADDR_2, &BH1730FVC_REG_TIMING, 1, &cTmp, 1);
                                 4202   CLINEA 0000H 0001H 053CH 0002H 0041H
00:0044 01 00                    4203   	mov	r0,	#01h
00:0046 4E-F0                    4204   	push	r0
00:0048 E5-F0                    4205   	mov	er0,	fp
00:004A FF E0                    4206   	add	er0,	#-1
00:004C 5E-F0                    4207   	push	er0
00:004E 01 00                    4208   	mov	r0,	#01h
00:0050 4E-F0                    4209   	push	r0
00:0052 00'02                    4210   	mov	r2,	#BYTE1 OFFSET _BH1730FVC_REG_TIMING
00:0054 00'03                    4211   	mov	r3,	#BYTE2 OFFSET _BH1730FVC_REG_TIMING
00:0056 29 00                    4212   	mov	r0,	#029h
00:0058 01-F0'00-00'             4213   	bl	_I2C_Write
00:005C 06 E1                    4214   	add	sp,	#6 
                                 4215   
                                 4216   ;;	cTmp = 0x3;
                                 4217   CLINEA 0000H 0001H 053EH 0002H 000CH
00:005E 03 00                    4218   	mov	r0,	#03h
00:0060 FF D0                    4219   	st	r0,	-1[fp]
                                 4220   
                                 4221   ;;	I2C_Write(BH17xxFVC_ADDR_2, &BH1730FVC_REG_CONTROL, 1, &cTmp, 1);
                                 4222   CLINEA 0000H 0001H 053FH 0002H 0042H
00:0062 01 00                    4223   	mov	r0,	#01h
00:0064 4E-F0                    4224   	push	r0
00:0066 E5-F0                    4225   	mov	er0,	fp
00:0068 FF E0                    4226   	add	er0,	#-1
00:006A 5E-F0                    4227   	push	er0
00:006C 01 00                    4228   	mov	r0,	#01h
00:006E 4E-F0                    4229   	push	r0
00:0070 00'02                    4230   	mov	r2,	#BYTE1 OFFSET _BH1730FVC_REG_CONTROL
00:0072 00'03                    4231   	mov	r3,	#BYTE2 OFFSET _BH1730FVC_REG_CONTROL
00:0074 29 00                    4232   	mov	r0,	#029h
00:0076 01-F0'00-00'             4233   	bl	_I2C_Write
00:007A 06 E1                    4234   	add	sp,	#6 
                                 4235   
                                 4236   ;;	I2C_Write(BH17xxFVC_ADDR_2, &BH1730FVC_REG_DATA0LOW, 1, NULL, 0);
                                 4237   CLINEA 0000H 0001H 0541H 0002H 0042H
00:007C 00 00                    4238   	mov	r0,	#00h
00:007E 4E-F0                    4239   	push	r0
00:0080 00 E0                    4240   	mov	er0,	#0 
00:0082 5E-F0                    4241   	push	er0
00:0084 01 00                    4242   	mov	r0,	#01h
00:0086 4E-F0                    4243   	push	r0
00:0088 00'02                    4244   	mov	r2,	#BYTE1 OFFSET _BH1730FVC_REG_DATA0LOW
00:008A 00'03                    4245   	mov	r3,	#BYTE2 OFFSET _BH1730FVC_REG_DATA0LOW
00:008C 29 00                    4246   	mov	r0,	#029h
00:008E 01-F0'00-00'             4247   	bl	_I2C_Write
00:0092 06 E1                    4248   	add	sp,	#6 
                                 4249   CBLOCKEND 219 2 1346
                                 4250   
                                 4251   ;;}
                                 4252   CLINEA 0000H 0001H 0542H 0001H 0001H
00:0094 EA-A1                    4253   	mov	sp,	fp
00:0096 1E-FE                    4254   	pop	fp
00:0098 8E-F2                    4255   	pop	pc
                                 4256   CBLOCKEND 219 1 1346
                                 4257   CFUNCTIONEND 219
                                 4258   
                                 4259   
  --------------------------     4260   	rseg $$Init_Ambient_Light_Sensor_8$main
                                 4261   CFUNCTION 220
                                 4262   
00:0000                          4263   _Init_Ambient_Light_Sensor_8	:
                                 4264   CBLOCK 220 1 1359
                                 4265   
                                 4266   ;;{	
                                 4267   CLINEA 0000H 0001H 054FH 0001H 0002H
00:0000 CE-F8                    4268   	push	lr
                                 4269   CBLOCK 220 2 1359
                                 4270   CRET 0000H
                                 4271   
                                 4272   ;;	I2C_Write(BH17xxFVC_ADDR_1, NULL, 0, &BH17xxFVC_PWR_ON, 1);
                                 4273   CLINEA 0000H 0001H 0551H 0002H 003CH
00:0002 01 00                    4274   	mov	r0,	#01h
00:0004 4E-F0                    4275   	push	r0
00:0006 00'00                    4276   	mov	r0,	#BYTE1 OFFSET _BH17xxFVC_PWR_ON
00:0008 00'01                    4277   	mov	r1,	#BYTE2 OFFSET _BH17xxFVC_PWR_ON
00:000A 5E-F0                    4278   	push	er0
00:000C 00 00                    4279   	mov	r0,	#00h
00:000E 4E-F0                    4280   	push	r0
00:0010 00 E2                    4281   	mov	er2,	#0 
00:0012 23 00                    4282   	mov	r0,	#023h
00:0014 01-F0'00-00'             4283   	bl	_I2C_Write
00:0018 06 E1                    4284   	add	sp,	#6 
                                 4285   
                                 4286   ;;	I2C_Write(BH17xxFVC_ADDR_1, NULL, 0, &BH1721FVC_CONT_A_RES_MOD, 1);
                                 4287   CLINEA 0000H 0001H 0553H 0002H 0044H
00:001A 01 00                    4288   	mov	r0,	#01h
00:001C 4E-F0                    4289   	push	r0
00:001E 00'00                    4290   	mov	r0,	#BYTE1 OFFSET _BH1721FVC_CONT_A_RES_MOD
00:0020 00'01                    4291   	mov	r1,	#BYTE2 OFFSET _BH1721FVC_CONT_A_RES_MOD
00:0022 5E-F0                    4292   	push	er0
00:0024 00 00                    4293   	mov	r0,	#00h
00:0026 4E-F0                    4294   	push	r0
00:0028 00 E2                    4295   	mov	er2,	#0 
00:002A 23 00                    4296   	mov	r0,	#023h
00:002C 01-F0'00-00'             4297   	bl	_I2C_Write
00:0030 06 E1                    4298   	add	sp,	#6 
                                 4299   
                                 4300   ;;	NOPms(180);	
                                 4301   CLINEA 0000H 0001H 0557H 0002H 000DH
00:0032 B4 00                    4302   	mov	r0,	#0b4h
00:0034 00 01                    4303   	mov	r1,	#00h
00:0036 01-F0'00-00'             4304   	bl	_NOPms
                                 4305   CBLOCKEND 220 2 1368
                                 4306   
                                 4307   ;;}
                                 4308   CLINEA 0000H 0001H 0558H 0001H 0001H
00:003A 8E-F2                    4309   	pop	pc
                                 4310   CBLOCKEND 220 1 1368
                                 4311   CFUNCTIONEND 220
                                 4312   
                                 4313   
  --------------------------     4314   	rseg $$Init_Ambient_Light_Sensor_9$main
                                 4315   CFUNCTION 221
                                 4316   
00:0000                          4317   _Init_Ambient_Light_Sensor_9	:
                                 4318   CBLOCK 221 1 1381
                                 4319   
                                 4320   ;;{
                                 4321   CLINEA 0000H 0001H 0565H 0001H 0001H
00:0000 CE-F8                    4322   	push	lr
                                 4323   CBLOCK 221 2 1381
                                 4324   CRET 0000H
                                 4325   
                                 4326   ;;	uniRawSensorOut._uchar = 0x3;
                                 4327   CLINEA 0000H 0001H 0566H 0002H 001EH
00:0002 03 00                    4328   	mov	r0,	#03h
00:0004 11-90 00-00'             4329   	st	r0,	NEAR _uniRawSensorOut
                                 4330   
                                 4331   ;;	I2C_Write(BH17xxFVC_ADDR_2, &BH1780GLI_REG_CONTROL, 1, &uniRawSensorOut._uchar, 1);
                                 4332   CLINEA 0000H 0001H 0568H 0002H 0054H
00:0008 01 00                    4333   	mov	r0,	#01h
00:000A 4E-F0                    4334   	push	r0
00:000C 00'00                    4335   	mov	r0,	#BYTE1 OFFSET _uniRawSensorOut
00:000E 00'01                    4336   	mov	r1,	#BYTE2 OFFSET _uniRawSensorOut
00:0010 5E-F0                    4337   	push	er0
00:0012 01 00                    4338   	mov	r0,	#01h
00:0014 4E-F0                    4339   	push	r0
00:0016 00'02                    4340   	mov	r2,	#BYTE1 OFFSET _BH1780GLI_REG_CONTROL
00:0018 00'03                    4341   	mov	r3,	#BYTE2 OFFSET _BH1780GLI_REG_CONTROL
00:001A 29 00                    4342   	mov	r0,	#029h
00:001C 01-F0'00-00'             4343   	bl	_I2C_Write
00:0020 06 E1                    4344   	add	sp,	#6 
                                 4345   
                                 4346   ;;	I2C_Write(BH17xxFVC_ADDR_2, &BH1780GLI_REG_DATALOW, 1, NULL, 0);
                                 4347   CLINEA 0000H 0001H 056AH 0002H 0041H
00:0022 00 00                    4348   	mov	r0,	#00h
00:0024 4E-F0                    4349   	push	r0
00:0026 00 E0                    4350   	mov	er0,	#0 
00:0028 5E-F0                    4351   	push	er0
00:002A 01 00                    4352   	mov	r0,	#01h
00:002C 4E-F0                    4353   	push	r0
00:002E 00'02                    4354   	mov	r2,	#BYTE1 OFFSET _BH1780GLI_REG_DATALOW
00:0030 00'03                    4355   	mov	r3,	#BYTE2 OFFSET _BH1780GLI_REG_DATALOW
00:0032 29 00                    4356   	mov	r0,	#029h
00:0034 01-F0'00-00'             4357   	bl	_I2C_Write
00:0038 06 E1                    4358   	add	sp,	#6 
                                 4359   CBLOCKEND 221 2 1387
                                 4360   
                                 4361   ;;}
                                 4362   CLINEA 0000H 0001H 056BH 0001H 0001H
00:003A 8E-F2                    4363   	pop	pc
                                 4364   CBLOCKEND 221 1 1387
                                 4365   CFUNCTIONEND 221
                                 4366   
                                 4367   
  --------------------------     4368   	rseg $$Init_UV_Sensor_10$main
                                 4369   CFUNCTION 222
                                 4370   
00:0000                          4371   _Init_UV_Sensor_10	:
                                 4372   CBLOCK 222 1 1400
                                 4373   
                                 4374   ;;{
                                 4375   CLINEA 0000H 0001H 0578H 0001H 0001H
                                 4376   CBLOCK 222 2 1400
                                 4377   CBLOCKEND 222 2 1403
                                 4378   
                                 4379   ;;}
                                 4380   CLINEA 0000H 0001H 057BH 0001H 0001H
00:0000 1F-FE                    4381   	rt
                                 4382   CBLOCKEND 222 1 1403
                                 4383   CFUNCTIONEND 222
                                 4384   
                                 4385   
  --------------------------     4386   	rseg $$Init_KX022$main
                                 4387   CFUNCTION 223
                                 4388   
00:0000                          4389   _Init_KX022	:
                                 4390   CBLOCK 223 1 1416
                                 4391   
                                 4392   ;;{
                                 4393   CLINEA 0000H 0001H 0588H 0001H 0001H
00:0000 CE-F8                    4394   	push	lr
                                 4395   CBLOCK 223 2 1416
                                 4396   CRET 0000H
                                 4397   
                                 4398   ;;	I2C_Write(KX022_I2C_ADDR, &KX022_CNTL1, 1, &KX022_CNTL1_CFGDAT, 1);
                                 4399   CLINEA 0000H 0001H 0589H 0002H 0044H
00:0002 01 00                    4400   	mov	r0,	#01h
00:0004 4E-F0                    4401   	push	r0
00:0006 00'00                    4402   	mov	r0,	#BYTE1 OFFSET _KX022_CNTL1_CFGDAT
00:0008 00'01                    4403   	mov	r1,	#BYTE2 OFFSET _KX022_CNTL1_CFGDAT
00:000A 5E-F0                    4404   	push	er0
00:000C 01 00                    4405   	mov	r0,	#01h
00:000E 4E-F0                    4406   	push	r0
00:0010 00'02                    4407   	mov	r2,	#BYTE1 OFFSET _KX022_CNTL1
00:0012 00'03                    4408   	mov	r3,	#BYTE2 OFFSET _KX022_CNTL1
00:0014 1E 00                    4409   	mov	r0,	#01eh
00:0016 01-F0'00-00'             4410   	bl	_I2C_Write
00:001A 06 E1                    4411   	add	sp,	#6 
                                 4412   
                                 4413   ;;	I2C_Write(KX022_I2C_ADDR, &KX022_ODCNTL, 1, &KX022_ODCNTL_CFGDAT, 1);
                                 4414   CLINEA 0000H 0001H 058AH 0002H 0046H
00:001C 01 00                    4415   	mov	r0,	#01h
00:001E 4E-F0                    4416   	push	r0
00:0020 00'00                    4417   	mov	r0,	#BYTE1 OFFSET _KX022_ODCNTL_CFGDAT
00:0022 00'01                    4418   	mov	r1,	#BYTE2 OFFSET _KX022_ODCNTL_CFGDAT
00:0024 5E-F0                    4419   	push	er0
00:0026 01 00                    4420   	mov	r0,	#01h
00:0028 4E-F0                    4421   	push	r0
00:002A 00'02                    4422   	mov	r2,	#BYTE1 OFFSET _KX022_ODCNTL
00:002C 00'03                    4423   	mov	r3,	#BYTE2 OFFSET _KX022_ODCNTL
00:002E 1E 00                    4424   	mov	r0,	#01eh
00:0030 01-F0'00-00'             4425   	bl	_I2C_Write
00:0034 06 E1                    4426   	add	sp,	#6 
                                 4427   
                                 4428   ;;	I2C_Write(KX022_I2C_ADDR, &KX022_CNTL3, 1, &KX022_CNTL3_CFGDAT, 1);
                                 4429   CLINEA 0000H 0001H 058BH 0002H 0044H
00:0036 01 00                    4430   	mov	r0,	#01h
00:0038 4E-F0                    4431   	push	r0
00:003A 00'00                    4432   	mov	r0,	#BYTE1 OFFSET _KX022_CNTL3_CFGDAT
00:003C 00'01                    4433   	mov	r1,	#BYTE2 OFFSET _KX022_CNTL3_CFGDAT
00:003E 5E-F0                    4434   	push	er0
00:0040 01 00                    4435   	mov	r0,	#01h
00:0042 4E-F0                    4436   	push	r0
00:0044 00'02                    4437   	mov	r2,	#BYTE1 OFFSET _KX022_CNTL3
00:0046 00'03                    4438   	mov	r3,	#BYTE2 OFFSET _KX022_CNTL3
00:0048 1E 00                    4439   	mov	r0,	#01eh
00:004A 01-F0'00-00'             4440   	bl	_I2C_Write
00:004E 06 E1                    4441   	add	sp,	#6 
                                 4442   
                                 4443   ;;	I2C_Write(KX022_I2C_ADDR, &KX022_TILT_TIMER, 1, &KX022_TILT_TIMER_CFGDAT, 1);
                                 4444   CLINEA 0000H 0001H 058CH 0002H 004EH
00:0050 01 00                    4445   	mov	r0,	#01h
00:0052 4E-F0                    4446   	push	r0
00:0054 00'00                    4447   	mov	r0,	#BYTE1 OFFSET _KX022_TILT_TIMER_CFGDAT
00:0056 00'01                    4448   	mov	r1,	#BYTE2 OFFSET _KX022_TILT_TIMER_CFGDAT
00:0058 5E-F0                    4449   	push	er0
00:005A 01 00                    4450   	mov	r0,	#01h
00:005C 4E-F0                    4451   	push	r0
00:005E 00'02                    4452   	mov	r2,	#BYTE1 OFFSET _KX022_TILT_TIMER
00:0060 00'03                    4453   	mov	r3,	#BYTE2 OFFSET _KX022_TILT_TIMER
00:0062 1E 00                    4454   	mov	r0,	#01eh
00:0064 01-F0'00-00'             4455   	bl	_I2C_Write
00:0068 06 E1                    4456   	add	sp,	#6 
                                 4457   
                                 4458   ;;	uniRawSensorOut._uchar = (unsigned char)(KX022_CNTL1_CFGDAT|0x80);
                                 4459   CLINEA 0000H 0001H 058EH 0002H 0043H
00:006A C1 00                    4460   	mov	r0,	#0c1h
00:006C 11-90 00-00'             4461   	st	r0,	NEAR _uniRawSensorOut
                                 4462   
                                 4463   ;;	I2C_Write(KX022_I2C_ADDR, &KX022_CNTL1, 1, &uniRawSensorOut._uchar, 1);
                                 4464   CLINEA 0000H 0001H 058FH 0002H 0048H
00:0070 01 00                    4465   	mov	r0,	#01h
00:0072 4E-F0                    4466   	push	r0
00:0074 00'00                    4467   	mov	r0,	#BYTE1 OFFSET _uniRawSensorOut
00:0076 00'01                    4468   	mov	r1,	#BYTE2 OFFSET _uniRawSensorOut
00:0078 5E-F0                    4469   	push	er0
00:007A 01 00                    4470   	mov	r0,	#01h
00:007C 4E-F0                    4471   	push	r0
00:007E 00'02                    4472   	mov	r2,	#BYTE1 OFFSET _KX022_CNTL1
00:0080 00'03                    4473   	mov	r3,	#BYTE2 OFFSET _KX022_CNTL1
00:0082 1E 00                    4474   	mov	r0,	#01eh
00:0084 01-F0'00-00'             4475   	bl	_I2C_Write
00:0088 06 E1                    4476   	add	sp,	#6 
                                 4477   CBLOCKEND 223 2 1424
                                 4478   
                                 4479   ;;}
                                 4480   CLINEA 0000H 0001H 0590H 0001H 0001H
00:008A 8E-F2                    4481   	pop	pc
                                 4482   CBLOCKEND 223 1 1424
                                 4483   CFUNCTIONEND 223
                                 4484   
                                 4485   
  --------------------------     4486   	rseg $$Init_KMX61$main
                                 4487   CFUNCTION 224
                                 4488   
00:0000                          4489   _Init_KMX61	:
                                 4490   CBLOCK 224 1 1437
                                 4491   
                                 4492   ;;{ 
                                 4493   CLINEA 0000H 0001H 059DH 0001H 0002H
00:0000 CE-F8                    4494   	push	lr
                                 4495   CBLOCK 224 2 1437
                                 4496   CRET 0000H
                                 4497   
                                 4498   ;;	uniRawSensorOut._uchar = 0x03u;
                                 4499   CLINEA 0000H 0001H 059FH 0002H 0020H
00:0002 03 00                    4500   	mov	r0,	#03h
00:0004 11-90 00-00'             4501   	st	r0,	NEAR _uniRawSensorOut
                                 4502   
                                 4503   ;;	I2C_Write(KMX61_I2C_ADDR, &KMX61_STBY_REG, 1, &uniRawSensorOut._uchar, 1);
                                 4504   CLINEA 0000H 0001H 05A0H 0002H 004BH
00:0008 01 00                    4505   	mov	r0,	#01h
00:000A 4E-F0                    4506   	push	r0
00:000C 00'00                    4507   	mov	r0,	#BYTE1 OFFSET _uniRawSensorOut
00:000E 00'01                    4508   	mov	r1,	#BYTE2 OFFSET _uniRawSensorOut
00:0010 5E-F0                    4509   	push	er0
00:0012 01 00                    4510   	mov	r0,	#01h
00:0014 4E-F0                    4511   	push	r0
00:0016 00'02                    4512   	mov	r2,	#BYTE1 OFFSET _KMX61_STBY_REG
00:0018 00'03                    4513   	mov	r3,	#BYTE2 OFFSET _KMX61_STBY_REG
00:001A 0E 00                    4514   	mov	r0,	#0eh
00:001C 01-F0'00-00'             4515   	bl	_I2C_Write
00:0020 06 E1                    4516   	add	sp,	#6 
                                 4517   
                                 4518   ;;	I2C_Write(KMX61_I2C_ADDR, &KMX61_SELF_TEST, 1, &KMX61_SELF_TEST_CFGDAT, 1);
                                 4519   CLINEA 0000H 0001H 05A2H 0002H 004CH
00:0022 01 00                    4520   	mov	r0,	#01h
00:0024 4E-F0                    4521   	push	r0
00:0026 00'00                    4522   	mov	r0,	#BYTE1 OFFSET _KMX61_SELF_TEST_CFGDAT
00:0028 00'01                    4523   	mov	r1,	#BYTE2 OFFSET _KMX61_SELF_TEST_CFGDAT
00:002A 5E-F0                    4524   	push	er0
00:002C 01 00                    4525   	mov	r0,	#01h
00:002E 4E-F0                    4526   	push	r0
00:0030 00'02                    4527   	mov	r2,	#BYTE1 OFFSET _KMX61_SELF_TEST
00:0032 00'03                    4528   	mov	r3,	#BYTE2 OFFSET _KMX61_SELF_TEST
00:0034 0E 00                    4529   	mov	r0,	#0eh
00:0036 01-F0'00-00'             4530   	bl	_I2C_Write
00:003A 06 E1                    4531   	add	sp,	#6 
                                 4532   
                                 4533   ;;	I2C_Write(KMX61_I2C_ADDR, &KMX61_CNTL1, 1, &KMX61_CNTL1_CFGDAT, 1);
                                 4534   CLINEA 0000H 0001H 05A3H 0002H 0044H
00:003C 01 00                    4535   	mov	r0,	#01h
00:003E 4E-F0                    4536   	push	r0
00:0040 00'00                    4537   	mov	r0,	#BYTE1 OFFSET _KMX61_CNTL1_CFGDAT
00:0042 00'01                    4538   	mov	r1,	#BYTE2 OFFSET _KMX61_CNTL1_CFGDAT
00:0044 5E-F0                    4539   	push	er0
00:0046 01 00                    4540   	mov	r0,	#01h
00:0048 4E-F0                    4541   	push	r0
00:004A 00'02                    4542   	mov	r2,	#BYTE1 OFFSET _KMX61_CNTL1
00:004C 00'03                    4543   	mov	r3,	#BYTE2 OFFSET _KMX61_CNTL1
00:004E 0E 00                    4544   	mov	r0,	#0eh
00:0050 01-F0'00-00'             4545   	bl	_I2C_Write
00:0054 06 E1                    4546   	add	sp,	#6 
                                 4547   
                                 4548   ;;	I2C_Write(KMX61_I2C_ADDR, &KMX61_CNTL2, 1, &KMX61_CNTL2_CFGDAT, 1);
                                 4549   CLINEA 0000H 0001H 05A4H 0002H 0044H
00:0056 01 00                    4550   	mov	r0,	#01h
00:0058 4E-F0                    4551   	push	r0
00:005A 00'00                    4552   	mov	r0,	#BYTE1 OFFSET _KMX61_CNTL2_CFGDAT
00:005C 00'01                    4553   	mov	r1,	#BYTE2 OFFSET _KMX61_CNTL2_CFGDAT
00:005E 5E-F0                    4554   	push	er0
00:0060 01 00                    4555   	mov	r0,	#01h
00:0062 4E-F0                    4556   	push	r0
00:0064 00'02                    4557   	mov	r2,	#BYTE1 OFFSET _KMX61_CNTL2
00:0066 00'03                    4558   	mov	r3,	#BYTE2 OFFSET _KMX61_CNTL2
00:0068 0E 00                    4559   	mov	r0,	#0eh
00:006A 01-F0'00-00'             4560   	bl	_I2C_Write
00:006E 06 E1                    4561   	add	sp,	#6 
                                 4562   
                                 4563   ;;	I2C_Write(KMX61_I2C_ADDR, &KMX61_ODCNTL, 1, &KMX61_ODCNTL_CFGDAT, 1);
                                 4564   CLINEA 0000H 0001H 05A5H 0002H 0046H
00:0070 01 00                    4565   	mov	r0,	#01h
00:0072 4E-F0                    4566   	push	r0
00:0074 00'00                    4567   	mov	r0,	#BYTE1 OFFSET _KMX61_ODCNTL_CFGDAT
00:0076 00'01                    4568   	mov	r1,	#BYTE2 OFFSET _KMX61_ODCNTL_CFGDAT
00:0078 5E-F0                    4569   	push	er0
00:007A 01 00                    4570   	mov	r0,	#01h
00:007C 4E-F0                    4571   	push	r0
00:007E 00'02                    4572   	mov	r2,	#BYTE1 OFFSET _KMX61_ODCNTL
00:0080 00'03                    4573   	mov	r3,	#BYTE2 OFFSET _KMX61_ODCNTL
00:0082 0E 00                    4574   	mov	r0,	#0eh
00:0084 01-F0'00-00'             4575   	bl	_I2C_Write
00:0088 06 E1                    4576   	add	sp,	#6 
                                 4577   
                                 4578   ;;	I2C_Write(KMX61_I2C_ADDR, &KMX61_TEMP_EN_CNTL, 1, &KMX61_TEMP_EN_CNTL_CFGDAT, 1);
                                 4579   CLINEA 0000H 0001H 05A6H 0002H 0052H
00:008A 01 00                    4580   	mov	r0,	#01h
00:008C 4E-F0                    4581   	push	r0
00:008E 00'00                    4582   	mov	r0,	#BYTE1 OFFSET _KMX61_TEMP_EN_CNTL_CFGDAT
00:0090 00'01                    4583   	mov	r1,	#BYTE2 OFFSET _KMX61_TEMP_EN_CNTL_CFGDAT
00:0092 5E-F0                    4584   	push	er0
00:0094 01 00                    4585   	mov	r0,	#01h
00:0096 4E-F0                    4586   	push	r0
00:0098 00'02                    4587   	mov	r2,	#BYTE1 OFFSET _KMX61_TEMP_EN_CNTL
00:009A 00'03                    4588   	mov	r3,	#BYTE2 OFFSET _KMX61_TEMP_EN_CNTL
00:009C 0E 00                    4589   	mov	r0,	#0eh
00:009E 01-F0'00-00'             4590   	bl	_I2C_Write
00:00A2 06 E1                    4591   	add	sp,	#6 
                                 4592   
                                 4593   ;;	I2C_Write(KMX61_I2C_ADDR, &KMX61_BUF_CTRL1, 1, &KMX61_BUF_CTRL1_CFGDAT, 1);
                                 4594   CLINEA 0000H 0001H 05A7H 0002H 004CH
00:00A4 01 00                    4595   	mov	r0,	#01h
00:00A6 4E-F0                    4596   	push	r0
00:00A8 00'00                    4597   	mov	r0,	#BYTE1 OFFSET _KMX61_BUF_CTRL1_CFGDAT
00:00AA 00'01                    4598   	mov	r1,	#BYTE2 OFFSET _KMX61_BUF_CTRL1_CFGDAT
00:00AC 5E-F0                    4599   	push	er0
00:00AE 01 00                    4600   	mov	r0,	#01h
00:00B0 4E-F0                    4601   	push	r0
00:00B2 00'02                    4602   	mov	r2,	#BYTE1 OFFSET _KMX61_BUF_CTRL1
00:00B4 00'03                    4603   	mov	r3,	#BYTE2 OFFSET _KMX61_BUF_CTRL1
00:00B6 0E 00                    4604   	mov	r0,	#0eh
00:00B8 01-F0'00-00'             4605   	bl	_I2C_Write
00:00BC 06 E1                    4606   	add	sp,	#6 
                                 4607   
                                 4608   ;;	I2C_Write(KMX61_I2C_ADDR, &KMX61_BUF_CTRL2, 1, &KMX61_BUF_CTRL2_CFGDAT, 1);
                                 4609   CLINEA 0000H 0001H 05A8H 0002H 004CH
00:00BE 01 00                    4610   	mov	r0,	#01h
00:00C0 4E-F0                    4611   	push	r0
00:00C2 00'00                    4612   	mov	r0,	#BYTE1 OFFSET _KMX61_BUF_CTRL2_CFGDAT
00:00C4 00'01                    4613   	mov	r1,	#BYTE2 OFFSET _KMX61_BUF_CTRL2_CFGDAT
00:00C6 5E-F0                    4614   	push	er0
00:00C8 01 00                    4615   	mov	r0,	#01h
00:00CA 4E-F0                    4616   	push	r0
00:00CC 00'02                    4617   	mov	r2,	#BYTE1 OFFSET _KMX61_BUF_CTRL2
00:00CE 00'03                    4618   	mov	r3,	#BYTE2 OFFSET _KMX61_BUF_CTRL2
00:00D0 0E 00                    4619   	mov	r0,	#0eh
00:00D2 01-F0'00-00'             4620   	bl	_I2C_Write
00:00D6 06 E1                    4621   	add	sp,	#6 
                                 4622   
                                 4623   ;;	uniRawSensorOut._uchar = 0x0u;
                                 4624   CLINEA 0000H 0001H 05AAH 0002H 001FH
00:00D8 00 00                    4625   	mov	r0,	#00h
00:00DA 11-90 00-00'             4626   	st	r0,	NEAR _uniRawSensorOut
                                 4627   
                                 4628   ;;	I2C_Write(KMX61_I2C_ADDR, &KMX61_STBY_REG, 1, &uniRawSensorOut._uchar, 1);
                                 4629   CLINEA 0000H 0001H 05ABH 0002H 004BH
00:00DE 01 00                    4630   	mov	r0,	#01h
00:00E0 4E-F0                    4631   	push	r0
00:00E2 00'00                    4632   	mov	r0,	#BYTE1 OFFSET _uniRawSensorOut
00:00E4 00'01                    4633   	mov	r1,	#BYTE2 OFFSET _uniRawSensorOut
00:00E6 5E-F0                    4634   	push	er0
00:00E8 01 00                    4635   	mov	r0,	#01h
00:00EA 4E-F0                    4636   	push	r0
00:00EC 00'02                    4637   	mov	r2,	#BYTE1 OFFSET _KMX61_STBY_REG
00:00EE 00'03                    4638   	mov	r3,	#BYTE2 OFFSET _KMX61_STBY_REG
00:00F0 0E 00                    4639   	mov	r0,	#0eh
00:00F2 01-F0'00-00'             4640   	bl	_I2C_Write
00:00F6 06 E1                    4641   	add	sp,	#6 
                                 4642   CBLOCKEND 224 2 1452
                                 4643   
                                 4644   ;;}
                                 4645   CLINEA 0000H 0001H 05ACH 0001H 0001H
00:00F8 8E-F2                    4646   	pop	pc
                                 4647   CBLOCKEND 224 1 1452
                                 4648   CFUNCTIONEND 224
                                 4649   
                                 4650   
  --------------------------     4651   	rseg $$Init_Temperature_Sensor_20$main
                                 4652   CFUNCTION 225
                                 4653   
00:0000                          4654   _Init_Temperature_Sensor_20	:
                                 4655   CBLOCK 225 1 1465
                                 4656   
                                 4657   ;;{
                                 4658   CLINEA 0000H 0001H 05B9H 0001H 0001H
                                 4659   CBLOCK 225 2 1465
                                 4660   CBLOCKEND 225 2 1468
                                 4661   
                                 4662   ;;}
                                 4663   CLINEA 0000H 0001H 05BCH 0001H 0001H
00:0000 1F-FE                    4664   	rt
                                 4665   CBLOCKEND 225 1 1468
                                 4666   CFUNCTIONEND 225
                                 4667   
                                 4668   
  --------------------------     4669   	rseg $$Init_Temperature_Sensor_21$main
                                 4670   CFUNCTION 226
                                 4671   
00:0000                          4672   _Init_Temperature_Sensor_21	:
                                 4673   CBLOCK 226 1 1481
                                 4674   
                                 4675   ;;{
                                 4676   CLINEA 0000H 0001H 05C9H 0001H 0001H
                                 4677   CBLOCK 226 2 1481
                                 4678   
                                 4679   ;;	SENINTF_HDR1_GPIO0(DIR) = 1;
                                 4680   CLINEA 0000H 0001H 05CBH 0002H 001DH
00:0000 A0-A0 59-F2              4681   	sb	0f259h.2
                                 4682   
                                 4683   ;;	SENINTF_HDR1_GPIO0(C0) = 0;
                                 4684   CLINEA 0000H 0001H 05CDH 0002H 001CH
00:0004 A2-A0 5A-F2              4685   	rb	0f25ah.2
                                 4686   
                                 4687   ;;	SENINTF_HDR1_GPIO0(C1) = 1;
                                 4688   CLINEA 0000H 0001H 05CEH 0002H 001CH
00:0008 A0-A0 5B-F2              4689   	sb	0f25bh.2
                                 4690   
                                 4691   ;;	SENINTF_HDR1_GPIO0(MD0) = 0;
                                 4692   CLINEA 0000H 0001H 05D0H 0002H 001DH
00:000C A2-A0 5C-F2              4693   	rb	0f25ch.2
                                 4694   
                                 4695   ;;	SENINTF_HDR1_GPIO0(MD1) = 0;
                                 4696   CLINEA 0000H 0001H 05D1H 0002H 001DH
00:0010 A2-A0 5D-F2              4697   	rb	0f25dh.2
                                 4698   CBLOCKEND 226 2 1490
                                 4699   
                                 4700   ;;}
                                 4701   CLINEA 0000H 0001H 05D2H 0001H 0001H
00:0014 1F-FE                    4702   	rt
                                 4703   CBLOCKEND 226 1 1490
                                 4704   CFUNCTIONEND 226
                                 4705   
                                 4706   
  --------------------------     4707   	rseg $$Init_Temperature_Sensor_22$main
                                 4708   CFUNCTION 227
                                 4709   
00:0000                          4710   _Init_Temperature_Sensor_22	:
                                 4711   CBLOCK 227 1 1503
                                 4712   
                                 4713   ;;{
                                 4714   CLINEA 0000H 0001H 05DFH 0001H 0001H
                                 4715   CBLOCK 227 2 1503
                                 4716   
                                 4717   ;;	SENINTF_HDR1_GPIO0(DIR) = 1;
                                 4718   CLINEA 0000H 0001H 05E1H 0002H 001DH
00:0000 A0-A0 59-F2              4719   	sb	0f259h.2
                                 4720   
                                 4721   ;;	SENINTF_HDR1_GPIO0(C0) = 0;
                                 4722   CLINEA 0000H 0001H 05E3H 0002H 001CH
00:0004 A2-A0 5A-F2              4723   	rb	0f25ah.2
                                 4724   
                                 4725   ;;	SENINTF_HDR1_GPIO0(C1) = 1;
                                 4726   CLINEA 0000H 0001H 05E4H 0002H 001CH
00:0008 A0-A0 5B-F2              4727   	sb	0f25bh.2
                                 4728   
                                 4729   ;;	SENINTF_HDR1_GPIO0(MD0) = 0;
                                 4730   CLINEA 0000H 0001H 05E6H 0002H 001DH
00:000C A2-A0 5C-F2              4731   	rb	0f25ch.2
                                 4732   
                                 4733   ;;	SENINTF_HDR1_GPIO0(MD1) = 0;
                                 4734   CLINEA 0000H 0001H 05E7H 0002H 001DH
00:0010 A2-A0 5D-F2              4735   	rb	0f25dh.2
                                 4736   CBLOCKEND 227 2 1512
                                 4737   
                                 4738   ;;}
                                 4739   CLINEA 0000H 0001H 05E8H 0001H 0001H
00:0014 1F-FE                    4740   	rt
                                 4741   CBLOCKEND 227 1 1512
                                 4742   CFUNCTIONEND 227
                                 4743   
                                 4744   
  --------------------------     4745   	rseg $$Init_Temperature_Sensor_23$main
                                 4746   CFUNCTION 228
                                 4747   
00:0000                          4748   _Init_Temperature_Sensor_23	:
                                 4749   CBLOCK 228 1 1525
                                 4750   
                                 4751   ;;{
                                 4752   CLINEA 0000H 0001H 05F5H 0001H 0001H
                                 4753   CBLOCK 228 2 1525
                                 4754   
                                 4755   ;;	SENINTF_HDR1_GPIO0(DIR) = 1;
                                 4756   CLINEA 0000H 0001H 05F7H 0002H 001DH
00:0000 A0-A0 59-F2              4757   	sb	0f259h.2
                                 4758   
                                 4759   ;;	SENINTF_HDR1_GPIO0(C0) = 0;
                                 4760   CLINEA 0000H 0001H 05F9H 0002H 001CH
00:0004 A2-A0 5A-F2              4761   	rb	0f25ah.2
                                 4762   
                                 4763   ;;	SENINTF_HDR1_GPIO0(C1) = 1;
                                 4764   CLINEA 0000H 0001H 05FAH 0002H 001CH
00:0008 A0-A0 5B-F2              4765   	sb	0f25bh.2
                                 4766   
                                 4767   ;;	SENINTF_HDR1_GPIO0(MD0) = 0;
                                 4768   CLINEA 0000H 0001H 05FCH 0002H 001DH
00:000C A2-A0 5C-F2              4769   	rb	0f25ch.2
                                 4770   
                                 4771   ;;	SENINTF_HDR1_GPIO0(MD1) = 0;
                                 4772   CLINEA 0000H 0001H 05FDH 0002H 001DH
00:0010 A2-A0 5D-F2              4773   	rb	0f25dh.2
                                 4774   CBLOCKEND 228 2 1534
                                 4775   
                                 4776   ;;}
                                 4777   CLINEA 0000H 0001H 05FEH 0001H 0001H
00:0014 1F-FE                    4778   	rt
                                 4779   CBLOCKEND 228 1 1534
                                 4780   CFUNCTIONEND 228
                                 4781   
                                 4782   
  --------------------------     4783   	rseg $$main_clrWDT$main
                                 4784   CFUNCTION 179
                                 4785   
00:0000                          4786   _main_clrWDT	:
                                 4787   CBLOCK 179 1 1545
                                 4788   
                                 4789   ;;{
                                 4790   CLINEA 0000H 0001H 0609H 0001H 0001H
                                 4791   CBLOCK 179 2 1545
                                 4792   
                                 4793   ;;	do {
                                 4794   CLINEA 0000H 0001H 060CH 0002H 0005H
00:0000                          4795   _$L288 :
                                 4796   CBLOCK 179 3 1548
                                 4797   
                                 4798   ;;		WDTCON = 0x5Au;
                                 4799   CLINEA 0000H 0001H 060DH 0003H 0011H
00:0000 5A 00                    4800   	mov	r0,	#05ah
00:0002 11-90 0E-F0              4801   	st	r0,	0f00eh
                                 4802   CBLOCKEND 179 3 1550
                                 4803   
                                 4804   ;;	} while (WDP != 1);
                                 4805   CLINEA 0000H 0000H 060EH 0002H 0014H
00:0006 81-A0 0E-F0              4806   	tb	0f00eh.0
00:000A FA C9                    4807   	beq	_$L288
                                 4808   
                                 4809   ;;	WDTCON = 0xA5u;
                                 4810   CLINEA 0000H 0001H 060FH 0002H 0010H
00:000C A5 00                    4811   	mov	r0,	#0a5h
00:000E 11-90 0E-F0              4812   	st	r0,	0f00eh
                                 4813   CBLOCKEND 179 2 1552
                                 4814   
                                 4815   ;;}
                                 4816   CLINEA 0000H 0001H 0610H 0001H 0001H
00:0012 1F-FE                    4817   	rt
                                 4818   CBLOCKEND 179 1 1552
                                 4819   CFUNCTIONEND 179
                                 4820   
                                 4821   
  --------------------------     4822   	rseg $$_funcUartFin$main
                                 4823   CFUNCTION 190
                                 4824   
00:0000                          4825   __funcUartFin	:
                                 4826   CBLOCK 190 1 1563
                                 4827   
                                 4828   ;;{
                                 4829   CLINEA 0000H 0001H 061BH 0001H 0001H
00:0000 CE-F8                    4830   	push	lr
                                 4831   CBLOCK 190 2 1563
                                 4832   CRET 0000H
                                 4833   CARGUMENT 46H 0002H 0000H "size" 02H 00H 01H
                                 4834   CARGUMENT 46H 0001H 0000H "errStat" 02H 00H 00H
                                 4835   
                                 4836   ;;	uart_continue();					// Function in UART.c: process to continue send and receive...
                                 4837   CLINEA 0000H 0001H 061CH 0002H 0054H
00:0002 01-F0'00-00'             4838   	bl	_uart_continue
                                 4839   
                                 4840   ;;	_flgUartFin = (unsigned char)FLG_SET;
                                 4841   CLINEA 0000H 0001H 061DH 0002H 0026H
00:0006 01 00                    4842   	mov	r0,	#01h
00:0008 11-90 00-00'             4843   	st	r0,	NEAR __flgUartFin
                                 4844   
                                 4845   ;;	main_reqNotHalt();				// uncommented 5/2/2013
                                 4846   CLINEA 0000H 0001H 061EH 0002H 002EH
00:000C 01-F0'00-00'             4847   	bl	_main_reqNotHalt
                                 4848   CBLOCKEND 190 2 1567
                                 4849   
                                 4850   ;;}
                                 4851   CLINEA 0000H 0001H 061FH 0001H 0001H
00:0010 8E-F2                    4852   	pop	pc
                                 4853   CBLOCKEND 190 1 1567
                                 4854   CFUNCTIONEND 190
                                 4855   
                                 4856   
  --------------------------     4857   	rseg $$_funcI2CFin$main
                                 4858   CFUNCTION 191
                                 4859   
00:0000                          4860   __funcI2CFin	:
                                 4861   CBLOCK 191 1 1578
                                 4862   
                                 4863   ;;{
                                 4864   CLINEA 0000H 0001H 062AH 0001H 0001H
00:0000 CE-F8                    4865   	push	lr
                                 4866   CBLOCK 191 2 1578
                                 4867   CRET 0000H
                                 4868   CARGUMENT 46H 0002H 0000H "size" 02H 00H 01H
                                 4869   CARGUMENT 46H 0001H 0000H "errStat" 02H 00H 00H
                                 4870   
                                 4871   ;;	i2c_continue();					// Function in UART.c: process to continue send and receive...
                                 4872   CLINEA 0000H 0001H 062BH 0002H 0053H
00:0002 01-F0'00-00'             4873   	bl	_i2c_continue
                                 4874   
                                 4875   ;;	_flgI2CFin = (unsigned char)FLG_SET;
                                 4876   CLINEA 0000H 0001H 062CH 0002H 0025H
00:0006 01 00                    4877   	mov	r0,	#01h
00:0008 11-90 00-00'             4878   	st	r0,	NEAR __flgI2CFin
                                 4879   
                                 4880   ;;	main_reqNotHalt();				// uncommented 5/2/2013
                                 4881   CLINEA 0000H 0001H 062DH 0002H 002EH
00:000C 01-F0'00-00'             4882   	bl	_main_reqNotHalt
                                 4883   CBLOCKEND 191 2 1582
                                 4884   
                                 4885   ;;}
                                 4886   CLINEA 0000H 0001H 062EH 0001H 0001H
00:0010 8E-F2                    4887   	pop	pc
                                 4888   CBLOCKEND 191 1 1582
                                 4889   CFUNCTIONEND 191
                                 4890   
                                 4891   
  --------------------------     4892   	rseg $$_intI2c$main
                                 4893   CFUNCTION 194
                                 4894   
00:0000                          4895   __intI2c	:
                                 4896   CBLOCK 194 1 1592
                                 4897   
                                 4898   ;;{
                                 4899   CLINEA 0000H 0001H 0638H 0001H 0001H
00:0000 CE-F8                    4900   	push	lr
                                 4901   CBLOCK 194 2 1592
                                 4902   CRET 0000H
                                 4903   
                                 4904   ;;	i2c_continue();
                                 4905   CLINEA 0000H 0001H 0639H 0002H 0010H
00:0002 01-F0'00-00'             4906   	bl	_i2c_continue
                                 4907   
                                 4908   ;;	main_reqNotHalt();
                                 4909   CLINEA 0000H 0001H 063AH 0002H 0013H
00:0006 01-F0'00-00'             4910   	bl	_main_reqNotHalt
                                 4911   CBLOCKEND 194 2 1595
                                 4912   
                                 4913   ;;}
                                 4914   CLINEA 0000H 0001H 063BH 0001H 0001H
00:000A 8E-F2                    4915   	pop	pc
                                 4916   CBLOCKEND 194 1 1595
                                 4917   CFUNCTIONEND 194
                                 4918   
                                 4919   
  --------------------------     4920   	rseg $$_intADC$main
                                 4921   CFUNCTION 195
                                 4922   
00:0000                          4923   __intADC	:
                                 4924   CBLOCK 195 1 1605
                                 4925   
                                 4926   ;;{
                                 4927   CLINEA 0000H 0001H 0645H 0001H 0001H
                                 4928   CBLOCK 195 2 1605
                                 4929   
                                 4930   ;;	_flgADCFin = 1;
                                 4931   CLINEA 0000H 0001H 0646H 0002H 0010H
00:0000 01 00                    4932   	mov	r0,	#01h
00:0002 11-90 00-00'             4933   	st	r0,	NEAR __flgADCFin
                                 4934   CBLOCKEND 195 2 1607
                                 4935   
                                 4936   ;;}
                                 4937   CLINEA 0000H 0001H 0647H 0001H 0001H
00:0006 1F-FE                    4938   	rt
                                 4939   CBLOCKEND 195 1 1607
                                 4940   CFUNCTIONEND 195
                                 4941   
                                 4942   
  --------------------------     4943   	rseg $$main_reqNotHalt$main
                                 4944   CFUNCTION 192
                                 4945   
00:0000                          4946   _main_reqNotHalt	:
                                 4947   CBLOCK 192 1 1617
                                 4948   
                                 4949   ;;{
                                 4950   CLINEA 0000H 0001H 0651H 0001H 0001H
                                 4951   CBLOCK 192 2 1617
                                 4952   
                                 4953   ;;	_reqNotHalt = (unsigned char)FLG_SET;
                                 4954   CLINEA 0000H 0001H 0652H 0002H 0026H
00:0000 01 00                    4955   	mov	r0,	#01h
00:0002 11-90 00-00'             4956   	st	r0,	NEAR __reqNotHalt
                                 4957   CBLOCKEND 192 2 1619
                                 4958   
                                 4959   ;;}
                                 4960   CLINEA 0000H 0001H 0653H 0001H 0001H
00:0006 1F-FE                    4961   	rt
                                 4962   CBLOCKEND 192 1 1619
                                 4963   CFUNCTIONEND 192
                                 4964   
                                 4965   
  --------------------------     4966   	rseg $$_intUart$main
                                 4967   CFUNCTION 193
                                 4968   
00:0000                          4969   __intUart	:
                                 4970   CBLOCK 193 1 1629
                                 4971   
                                 4972   ;;{
                                 4973   CLINEA 0000H 0001H 065DH 0001H 0001H
                                 4974   CBLOCK 193 2 1629
                                 4975   
                                 4976   ;;	uart_continue(); 	//in UART.c: process to continue send and receive...
                                 4977   CLINEA 0000H 0001H 065EH 0002H 0047H
00:0000 00-F0'00-00'             4978   	b	_uart_continue
                                 4979   CBLOCKEND 193 2 1631
                                 4980   CLINEA 0000H 0001H 065FH 0001H 0001H
                                 4981   CBLOCKEND 193 1 1631
                                 4982   CFUNCTIONEND 193
                                 4983   
                                 4984   
  --------------------------     4985   	rseg $$SetOSC$main
                                 4986   CFUNCTION 181
                                 4987   
00:0000                          4988   _SetOSC	:
                                 4989   CBLOCK 181 1 1636
                                 4990   
                                 4991   ;;static void SetOSC(void){
                                 4992   CLINEA 0000H 0001H 0664H 0001H 0019H
                                 4993   CBLOCK 181 2 1636
                                 4994   
                                 4995   ;;	SYSC0 = 0;			// Used to select the frequency of the HSCLK => 00=8.192MHz.
                                 4996   CLINEA 0000H 0001H 0667H 0002H 004AH
00:0000 82-A0 02-F0              4997   	rb	0f002h.0
                                 4998   
                                 4999   ;;	SYSC1 = 0;
                                 5000   CLINEA 0000H 0001H 0668H 0002H 000BH
00:0004 92-A0 02-F0              5001   	rb	0f002h.1
                                 5002   
                                 5003   ;;	OSCM1 = 1;			// 10 => Built-in PLL oscillation mode
                                 5004   CLINEA 0000H 0001H 066AH 0002H 0034H
00:0008 B0-A0 02-F0              5005   	sb	0f002h.3
                                 5006   
                                 5007   ;;	OSCM0 = 0;
                                 5008   CLINEA 0000H 0001H 066BH 0002H 000BH
00:000C A2-A0 02-F0              5009   	rb	0f002h.2
                                 5010   
                                 5011   ;;	ENOSC = 1;			//1=Enable High Speed Oscillator...
                                 5012   CLINEA 0000H 0001H 066DH 0002H 0031H
00:0010 90-A0 03-F0              5013   	sb	0f003h.1
                                 5014   
                                 5015   ;;	SYSCLK = 1;			//1=HSCLK; 0=LSCLK 
                                 5016   CLINEA 0000H 0001H 066EH 0002H 0022H
00:0014 80-A0 03-F0              5017   	sb	0f003h.0
                                 5018   
                                 5019   ;;	LPLL = 1;			//1=Enables the use of PLL oscillation - ADDED 4/30/2013
                                 5020   CLINEA 0000H 0001H 0670H 0002H 0045H
00:0018 F0-A0 03-F0              5021   	sb	0f003h.7
                                 5022   
                                 5023   ;;	__EI();			//INT enable
                                 5024   CLINEA 0000H 0001H 0672H 0002H 0017H
00:001C 08-ED                    5025   	ei
                                 5026   CBLOCKEND 181 2 1651
                                 5027   
                                 5028   ;;}
                                 5029   CLINEA 0000H 0001H 0673H 0001H 0001H
00:001E 1F-FE                    5030   	rt
                                 5031   CBLOCKEND 181 1 1651
                                 5032   CFUNCTIONEND 181
                                 5033   
                                 5034   
  --------------------------     5035   	rseg $$PortA_Low$main
                                 5036   CFUNCTION 182
                                 5037   
00:0000                          5038   _PortA_Low	:
                                 5039   CBLOCK 182 1 1657
                                 5040   
                                 5041   ;;void PortA_Low(void){
                                 5042   CLINEA 0000H 0001H 0679H 0001H 0015H
                                 5043   CBLOCK 182 2 1657
                                 5044   
                                 5045   ;;	PA0DIR = 0;		// PortA Bit0 set to Output Mode...
                                 5046   CLINEA 0000H 0001H 0683H 0002H 0031H
00:0000 82-A0 51-F2              5047   	rb	0f251h.0
                                 5048   
                                 5049   ;;	PA1DIR = 0;		// PortA Bit1 set to Output Mode...
                                 5050   CLINEA 0000H 0001H 0684H 0002H 0031H
00:0004 92-A0 51-F2              5051   	rb	0f251h.1
                                 5052   
                                 5053   ;;	PA2DIR = 0;		// PortA Bit2 set to Output Mode...
                                 5054   CLINEA 0000H 0001H 0685H 0002H 0031H
00:0008 A2-A0 51-F2              5055   	rb	0f251h.2
                                 5056   
                                 5057   ;;	PA0C1  = 1;		// PortA Bit0 set to CMOS Output...
                                 5058   CLINEA 0000H 0001H 0688H 0002H 0031H
00:000C 80-A0 53-F2              5059   	sb	0f253h.0
                                 5060   
                                 5061   ;;	PA0C0  = 1;		
                                 5062   CLINEA 0000H 0001H 0689H 0002H 000EH
00:0010 80-A0 52-F2              5063   	sb	0f252h.0
                                 5064   
                                 5065   ;;	PA1C1  = 1;		// PortA Bit1 set to CMOS Output...
                                 5066   CLINEA 0000H 0001H 068AH 0002H 0031H
00:0014 90-A0 53-F2              5067   	sb	0f253h.1
                                 5068   
                                 5069   ;;	PA1C0  = 1;	
                                 5070   CLINEA 0000H 0001H 068BH 0002H 000DH
00:0018 90-A0 52-F2              5071   	sb	0f252h.1
                                 5072   
                                 5073   ;;	PA2C1  = 1;		// PortA Bit2 set to CMOS Output...
                                 5074   CLINEA 0000H 0001H 068CH 0002H 0031H
00:001C A0-A0 53-F2              5075   	sb	0f253h.2
                                 5076   
                                 5077   ;;	PA2C0  = 1;	
                                 5078   CLINEA 0000H 0001H 068DH 0002H 000DH
00:0020 A0-A0 52-F2              5079   	sb	0f252h.2
                                 5080   
                                 5081   ;;	PA0MD1  = 0;	// PortA Bit0 set to General Purpose Output...
                                 5082   CLINEA 0000H 0001H 0690H 0002H 003CH
00:0024 82-A0 55-F2              5083   	rb	0f255h.0
                                 5084   
                                 5085   ;;	PA0MD0  = 0;	
                                 5086   CLINEA 0000H 0001H 0691H 0002H 000EH
00:0028 82-A0 54-F2              5087   	rb	0f254h.0
                                 5088   
                                 5089   ;;	PA1MD1  = 0;	// PortA Bit1 set to General Purpose Output...
                                 5090   CLINEA 0000H 0001H 0692H 0002H 003CH
00:002C 92-A0 55-F2              5091   	rb	0f255h.1
                                 5092   
                                 5093   ;;	PA1MD0  = 0;	
                                 5094   CLINEA 0000H 0001H 0693H 0002H 000EH
00:0030 92-A0 54-F2              5095   	rb	0f254h.1
                                 5096   
                                 5097   ;;	PA2MD1  = 0;	// PortA Bit2 set to General Purpose Output...
                                 5098   CLINEA 0000H 0001H 0694H 0002H 003CH
00:0034 A2-A0 55-F2              5099   	rb	0f255h.2
                                 5100   
                                 5101   ;;	PA2MD0  = 0;	
                                 5102   CLINEA 0000H 0001H 0695H 0002H 000EH
00:0038 A2-A0 54-F2              5103   	rb	0f254h.2
                                 5104   
                                 5105   ;;	PA0D = 0;		// A.0 Output OFF....
                                 5106   CLINEA 0000H 0001H 0698H 0002H 0021H
00:003C 82-A0 50-F2              5107   	rb	0f250h.0
                                 5108   
                                 5109   ;;	PA1D = 0;		// A.1 Output OFF....
                                 5110   CLINEA 0000H 0001H 0699H 0002H 0021H
00:0040 92-A0 50-F2              5111   	rb	0f250h.1
                                 5112   
                                 5113   ;;	PA2D = 0;		// A.2 Output OFF....
                                 5114   CLINEA 0000H 0001H 069AH 0002H 0021H
00:0044 A2-A0 50-F2              5115   	rb	0f250h.2
                                 5116   
                                 5117   ;;	main_clrWDT(); 	// Clear WDT
                                 5118   CLINEA 0000H 0001H 069CH 0002H 001DH
00:0048 00-F0'00-00'             5119   	b	_main_clrWDT
                                 5120   CBLOCKEND 182 2 1693
                                 5121   CLINEA 0000H 0001H 069DH 0001H 0001H
                                 5122   CBLOCKEND 182 1 1693
                                 5123   CFUNCTIONEND 182
                                 5124   
                                 5125   
  --------------------------     5126   	rseg $$PortB_Low$main
                                 5127   CFUNCTION 183
                                 5128   
00:0000                          5129   _PortB_Low	:
                                 5130   CBLOCK 183 1 1699
                                 5131   
                                 5132   ;;void PortB_Low(void){
                                 5133   CLINEA 0000H 0001H 06A3H 0001H 0015H
                                 5134   CBLOCK 183 2 1699
                                 5135   
                                 5136   ;;	PB0DIR = 0;		// PortB Bit0 set to Output Mode...
                                 5137   CLINEA 0000H 0001H 06ADH 0002H 0031H
00:0000 82-A0 59-F2              5138   	rb	0f259h.0
                                 5139   
                                 5140   ;;	PB1DIR = 0;		// PortB Bit1 set to Output Mode...
                                 5141   CLINEA 0000H 0001H 06AEH 0002H 0031H
00:0004 92-A0 59-F2              5142   	rb	0f259h.1
                                 5143   
                                 5144   ;;	PB2DIR = 0;		// PortB Bit2 set to Output Mode...
                                 5145   CLINEA 0000H 0001H 06AFH 0002H 0031H
00:0008 A2-A0 59-F2              5146   	rb	0f259h.2
                                 5147   
                                 5148   ;;	PB3DIR = 0;		// PortB Bit3 set to Output Mode...
                                 5149   CLINEA 0000H 0001H 06B0H 0002H 0031H
00:000C B2-A0 59-F2              5150   	rb	0f259h.3
                                 5151   
                                 5152   ;;	PB4DIR = 0;		// PortB Bit4 set to Output Mode...
                                 5153   CLINEA 0000H 0001H 06B1H 0002H 0031H
00:0010 C2-A0 59-F2              5154   	rb	0f259h.4
                                 5155   
                                 5156   ;;	PB5DIR = 0;		// PortB Bit5 set to Output Mode...
                                 5157   CLINEA 0000H 0001H 06B2H 0002H 0031H
00:0014 D2-A0 59-F2              5158   	rb	0f259h.5
                                 5159   
                                 5160   ;;	PB6DIR = 0;		// PortB Bit6 set to Output Mode...
                                 5161   CLINEA 0000H 0001H 06B3H 0002H 0031H
00:0018 E2-A0 59-F2              5162   	rb	0f259h.6
                                 5163   
                                 5164   ;;	PB7DIR = 0;		// PortB Bit7 set to Output Mode...
                                 5165   CLINEA 0000H 0001H 06B4H 0002H 0031H
00:001C F2-A0 59-F2              5166   	rb	0f259h.7
                                 5167   
                                 5168   ;;	PB0C1  = 1;		// PortB Bit0 set to CMOS Output...
                                 5169   CLINEA 0000H 0001H 06B7H 0002H 0031H
00:0020 80-A0 5B-F2              5170   	sb	0f25bh.0
                                 5171   
                                 5172   ;;	PB0C0  = 1;		
                                 5173   CLINEA 0000H 0001H 06B8H 0002H 000EH
00:0024 80-A0 5A-F2              5174   	sb	0f25ah.0
                                 5175   
                                 5176   ;;	PB1C1  = 1;		// PortB Bit1 set to CMOS Output...
                                 5177   CLINEA 0000H 0001H 06B9H 0002H 0031H
00:0028 90-A0 5B-F2              5178   	sb	0f25bh.1
                                 5179   
                                 5180   ;;	PB1C0  = 1;	
                                 5181   CLINEA 0000H 0001H 06BAH 0002H 000DH
00:002C 90-A0 5A-F2              5182   	sb	0f25ah.1
                                 5183   
                                 5184   ;;	PB2C1  = 1;		// PortB Bit2 set to CMOS Output...
                                 5185   CLINEA 0000H 0001H 06BBH 0002H 0031H
00:0030 A0-A0 5B-F2              5186   	sb	0f25bh.2
                                 5187   
                                 5188   ;;	PB2C0  = 1;	
                                 5189   CLINEA 0000H 0001H 06BCH 0002H 000DH
00:0034 A0-A0 5A-F2              5190   	sb	0f25ah.2
                                 5191   
                                 5192   ;;	PB3C1  = 1;		// PortB Bit3 set to CMOS Output...
                                 5193   CLINEA 0000H 0001H 06BDH 0002H 0031H
00:0038 B0-A0 5B-F2              5194   	sb	0f25bh.3
                                 5195   
                                 5196   ;;	PB3C0  = 1;		
                                 5197   CLINEA 0000H 0001H 06BEH 0002H 000EH
00:003C B0-A0 5A-F2              5198   	sb	0f25ah.3
                                 5199   
                                 5200   ;;	PB4C1  = 1;		// PortB Bit4 set to CMOS Output...
                                 5201   CLINEA 0000H 0001H 06BFH 0002H 0031H
00:0040 C0-A0 5B-F2              5202   	sb	0f25bh.4
                                 5203   
                                 5204   ;;	PB4C0  = 1;	
                                 5205   CLINEA 0000H 0001H 06C0H 0002H 000DH
00:0044 C0-A0 5A-F2              5206   	sb	0f25ah.4
                                 5207   
                                 5208   ;;	PB5C1  = 1;		// PortB Bit5 set to CMOS Output...
                                 5209   CLINEA 0000H 0001H 06C1H 0002H 0031H
00:0048 D0-A0 5B-F2              5210   	sb	0f25bh.5
                                 5211   
                                 5212   ;;	PB5C0  = 1;	
                                 5213   CLINEA 0000H 0001H 06C2H 0002H 000DH
00:004C D0-A0 5A-F2              5214   	sb	0f25ah.5
                                 5215   
                                 5216   ;;	PB6C1  = 1;		// PortB Bit6 set to CMOS Output...
                                 5217   CLINEA 0000H 0001H 06C3H 0002H 0031H
00:0050 E0-A0 5B-F2              5218   	sb	0f25bh.6
                                 5219   
                                 5220   ;;	PB6C0  = 1;	
                                 5221   CLINEA 0000H 0001H 06C4H 0002H 000DH
00:0054 E0-A0 5A-F2              5222   	sb	0f25ah.6
                                 5223   
                                 5224   ;;	PB7C1  = 1;		// PortB Bit7 set to CMOS Output...
                                 5225   CLINEA 0000H 0001H 06C5H 0002H 0031H
00:0058 F0-A0 5B-F2              5226   	sb	0f25bh.7
                                 5227   
                                 5228   ;;	PB7C0  = 1;	
                                 5229   CLINEA 0000H 0001H 06C6H 0002H 000DH
00:005C F0-A0 5A-F2              5230   	sb	0f25ah.7
                                 5231   
                                 5232   ;;	PB0MD1  = 0;	// PortB Bit0 set to General Purpose Output...
                                 5233   CLINEA 0000H 0001H 06C9H 0002H 003CH
00:0060 82-A0 5D-F2              5234   	rb	0f25dh.0
                                 5235   
                                 5236   ;;	PB0MD0  = 0;	
                                 5237   CLINEA 0000H 0001H 06CAH 0002H 000EH
00:0064 82-A0 5C-F2              5238   	rb	0f25ch.0
                                 5239   
                                 5240   ;;	PB1MD1  = 0;	// PortB Bit1 set to General Purpose Output...
                                 5241   CLINEA 0000H 0001H 06CBH 0002H 003CH
00:0068 92-A0 5D-F2              5242   	rb	0f25dh.1
                                 5243   
                                 5244   ;;	PB1MD0  = 0;	
                                 5245   CLINEA 0000H 0001H 06CCH 0002H 000EH
00:006C 92-A0 5C-F2              5246   	rb	0f25ch.1
                                 5247   
                                 5248   ;;	PB2MD1  = 0;	// PortB Bit2 set to General Purpose Output...
                                 5249   CLINEA 0000H 0001H 06CDH 0002H 003CH
00:0070 A2-A0 5D-F2              5250   	rb	0f25dh.2
                                 5251   
                                 5252   ;;	PB2MD0  = 0;	
                                 5253   CLINEA 0000H 0001H 06CEH 0002H 000EH
00:0074 A2-A0 5C-F2              5254   	rb	0f25ch.2
                                 5255   
                                 5256   ;;	PB3MD1  = 0;	// PortB Bit3 set to General Purpose Output...
                                 5257   CLINEA 0000H 0001H 06CFH 0002H 003CH
00:0078 B2-A0 5D-F2              5258   	rb	0f25dh.3
                                 5259   
                                 5260   ;;	PB3MD0  = 0;	
                                 5261   CLINEA 0000H 0001H 06D0H 0002H 000EH
00:007C B2-A0 5C-F2              5262   	rb	0f25ch.3
                                 5263   
                                 5264   ;;	PB4MD1  = 0;	// PortB Bit4 set to General Purpose Output...
                                 5265   CLINEA 0000H 0001H 06D1H 0002H 003CH
00:0080 C2-A0 5D-F2              5266   	rb	0f25dh.4
                                 5267   
                                 5268   ;;	PB4MD0  = 0;	
                                 5269   CLINEA 0000H 0001H 06D2H 0002H 000EH
00:0084 C2-A0 5C-F2              5270   	rb	0f25ch.4
                                 5271   
                                 5272   ;;	PB5MD1  = 0;	// PortB Bit5 set to General Purpose Output...
                                 5273   CLINEA 0000H 0001H 06D3H 0002H 003CH
00:0088 D2-A0 5D-F2              5274   	rb	0f25dh.5
                                 5275   
                                 5276   ;;	PB5MD0  = 0;
                                 5277   CLINEA 0000H 0001H 06D4H 0002H 000DH
00:008C D2-A0 5C-F2              5278   	rb	0f25ch.5
                                 5279   
                                 5280   ;;	PB6MD1  = 0;	// PortB Bit6 set to General Purpose Output...
                                 5281   CLINEA 0000H 0001H 06D5H 0002H 003CH
00:0090 E2-A0 5D-F2              5282   	rb	0f25dh.6
                                 5283   
                                 5284   ;;	PB6MD0  = 0;	
                                 5285   CLINEA 0000H 0001H 06D6H 0002H 000EH
00:0094 E2-A0 5C-F2              5286   	rb	0f25ch.6
                                 5287   
                                 5288   ;;	PB7MD1  = 0;	// PortB Bit7 set to General Purpose Output...
                                 5289   CLINEA 0000H 0001H 06D7H 0002H 003CH
00:0098 F2-A0 5D-F2              5290   	rb	0f25dh.7
                                 5291   
                                 5292   ;;	PB7MD0  = 0;
                                 5293   CLINEA 0000H 0001H 06D8H 0002H 000DH
00:009C F2-A0 5C-F2              5294   	rb	0f25ch.7
                                 5295   
                                 5296   ;;	PB0D = 0;		// B.0 Output OFF....
                                 5297   CLINEA 0000H 0001H 06DBH 0002H 0021H
00:00A0 82-A0 58-F2              5298   	rb	0f258h.0
                                 5299   
                                 5300   ;;	PB1D = 0;		// B.1 Output OFF....
                                 5301   CLINEA 0000H 0001H 06DCH 0002H 0021H
00:00A4 92-A0 58-F2              5302   	rb	0f258h.1
                                 5303   
                                 5304   ;;	PB2D = 0;		// B.2 Output OFF....
                                 5305   CLINEA 0000H 0001H 06DDH 0002H 0021H
00:00A8 A2-A0 58-F2              5306   	rb	0f258h.2
                                 5307   
                                 5308   ;;	PB3D = 0;		// B.3 Output OFF....
                                 5309   CLINEA 0000H 0001H 06DEH 0002H 0021H
00:00AC B2-A0 58-F2              5310   	rb	0f258h.3
                                 5311   
                                 5312   ;;	PB4D = 0;		// B.4 Output OFF....
                                 5313   CLINEA 0000H 0001H 06DFH 0002H 0021H
00:00B0 C2-A0 58-F2              5314   	rb	0f258h.4
                                 5315   
                                 5316   ;;	PB5D = 0;		// B.5 Output OFF....
                                 5317   CLINEA 0000H 0001H 06E0H 0002H 0021H
00:00B4 D2-A0 58-F2              5318   	rb	0f258h.5
                                 5319   
                                 5320   ;;	PB6D = 0;		// B.6 Output OFF....
                                 5321   CLINEA 0000H 0001H 06E1H 0002H 0021H
00:00B8 E2-A0 58-F2              5322   	rb	0f258h.6
                                 5323   
                                 5324   ;;	PB7D = 0;		// B.7 Output OFF....
                                 5325   CLINEA 0000H 0001H 06E2H 0002H 0021H
00:00BC F2-A0 58-F2              5326   	rb	0f258h.7
                                 5327   
                                 5328   ;;	main_clrWDT(); 	// Clear WDT
                                 5329   CLINEA 0000H 0001H 06E4H 0002H 001DH
00:00C0 00-F0'00-00'             5330   	b	_main_clrWDT
                                 5331   CBLOCKEND 183 2 1765
                                 5332   CLINEA 0000H 0001H 06E5H 0001H 0001H
                                 5333   CBLOCKEND 183 1 1765
                                 5334   CFUNCTIONEND 183
                                 5335   
                                 5336   
  --------------------------     5337   	rseg $$PortC_Low$main
                                 5338   CFUNCTION 184
                                 5339   
00:0000                          5340   _PortC_Low	:
                                 5341   CBLOCK 184 1 1771
                                 5342   
                                 5343   ;;void PortC_Low(void){
                                 5344   CLINEA 0000H 0001H 06EBH 0001H 0015H
                                 5345   CBLOCK 184 2 1771
                                 5346   
                                 5347   ;;	PC0DIR = 0;		// PortC Bit0 set to Output Mode...
                                 5348   CLINEA 0000H 0001H 06F5H 0002H 0031H
00:0000 82-A0 61-F2              5349   	rb	0f261h.0
                                 5350   
                                 5351   ;;	PC1DIR = 0;		// PortC Bit1 set to Output Mode...
                                 5352   CLINEA 0000H 0001H 06F6H 0002H 0031H
00:0004 92-A0 61-F2              5353   	rb	0f261h.1
                                 5354   
                                 5355   ;;	PC2DIR = 0;		// PortC Bit2 set to Output Mode...
                                 5356   CLINEA 0000H 0001H 06F7H 0002H 0031H
00:0008 A2-A0 61-F2              5357   	rb	0f261h.2
                                 5358   
                                 5359   ;;	PC3DIR = 0;		// PortC Bit3 set to Output Mode...
                                 5360   CLINEA 0000H 0001H 06F8H 0002H 0031H
00:000C B2-A0 61-F2              5361   	rb	0f261h.3
                                 5362   
                                 5363   ;;	PC4DIR = 0;		// PortC Bit4 set to Output Mode...
                                 5364   CLINEA 0000H 0001H 06F9H 0002H 0031H
00:0010 C2-A0 61-F2              5365   	rb	0f261h.4
                                 5366   
                                 5367   ;;	PC5DIR = 0;		// PortC Bit5 set to Output Mode...
                                 5368   CLINEA 0000H 0001H 06FAH 0002H 0031H
00:0014 D2-A0 61-F2              5369   	rb	0f261h.5
                                 5370   
                                 5371   ;;	PC6DIR = 0;		// PortC Bit6 set to Output Mode...
                                 5372   CLINEA 0000H 0001H 06FBH 0002H 0031H
00:0018 E2-A0 61-F2              5373   	rb	0f261h.6
                                 5374   
                                 5375   ;;	PC7DIR = 0;		// PortC Bit7 set to Output Mode...
                                 5376   CLINEA 0000H 0001H 06FCH 0002H 0031H
00:001C F2-A0 61-F2              5377   	rb	0f261h.7
                                 5378   
                                 5379   ;;	PC0C1  = 1;		// PortC Bit0 set to High-Impedance Output...
                                 5380   CLINEA 0000H 0001H 06FFH 0002H 003BH
00:0020 80-A0 63-F2              5381   	sb	0f263h.0
                                 5382   
                                 5383   ;;	PC0C0  = 1;		
                                 5384   CLINEA 0000H 0001H 0700H 0002H 000EH
00:0024 80-A0 62-F2              5385   	sb	0f262h.0
                                 5386   
                                 5387   ;;	PC1C1  = 1;		// PortC Bit1 set to High-Impedance Output...
                                 5388   CLINEA 0000H 0001H 0701H 0002H 003BH
00:0028 90-A0 63-F2              5389   	sb	0f263h.1
                                 5390   
                                 5391   ;;	PC1C0  = 1;	
                                 5392   CLINEA 0000H 0001H 0702H 0002H 000DH
00:002C 90-A0 62-F2              5393   	sb	0f262h.1
                                 5394   
                                 5395   ;;	PC2C1  = 1;		// PortC Bit2 set to High-Impedance Output...
                                 5396   CLINEA 0000H 0001H 0703H 0002H 003BH
00:0030 A0-A0 63-F2              5397   	sb	0f263h.2
                                 5398   
                                 5399   ;;	PC2C0  = 1;	
                                 5400   CLINEA 0000H 0001H 0704H 0002H 000DH
00:0034 A0-A0 62-F2              5401   	sb	0f262h.2
                                 5402   
                                 5403   ;;	PC3C1  = 1;		// PortC Bit3 set to High-Impedance Output...
                                 5404   CLINEA 0000H 0001H 0705H 0002H 003BH
00:0038 B0-A0 63-F2              5405   	sb	0f263h.3
                                 5406   
                                 5407   ;;	PC3C0  = 1;		
                                 5408   CLINEA 0000H 0001H 0706H 0002H 000EH
00:003C B0-A0 62-F2              5409   	sb	0f262h.3
                                 5410   
                                 5411   ;;	PC4C1  = 1;		// PortC Bit4 set to High-Impedance Output...
                                 5412   CLINEA 0000H 0001H 0707H 0002H 003BH
00:0040 C0-A0 63-F2              5413   	sb	0f263h.4
                                 5414   
                                 5415   ;;	PC4C0  = 1;	
                                 5416   CLINEA 0000H 0001H 0708H 0002H 000DH
00:0044 C0-A0 62-F2              5417   	sb	0f262h.4
                                 5418   
                                 5419   ;;	PC5C1  = 1;		// PortC Bit5 set to High-Impedance Output...
                                 5420   CLINEA 0000H 0001H 0709H 0002H 003BH
00:0048 D0-A0 63-F2              5421   	sb	0f263h.5
                                 5422   
                                 5423   ;;	PC5C0  = 1;	
                                 5424   CLINEA 0000H 0001H 070AH 0002H 000DH
00:004C D0-A0 62-F2              5425   	sb	0f262h.5
                                 5426   
                                 5427   ;;	PC6C1  = 1;		// PortC Bit6 set to High-Impedance Output...
                                 5428   CLINEA 0000H 0001H 070BH 0002H 003BH
00:0050 E0-A0 63-F2              5429   	sb	0f263h.6
                                 5430   
                                 5431   ;;	PC6C0  = 1;	
                                 5432   CLINEA 0000H 0001H 070CH 0002H 000DH
00:0054 E0-A0 62-F2              5433   	sb	0f262h.6
                                 5434   
                                 5435   ;;	PC7C1  = 1;		// PortC Bit7 set to High-Impedance Output...
                                 5436   CLINEA 0000H 0001H 070DH 0002H 003BH
00:0058 F0-A0 63-F2              5437   	sb	0f263h.7
                                 5438   
                                 5439   ;;	PC7C0  = 1;	
                                 5440   CLINEA 0000H 0001H 070EH 0002H 000DH
00:005C F0-A0 62-F2              5441   	sb	0f262h.7
                                 5442   
                                 5443   ;;	PC0MD1  = 0;	// PortC Bit0 set to General Purpose Output...
                                 5444   CLINEA 0000H 0001H 0711H 0002H 003CH
00:0060 82-A0 65-F2              5445   	rb	0f265h.0
                                 5446   
                                 5447   ;;	PC0MD0  = 0;	
                                 5448   CLINEA 0000H 0001H 0712H 0002H 000EH
00:0064 82-A0 64-F2              5449   	rb	0f264h.0
                                 5450   
                                 5451   ;;	PC1MD1  = 0;	// PortC Bit1 set to General Purpose Output...
                                 5452   CLINEA 0000H 0001H 0713H 0002H 003CH
00:0068 92-A0 65-F2              5453   	rb	0f265h.1
                                 5454   
                                 5455   ;;	PC1MD0  = 0;	
                                 5456   CLINEA 0000H 0001H 0714H 0002H 000EH
00:006C 92-A0 64-F2              5457   	rb	0f264h.1
                                 5458   
                                 5459   ;;	PC2MD1  = 0;	// PortC Bit2 set to General Purpose Output...
                                 5460   CLINEA 0000H 0001H 0715H 0002H 003CH
00:0070 A2-A0 65-F2              5461   	rb	0f265h.2
                                 5462   
                                 5463   ;;	PC2MD0  = 0;	
                                 5464   CLINEA 0000H 0001H 0716H 0002H 000EH
00:0074 A2-A0 64-F2              5465   	rb	0f264h.2
                                 5466   
                                 5467   ;;	PC3MD1  = 0;	// PortC Bit3 set to General Purpose Output...
                                 5468   CLINEA 0000H 0001H 0717H 0002H 003CH
00:0078 B2-A0 65-F2              5469   	rb	0f265h.3
                                 5470   
                                 5471   ;;	PC3MD0  = 0;	
                                 5472   CLINEA 0000H 0001H 0718H 0002H 000EH
00:007C B2-A0 64-F2              5473   	rb	0f264h.3
                                 5474   
                                 5475   ;;	PC4MD1  = 0;	// PortC Bit4 set to General Purpose Output...
                                 5476   CLINEA 0000H 0001H 0719H 0002H 003CH
00:0080 C2-A0 65-F2              5477   	rb	0f265h.4
                                 5478   
                                 5479   ;;	PC4MD0  = 0;	
                                 5480   CLINEA 0000H 0001H 071AH 0002H 000EH
00:0084 C2-A0 64-F2              5481   	rb	0f264h.4
                                 5482   
                                 5483   ;;	PC5MD1  = 0;	// PortC Bit5 set to General Purpose Output...
                                 5484   CLINEA 0000H 0001H 071BH 0002H 003CH
00:0088 D2-A0 65-F2              5485   	rb	0f265h.5
                                 5486   
                                 5487   ;;	PC5MD0  = 0;
                                 5488   CLINEA 0000H 0001H 071CH 0002H 000DH
00:008C D2-A0 64-F2              5489   	rb	0f264h.5
                                 5490   
                                 5491   ;;	PC6MD1  = 0;	// PortC Bit6 set to General Purpose Output...
                                 5492   CLINEA 0000H 0001H 071DH 0002H 003CH
00:0090 E2-A0 65-F2              5493   	rb	0f265h.6
                                 5494   
                                 5495   ;;	PC6MD0  = 0;	
                                 5496   CLINEA 0000H 0001H 071EH 0002H 000EH
00:0094 E2-A0 64-F2              5497   	rb	0f264h.6
                                 5498   
                                 5499   ;;	PC7MD1  = 0;	// PortC Bit7 set to General Purpose Output...
                                 5500   CLINEA 0000H 0001H 071FH 0002H 003CH
00:0098 F2-A0 65-F2              5501   	rb	0f265h.7
                                 5502   
                                 5503   ;;	PC7MD0  = 0;
                                 5504   CLINEA 0000H 0001H 0720H 0002H 000DH
00:009C F2-A0 64-F2              5505   	rb	0f264h.7
                                 5506   
                                 5507   ;;	PC0D = 0;		// C.0 Output OFF....
                                 5508   CLINEA 0000H 0001H 0723H 0002H 0021H
00:00A0 82-A0 60-F2              5509   	rb	0f260h.0
                                 5510   
                                 5511   ;;	PC1D = 0;		// C.1 Output OFF....
                                 5512   CLINEA 0000H 0001H 0724H 0002H 0021H
00:00A4 92-A0 60-F2              5513   	rb	0f260h.1
                                 5514   
                                 5515   ;;	PC2D = 0;		// C.2 Output OFF....
                                 5516   CLINEA 0000H 0001H 0725H 0002H 0021H
00:00A8 A2-A0 60-F2              5517   	rb	0f260h.2
                                 5518   
                                 5519   ;;	PC3D = 0;		// C.3 Output OFF....
                                 5520   CLINEA 0000H 0001H 0726H 0002H 0021H
00:00AC B2-A0 60-F2              5521   	rb	0f260h.3
                                 5522   
                                 5523   ;;	PC4D = 0;		// C.4 Output OFF....
                                 5524   CLINEA 0000H 0001H 0727H 0002H 0021H
00:00B0 C2-A0 60-F2              5525   	rb	0f260h.4
                                 5526   
                                 5527   ;;	PC5D = 0;		// C.5 Output OFF....
                                 5528   CLINEA 0000H 0001H 0728H 0002H 0021H
00:00B4 D2-A0 60-F2              5529   	rb	0f260h.5
                                 5530   
                                 5531   ;;	PC6D = 0;		// C.6 Output OFF....
                                 5532   CLINEA 0000H 0001H 0729H 0002H 0021H
00:00B8 E2-A0 60-F2              5533   	rb	0f260h.6
                                 5534   
                                 5535   ;;	PC7D = 0;		// C.7 Output OFF....
                                 5536   CLINEA 0000H 0001H 072AH 0002H 0021H
00:00BC F2-A0 60-F2              5537   	rb	0f260h.7
                                 5538   
                                 5539   ;;	main_clrWDT(); 	// Clear WDT
                                 5540   CLINEA 0000H 0001H 072CH 0002H 001DH
00:00C0 00-F0'00-00'             5541   	b	_main_clrWDT
                                 5542   CBLOCKEND 184 2 1838
                                 5543   CLINEA 0000H 0001H 072EH 0001H 0001H
                                 5544   CBLOCKEND 184 1 1838
                                 5545   CFUNCTIONEND 184
                                 5546   
                                 5547   
  --------------------------     5548   	rseg $$PortD_Low$main
                                 5549   CFUNCTION 185
                                 5550   
00:0000                          5551   _PortD_Low	:
                                 5552   CBLOCK 185 1 1844
                                 5553   
                                 5554   ;;void PortD_Low(void){
                                 5555   CLINEA 0000H 0001H 0734H 0001H 0015H
                                 5556   CBLOCK 185 2 1844
                                 5557   
                                 5558   ;;	PD0DIR = 1;		// PortD Bit0 set to Input Mode...
                                 5559   CLINEA 0000H 0001H 073DH 0002H 0030H
00:0000 80-A0 69-F2              5560   	sb	0f269h.0
                                 5561   
                                 5562   ;;	PD1DIR = 1;		// PortD Bit1 set to Input Mode...
                                 5563   CLINEA 0000H 0001H 073EH 0002H 0030H
00:0004 90-A0 69-F2              5564   	sb	0f269h.1
                                 5565   
                                 5566   ;;	PD2DIR = 1;		// PortD Bit2 set to Input Mode...
                                 5567   CLINEA 0000H 0001H 073FH 0002H 0030H
00:0008 A0-A0 69-F2              5568   	sb	0f269h.2
                                 5569   
                                 5570   ;;	PD3DIR = 1;		// PortD Bit3 set to Input Mode...
                                 5571   CLINEA 0000H 0001H 0740H 0002H 0030H
00:000C B0-A0 69-F2              5572   	sb	0f269h.3
                                 5573   
                                 5574   ;;	PD4DIR = 1;		// PortD Bit4 set to Input Mode...
                                 5575   CLINEA 0000H 0001H 0741H 0002H 0030H
00:0010 C0-A0 69-F2              5576   	sb	0f269h.4
                                 5577   
                                 5578   ;;	PD5DIR = 1;		// PortD Bit5 set to Input Mode...
                                 5579   CLINEA 0000H 0001H 0742H 0002H 0030H
00:0014 D0-A0 69-F2              5580   	sb	0f269h.5
                                 5581   
                                 5582   ;;	PD0C1= 1;		// PortD Bit0 set to High-impedance input...
                                 5583   CLINEA 0000H 0001H 0745H 0002H 0038H
00:0018 80-A0 6B-F2              5584   	sb	0f26bh.0
                                 5585   
                                 5586   ;;	PD0C0= 1;		
                                 5587   CLINEA 0000H 0001H 0746H 0002H 000CH
00:001C 80-A0 6A-F2              5588   	sb	0f26ah.0
                                 5589   
                                 5590   ;;	PD1C1= 1;		// PortD Bit1 set to High-impedance input...
                                 5591   CLINEA 0000H 0001H 0747H 0002H 0038H
00:0020 90-A0 6B-F2              5592   	sb	0f26bh.1
                                 5593   
                                 5594   ;;	PD1C0= 1;	
                                 5595   CLINEA 0000H 0001H 0748H 0002H 000BH
00:0024 90-A0 6A-F2              5596   	sb	0f26ah.1
                                 5597   
                                 5598   ;;	PD2C1= 1;		// PortD Bit2 set to High-impedance input...
                                 5599   CLINEA 0000H 0001H 0749H 0002H 0038H
00:0028 A0-A0 6B-F2              5600   	sb	0f26bh.2
                                 5601   
                                 5602   ;;	PD2C0= 1;	
                                 5603   CLINEA 0000H 0001H 074AH 0002H 000BH
00:002C A0-A0 6A-F2              5604   	sb	0f26ah.2
                                 5605   
                                 5606   ;;	PD3C1= 1;		// PortD Bit3 set to High-impedance input...
                                 5607   CLINEA 0000H 0001H 074BH 0002H 0038H
00:0030 B0-A0 6B-F2              5608   	sb	0f26bh.3
                                 5609   
                                 5610   ;;	PD3C0= 1;		
                                 5611   CLINEA 0000H 0001H 074CH 0002H 000CH
00:0034 B0-A0 6A-F2              5612   	sb	0f26ah.3
                                 5613   
                                 5614   ;;	PD4C1= 1;		// PortD Bit4 set to High-impedance input...
                                 5615   CLINEA 0000H 0001H 074DH 0002H 0038H
00:0038 C0-A0 6B-F2              5616   	sb	0f26bh.4
                                 5617   
                                 5618   ;;	PD4C0= 1;	
                                 5619   CLINEA 0000H 0001H 074EH 0002H 000BH
00:003C C0-A0 6A-F2              5620   	sb	0f26ah.4
                                 5621   
                                 5622   ;;	PD5C1= 1;		// PortD Bit5 set to High-impedance input...
                                 5623   CLINEA 0000H 0001H 074FH 0002H 0038H
00:0040 D0-A0 6B-F2              5624   	sb	0f26bh.5
                                 5625   
                                 5626   ;;	PD5C0= 1;	
                                 5627   CLINEA 0000H 0001H 0750H 0002H 000BH
00:0044 D0-A0 6A-F2              5628   	sb	0f26ah.5
                                 5629   
                                 5630   ;;	PD0D = 0;		// D.0 Input OFF....
                                 5631   CLINEA 0000H 0001H 0753H 0002H 0020H
00:0048 82-A0 68-F2              5632   	rb	0f268h.0
                                 5633   
                                 5634   ;;	PD1D = 0;		// D.1 Input OFF....
                                 5635   CLINEA 0000H 0001H 0754H 0002H 0020H
00:004C 92-A0 68-F2              5636   	rb	0f268h.1
                                 5637   
                                 5638   ;;	PD2D = 0;		// D.2 Input OFF....
                                 5639   CLINEA 0000H 0001H 0755H 0002H 0020H
00:0050 A2-A0 68-F2              5640   	rb	0f268h.2
                                 5641   
                                 5642   ;;	PD3D = 0;		// D.3 Input OFF....
                                 5643   CLINEA 0000H 0001H 0756H 0002H 0020H
00:0054 B2-A0 68-F2              5644   	rb	0f268h.3
                                 5645   
                                 5646   ;;	PD4D = 0;		// D.4 Input OFF....
                                 5647   CLINEA 0000H 0001H 0757H 0002H 0020H
00:0058 C2-A0 68-F2              5648   	rb	0f268h.4
                                 5649   
                                 5650   ;;	PD5D = 0;		// D.5 Input OFF....
                                 5651   CLINEA 0000H 0001H 0758H 0002H 0020H
00:005C D2-A0 68-F2              5652   	rb	0f268h.5
                                 5653   
                                 5654   ;;	main_clrWDT(); 	// Clear WDT
                                 5655   CLINEA 0000H 0001H 075AH 0002H 001DH
00:0060 00-F0'00-00'             5656   	b	_main_clrWDT
                                 5657   CBLOCKEND 185 2 1883
                                 5658   CLINEA 0000H 0001H 075BH 0001H 0001H
                                 5659   CBLOCKEND 185 1 1883
                                 5660   CFUNCTIONEND 185
                                 5661   
                                 5662   
  --------------------------     5663   	rseg $$NOPms$main
                                 5664   CFUNCTION 196
                                 5665   
00:0000                          5666   _NOPms	:
                                 5667   CBLOCK 196 1 1897
                                 5668   
                                 5669   ;;{
                                 5670   CLINEA 0000H 0001H 0769H 0001H 0001H
00:0000 CE-F8                    5671   	push	lr
00:0002 6E-F4                    5672   	push	xr4
00:0004 5E-FC                    5673   	push	bp
00:0006 5E-F8                    5674   	push	er8
00:0008 05-F8                    5675   	mov	er8,	er0
                                 5676   CBLOCK 196 2 1897
                                 5677   CRET 0008H
                                 5678   CARGUMENT 46H 0002H 0028H "ms" 02H 00H 01H
                                 5679   CLOCAL 46H 0002H 002AH 0002H "timerThres" 02H 00H 01H
                                 5680   CLOCAL 46H 0001H 001AH 0002H "TimeFlag" 02H 00H 00H
                                 5681   CLOCAL 46H 0002H 0026H 0002H "TempSec" 02H 00H 01H
                                 5682   CLOCAL 46H 0002H 0024H 0002H "timer" 02H 00H 01H
                                 5683   CLOCAL 4AH 0002H 0000H 0002H "timertest" 02H 00H 01H
                                 5684   
                                 5685   ;;	TempSec = ms;
                                 5686   CLINEA 0000H 0001H 0770H 0002H 000EH
00:000A 05-F4                    5687   	mov	er4,	er0
                                 5688   
                                 5689   ;;	TimeFlag = 0;
                                 5690   CLINEA 0000H 0001H 0771H 0002H 000EH
00:000C 00 06                    5691   	mov	r6,	#00h
                                 5692   
                                 5693   ;;	tm_init(TM_CH_NO_AB);
                                 5694   CLINEA 0000H 0001H 0773H 0002H 0016H
00:000E 01 00                    5695   	mov	r0,	#01h
00:0010 01-F0'00-00'             5696   	bl	_tm_init
                                 5697   
                                 5698   ;;	tm_setABSource(TM_CS_HTBCLK);
                                 5699   CLINEA 0000H 0000H 018DH 0002H 0015H
00:0014 80-A0 EA-F8              5700   	sb	0f8eah.0
                                 5701   
                                 5702   ;;	tm_setABSource(TM_CS_HTBCLK);
                                 5703   CLINEA 0000H 0000H 018EH 0002H 001AH
00:0018 92-A0 EA-F8              5704   	rb	0f8eah.1
                                 5705   
                                 5706   ;;	tm_setABData(0xffff);
                                 5707   CLINEA 0000H 0000H 0157H 0002H 0025H
00:001C FF 00                    5708   	mov	r0,	#0ffh
00:001E 11-90 E8-F8              5709   	st	r0,	0f8e8h
                                 5710   
                                 5711   ;;	tm_setABData(0xffff);
                                 5712   CLINEA 0000H 0000H 0158H 0002H 0023H
00:0022 11-90 EC-F8              5713   	st	r0,	0f8ech
                                 5714   
                                 5715   ;;	if(ms < 128){
                                 5716   CLINEA 0000H 0001H 0777H 0002H 000EH
00:0026 85-F0                    5717   	mov	er0,	er8
00:0028 80 78                    5718   	cmp	r8,	#080h
00:002A 00 59                    5719   	cmpc	r9,	#00h
00:002C 07 C0                    5720   	bge	_$L302
                                 5721   CBLOCK 196 3 1911
                                 5722   
                                 5723   ;;		timerThres = 0x1FF * ms;
                                 5724   CLINEA 0000H 0001H 0778H 0003H 001AH
00:002E 7B-91                    5725   	sllc	r1,	#07h
00:0030 7A-90                    5726   	sll	r0,	#07h
00:0032 2B-91                    5727   	sllc	r1,	#02h
00:0034 2A-90                    5728   	sll	r0,	#02h
00:0036 88-80                    5729   	sub	r0,	r8
00:0038 99-81                    5730   	subc	r1,	r9
00:003A 05-FC                    5731   	mov	bp,	er0
                                 5732   
                                 5733   ;;		TimeFlag = 0;
                                 5734   CLINEA 0000H 0001H 0779H 0003H 000FH
                                 5735   CBLOCKEND 196 3 1914
                                 5736   
                                 5737   ;;	}
                                 5738   CLINEA 0000H 0000H 077AH 0002H 0002H
00:003C                          5739   _$L302 :
                                 5740   
                                 5741   ;;	if(ms == 128){
                                 5742   CLINEA 0000H 0001H 077BH 0002H 000FH
00:003C 80 78                    5743   	cmp	r8,	#080h
00:003E 00 59                    5744   	cmpc	r9,	#00h
00:0040 02 C8                    5745   	bne	_$L304
                                 5746   CBLOCK 196 4 1915
                                 5747   
                                 5748   ;;		timerThres = 0xFFFF;
                                 5749   CLINEA 0000H 0001H 077CH 0003H 0016H
00:0042 7F EC                    5750   	mov	bp,	#-1
                                 5751   
                                 5752   ;;		TimeFlag = 0;
                                 5753   CLINEA 0000H 0001H 077DH 0003H 000FH
00:0044 00 06                    5754   	mov	r6,	#00h
                                 5755   CBLOCKEND 196 4 1918
                                 5756   
                                 5757   ;;	}
                                 5758   CLINEA 0000H 0000H 077EH 0002H 0002H
00:0046                          5759   _$L304 :
                                 5760   
                                 5761   ;;	if(ms > 128){
                                 5762   CLINEA 0000H 0001H 077FH 0002H 000EH
00:0046 80 78                    5763   	cmp	r8,	#080h
00:0048 00 59                    5764   	cmpc	r9,	#00h
00:004A 15 C3                    5765   	ble	_$L314
                                 5766   CBLOCK 196 5 1919
                                 5767   
                                 5768   ;;		while(TempSec > 128){
                                 5769   CLINEA 0000H 0000H 0780H 0001H 0001H
00:004C 04 CE                    5770   	bal	_$L324
                                 5771   
                                 5772   ;;		while(TempSec > 128){
                                 5773   CLINEA 0000H 0000H 0780H 0003H 0017H
00:004E                          5774   _$L310 :
                                 5775   CBLOCK 196 6 1920
                                 5776   
                                 5777   ;;			TempSec -= 128;
                                 5778   CLINEA 0000H 0001H 0781H 0004H 0012H
00:004E 80 10                    5779   	add	r0,	#080h
00:0050 FF 61                    5780   	addc	r1,	#0ffh
00:0052 05-F4                    5781   	mov	er4,	er0
                                 5782   
                                 5783   ;;			TimeFlag++;
                                 5784   CLINEA 0000H 0000H 0782H 0004H 000EH
00:0054 01 16                    5785   	add	r6,	#01h
                                 5786   CBLOCKEND 196 6 1923
                                 5787   
                                 5788   ;;		while(TempSec > 128){
                                 5789   CLINEA 0000H 0000H 0780H 0001H 0001H
00:0056                          5790   _$L324 :
00:0056 45-F0                    5791   	mov	er0,	er4
00:0058 80 74                    5792   	cmp	r4,	#080h
00:005A 00 55                    5793   	cmpc	r5,	#00h
00:005C F8 C2                    5794   	bgt	_$L310
                                 5795   
                                 5796   ;;		if(TempSec != 0){
                                 5797   CLINEA 0000H 0001H 0784H 0003H 0013H
00:005E 45-F4                    5798   	mov	er4,	er4
00:0060 08 C9                    5799   	beq	_$L312
                                 5800   CBLOCK 196 7 1924
                                 5801   
                                 5802   ;;			timerThres = 0x1FF * TempSec;
                                 5803   CLINEA 0000H 0001H 0785H 0004H 0020H
00:0062 7B-91                    5804   	sllc	r1,	#07h
00:0064 7A-90                    5805   	sll	r0,	#07h
00:0066 2B-91                    5806   	sllc	r1,	#02h
00:0068 2A-90                    5807   	sll	r0,	#02h
00:006A 48-80                    5808   	sub	r0,	r4
00:006C 59-81                    5809   	subc	r1,	r5
00:006E 05-FC                    5810   	mov	bp,	er0
                                 5811   CBLOCKEND 196 7 1926
                                 5812   
                                 5813   ;;		else{
                                 5814   CLINEA 0000H 0001H 0787H 0003H 0007H
00:0070 02 CE                    5815   	bal	_$L314
00:0072                          5816   _$L312 :
                                 5817   CBLOCK 196 8 1927
                                 5818   
                                 5819   ;;			timerThres = 0xFFFF;
                                 5820   CLINEA 0000H 0001H 0788H 0004H 0017H
00:0072 7F EC                    5821   	mov	bp,	#-1
                                 5822   
                                 5823   ;;			TimeFlag--;
                                 5824   CLINEA 0000H 0000H 0789H 0004H 000EH
00:0074 FF 16                    5825   	add	r6,	#0ffh
                                 5826   CBLOCKEND 196 8 1930
                                 5827   
                                 5828   ;;		}
                                 5829   CLINEA 0000H 0000H 078AH 0003H 0003H
00:0076                          5830   _$L314 :
                                 5831   CBLOCKEND 196 5 1931
                                 5832   
                                 5833   ;;	main_clrWDT();	
                                 5834   CLINEA 0000H 0001H 078EH 0002H 0010H
00:0076 01-F0'00-00'             5835   	bl	_main_clrWDT
                                 5836   
                                 5837   ;;	tm_startAB();
                                 5838   CLINEA 0000H 0001H 00D1H 0002H 000AH
00:007A 00 00                    5839   	mov	r0,	#00h
00:007C 11-90 E9-F8              5840   	st	r0,	0f8e9h
                                 5841   
                                 5842   ;;	tm_startAB();
                                 5843   CLINEA 0000H 0000H 00D2H 0002H 000BH
00:0080 80-A0 EB-F8              5844   	sb	0f8ebh.0
                                 5845   
                                 5846   ;;	timer = tm_getABCounter();
                                 5847   CLINEA 0000H 0000H 0120H 0002H 001BH
00:0084 10-90 E9-F8              5848   	l	r0,	0f8e9h
00:0088 00 01                    5849   	mov	r1,	#00h
00:008A 05-F2                    5850   	mov	er2,	er0
                                 5851   
                                 5852   ;;	timer = tm_getABCounter();
                                 5853   CLINEA 0000H 0000H 0121H 0002H 0014H
00:008C 10-90 ED-F8              5854   	l	r0,	0f8edh
00:0090 03-83                    5855   	or	r3,	r0
                                 5856   
                                 5857   ;;	timer = tm_getABCounter();
                                 5858   CLINEA 0000H 0000H 0122H 0002H 000CH
00:0092 25-F0                    5859   	mov	er0,	er2
                                 5860   
                                 5861   ;;	while(timer < timerThres){
                                 5862   CLINEA 0000H 0001H 0792H 0002H 001BH
00:0094 08 CE                    5863   	bal	_$L317
00:0096                          5864   _$L319 :
                                 5865   CBLOCK 196 9 1938
                                 5866   
                                 5867   ;;		timer = tm_getABCounter();
                                 5868   CLINEA 0000H 0000H 0120H 0002H 001BH
00:0096 10-90 E9-F8              5869   	l	r0,	0f8e9h
00:009A 00 01                    5870   	mov	r1,	#00h
00:009C 05-F2                    5871   	mov	er2,	er0
                                 5872   
                                 5873   ;;		timer = tm_getABCounter();
                                 5874   CLINEA 0000H 0000H 0121H 0002H 0014H
00:009E 10-90 ED-F8              5875   	l	r0,	0f8edh
00:00A2 03-83                    5876   	or	r3,	r0
                                 5877   
                                 5878   ;;		timer = tm_getABCounter();
                                 5879   CLINEA 0000H 0000H 0122H 0002H 000CH
00:00A4 25-F0                    5880   	mov	er0,	er2
                                 5881   
                                 5882   ;;		timer = tm_getABCounter();
                                 5883   CLINEA 0000H 0000H 0793H 0003H 001CH
                                 5884   CBLOCKEND 196 9 1941
                                 5885   
                                 5886   ;;	}
                                 5887   CLINEA 0000H 0000H 0795H 0002H 0002H
00:00A6                          5888   _$L317 :
                                 5889   
                                 5890   ;;	while(timer < timerThres){
                                 5891   CLINEA 0000H 0000H 0792H 0000H 0000H
00:00A6 C7-F0                    5892   	cmp	er0,	bp
00:00A8 F6 C1                    5893   	blt	_$L319
                                 5894   
                                 5895   ;;	if(TimeFlag !=0){
                                 5896   CLINEA 0000H 0001H 0796H 0002H 0012H
00:00AA 00 76                    5897   	cmp	r6,	#00h
00:00AC 05 C9                    5898   	beq	_$L322
                                 5899   
                                 5900   ;;		tm_stopAB();
                                 5901   CLINEA 0000H 0001H 0105H 0002H 000BH
00:00AE 82-A0 EB-F8              5902   	rb	0f8ebh.0
                                 5903   
                                 5904   ;;		TimeFlag--;
                                 5905   CLINEA 0000H 0000H 0798H 0003H 000DH
00:00B2 FF 16                    5906   	add	r6,	#0ffh
                                 5907   
                                 5908   ;;		timerThres = 0xFFFF;
                                 5909   CLINEA 0000H 0001H 0799H 0003H 0016H
00:00B4 7F EC                    5910   	mov	bp,	#-1
                                 5911   
                                 5912   ;;		goto TimerRestart;
                                 5913   CLINEA 0000H 0001H 079AH 0003H 0014H
00:00B6 DF CE                    5914   	bal	_$L314
                                 5915   
                                 5916   ;;	}
                                 5917   CLINEA 0000H 0000H 079BH 0002H 0002H
00:00B8                          5918   _$L322 :
                                 5919   CBLOCKEND 196 2 1948
                                 5920   
                                 5921   ;;}
                                 5922   CLINEA 0000H 0001H 079CH 0001H 0001H
00:00B8 1E-F8                    5923   	pop	er8
00:00BA 1E-FC                    5924   	pop	bp
00:00BC 2E-F4                    5925   	pop	xr4
00:00BE 8E-F2                    5926   	pop	pc
                                 5927   CBLOCKEND 196 1 1948
                                 5928   CFUNCTIONEND 196
                                 5929   
                                 5930   
  --------------------------     5931   	rseg $$ReverseBits$main
                                 5932   CFUNCTION 197
                                 5933   
00:0000                          5934   _ReverseBits	:
                                 5935   CBLOCK 197 1 1958
                                 5936   
                                 5937   ;;{
                                 5938   CLINEA 0000H 0001H 07A6H 0001H 0001H
                                 5939   CBLOCK 197 2 1958
                                 5940   CARGUMENT 46H 0001H 0000H "data" 02H 00H 00H
                                 5941   
                                 5942   ;;");
                                 5943   CLINEA 0000H 0001H 07B4H 0001H 0003H
                                 5944   
00:0000 00-81                    5945   	MOV r1,r0
00:0002 00 00                    5946   	MOV r0,#0
00:0004 08 02                    5947   	MOV r2,#8
00:0006                          5948   _ReverseBits_loop:
00:0006 1A-90                    5949   	SLL r0,#1
00:0008 1C-91                    5950   	SRL r1,#1
00:000A 01 C0                    5951   	BGE _ReverseBits_next
00:000C 01 30                    5952   	OR r0,#1
00:000E                          5953   _ReverseBits_next:
00:000E FF 12                    5954   	ADD	r2,	#0ffh
00:0010 00 72                    5955   	CMP	r2,	#00h
00:0012 F9 C2                    5956   	BGT _ReverseBits_loop
                                 5957   
                                 5958   CBLOCKEND 197 2 1973
                                 5959   
                                 5960   ;;}
                                 5961   CLINEA 0000H 0001H 07B5H 0001H 0001H
00:0014 1F-FE                    5962   	rt
                                 5963   CBLOCKEND 197 1 1973
                                 5964   CFUNCTIONEND 197
                                 5965   
                                 5966   
  --------------------------     5967   	rseg $$FlashLEDs$main
                                 5968   CFUNCTION 198
                                 5969   
00:0000                          5970   _FlashLEDs	:
                                 5971   CBLOCK 198 1 1983
                                 5972   
                                 5973   ;;{
                                 5974   CLINEA 0000H 0001H 07BFH 0001H 0001H
                                 5975   CBLOCK 198 2 1983
                                 5976   
                                 5977   ;;	if(LEDFlashFlag == 0){
                                 5978   CLINEA 0000H 0001H 07C0H 0002H 0017H
00:0000 10-90 00-00'             5979   	l	r0,	NEAR _LEDFlashFlag
00:0004 0F C8                    5980   	bne	_$L327
                                 5981   CBLOCK 198 3 1984
                                 5982   
                                 5983   ;;		if(LEDChangeFlag == 0){
                                 5984   CLINEA 0000H 0001H 07C1H 0003H 0019H
00:0006 10-90 00-00'             5985   	l	r0,	NEAR _LEDChangeFlag
00:000A 05 C8                    5986   	bne	_$L329
                                 5987   CBLOCK 198 4 1985
                                 5988   
                                 5989   ;;			LEDOUT(0xAA);
                                 5990   CLINEA 0000H 0001H 07C2H 0004H 0010H
00:000C AA 00                    5991   	mov	r0,	#0aah
00:000E 11-90 60-F2              5992   	st	r0,	0f260h
                                 5993   
                                 5994   ;;			LEDChangeFlag = 1;
                                 5995   CLINEA 0000H 0001H 07C3H 0004H 0015H
00:0012 01 00                    5996   	mov	r0,	#01h
                                 5997   CBLOCKEND 198 4 1988
                                 5998   
                                 5999   ;;		else{
                                 6000   CLINEA 0000H 0001H 07C5H 0003H 0007H
00:0014 04 CE                    6001   	bal	_$L331
00:0016                          6002   _$L329 :
                                 6003   CBLOCK 198 5 1989
                                 6004   
                                 6005   ;;			LEDOUT(0x55);
                                 6006   CLINEA 0000H 0001H 07C6H 0004H 0010H
00:0016 55 00                    6007   	mov	r0,	#055h
00:0018 11-90 60-F2              6008   	st	r0,	0f260h
                                 6009   
                                 6010   ;;			LEDChangeFlag = 0;
                                 6011   CLINEA 0000H 0001H 07C7H 0004H 0015H
00:001C 00 00                    6012   	mov	r0,	#00h
                                 6013   CBLOCKEND 198 5 1992
                                 6014   
                                 6015   ;;		}
                                 6016   CLINEA 0000H 0000H 07C8H 0003H 0003H
00:001E                          6017   _$L331 :
00:001E 11-90 00-00'             6018   	st	r0,	NEAR _LEDChangeFlag
                                 6019   CBLOCKEND 198 3 1993
                                 6020   
                                 6021   ;;	else{
                                 6022   CLINEA 0000H 0001H 07CAH 0002H 0006H
00:0022 03 CE                    6023   	bal	_$L332
00:0024                          6024   _$L327 :
                                 6025   CBLOCK 198 6 1994
                                 6026   
                                 6027   ;;		LEDOUT(0x00);
                                 6028   CLINEA 0000H 0001H 07CBH 0003H 000FH
00:0024 00 00                    6029   	mov	r0,	#00h
00:0026 11-90 60-F2              6030   	st	r0,	0f260h
                                 6031   CBLOCKEND 198 6 1996
                                 6032   
                                 6033   ;;	}
                                 6034   CLINEA 0000H 0000H 07CCH 0002H 0002H
00:002A                          6035   _$L332 :
                                 6036   
                                 6037   ;;	LEDFlashFlag++;
                                 6038   CLINEA 0000H 0000H 07CDH 0002H 0010H
00:002A 0C-F0 00-00'             6039   	lea	OFFSET _LEDFlashFlag
00:002E 2F-FE                    6040   	inc	[ea]
00:0030 10-90 00-00'             6041   	l	r0,	NEAR _LEDFlashFlag
                                 6042   
                                 6043   ;;	if(LEDFlashFlag >= 4){
                                 6044   CLINEA 0000H 0001H 07CEH 0002H 0017H
00:0034 04 70                    6045   	cmp	r0,	#04h
00:0036 03 C1                    6046   	blt	_$L333
                                 6047   CBLOCK 198 7 1998
                                 6048   
                                 6049   ;;		LEDFlashFlag = 0;
                                 6050   CLINEA 0000H 0001H 07CFH 0003H 0013H
00:0038 00 00                    6051   	mov	r0,	#00h
00:003A 11-90 00-00'             6052   	st	r0,	NEAR _LEDFlashFlag
                                 6053   CBLOCKEND 198 7 2000
                                 6054   
                                 6055   ;;	}
                                 6056   CLINEA 0000H 0000H 07D0H 0002H 0002H
00:003E                          6057   _$L333 :
                                 6058   CBLOCKEND 198 2 2001
                                 6059   
                                 6060   ;;}
                                 6061   CLINEA 0000H 0001H 07D1H 0001H 0001H
00:003E 1F-FE                    6062   	rt
                                 6063   CBLOCKEND 198 1 2001
                                 6064   CFUNCTIONEND 198
                                 6065   
                                 6066   	public _KX022_SELF_TEST
                                 6067   	public _Init_Hall_Effect_Sensors_1
                                 6068   	public _Init_Hall_Effect_Sensors_2
                                 6069   	public _KMX61_WUFC
                                 6070   	public _BH1780GLI_REG_PART_ID
                                 6071   	public _BH1730FVC_CMD_RESET_INT_OUT
                                 6072   	public _KX022_INT_REL
                                 6073   	public _BH1780GLI_REG_DATALOW
                                 6074   	public _BH1721FVC_CONT_A_RES_MOD
                                 6075   	public _BH1710FVC_CONT_H_RES_MOD
                                 6076   	public _BH1721FVC_CONT_H_RES_MOD
                                 6077   	public _MainOp_Hall_Effect_Sensors_1
                                 6078   	public _MainOp_Hall_Effect_Sensors_2
                                 6079   	public _BH1730FVC_REG_THHHIGH
                                 6080   	public _KMX61_TEMP_EN_CNTL_CFGDAT
                                 6081   	public _NOPms
                                 6082   	public _KMX61_CNTL1_CFGDAT
                                 6083   	public _KMX61_CNTL2_CFGDAT
                                 6084   	public _BH1780GLI_REG_DATAHIGH
                                 6085   	public _MainOp_Temperature_Sensor_20
                                 6086   	public _MainOp_Temperature_Sensor_21
                                 6087   	public _MainOp_Temperature_Sensor_22
                                 6088   	public _MainOp_Temperature_Sensor_23
                                 6089   	public _main_clrWDT
                                 6090   	public _KMX61_BTSC
                                 6091   	public _KMX61_ODCNTL
                                 6092   	public _KMX61_COTR
                                 6093   	public _main_reqNotHalt
                                 6094   	public _KX022_STAT
                                 6095   	public _MainOp_UV_Sensor_10
                                 6096   	public _KMX61_STATUS_REG
                                 6097   	public _BH1730FVC_REG_INTERRUPT
                                 6098   	public _KX022_XOUTL
                                 6099   	public _KX022_XOUTH
                                 6100   	public _KX022_BUF_READ
                                 6101   	public _KMX61_WUFTH
                                 6102   	public _KMX61_STBY_REG
                                 6103   	public _BH1710FVC_CONT_M_RES_MOD
                                 6104   	public _KX022_YHPL
                                 6105   	public _KX022_YHPH
                                 6106   	public _DeviceSelection
                                 6107   	public _KX022_I2C_ADDR
                                 6108   	public _KX022_CNTL1_CFGDAT
                                 6109   	public _KMX61_INC1
                                 6110   	public _KMX61_INC2
                                 6111   	public _KMX61_INC3
                                 6112   	public _KX022_XHPL
                                 6113   	public _KX022_CNTL3_CFGDAT
                                 6114   	public _KX022_XHPH
                                 6115   	public _Init_KX022
                                 6116   	public _BH17xxFVC_PWR_DOWN
                                 6117   	public _KMX61_ACCEL_YOUT_H
                                 6118   	public _BH1710FVC_CONT_L_RES_MOD
                                 6119   	public _KMX61_ACCEL_YOUT_L
                                 6120   	public _BH1721FVC_CONT_L_RES_MOD
                                 6121   	public _KMX61_INS1
                                 6122   	public _KMX61_INS2
                                 6123   	public _KX022_TDTC
                                 6124   	public _BH1780GLI_REG_MFG_ID
                                 6125   	public _KX022_ZHPL
                                 6126   	public _KX022_ZHPH
                                 6127   	public _KX022_TDTRC
                                 6128   	public _KMX61_MAG_YOUT_H
                                 6129   	public _KMX61_MAG_YOUT_L
                                 6130   	public _MainOp_KMX61
                                 6131   	public _KX022_TILT_ANGLE_HL
                                 6132   	public _KX022_TILT_ANGLE_LL
                                 6133   	public _KMX61_BUF_THRESH_H
                                 6134   	public _KMX61_BUF_THRESH_L
                                 6135   	public _BH1730FVC_CMD_STOP_MIM
                                 6136   	public _KX022_ODCNTL
                                 6137   	public _KMX61_BUF_CLEAR
                                 6138   	public _Init_Temperature_Sensor_20
                                 6139   	public _Init_Temperature_Sensor_21
                                 6140   	public _Init_Temperature_Sensor_22
                                 6141   	public _main
                                 6142   	public _Init_Temperature_Sensor_23
                                 6143   	public _Init_UV_Sensor_10
                                 6144   	public _KX022_BUF_STATUS_1
                                 6145   	public _KX022_BUF_STATUS_2
                                 6146   	public _KX022_WHO_AM_I
                                 6147   	public _SensorInitialization
                                 6148   	public _BH1730FVC_REG_DATA1HIGH
                                 6149   	public _KX022_ZOUTL
                                 6150   	public _KX022_ZOUTH
                                 6151   	public _I2C_Write
                                 6152   	public _KX022_TSCP
                                 6153   	public _KMX61_ODCNTL_CFGDAT
                                 6154   	public _PortD_Low
                                 6155   	public _KX022_TSPP
                                 6156   	public _BH1730FVC_REG_TIMING
                                 6157   	public _KMX61_BTH
                                 6158   	public _KX022_TILT_TIMER_CFGDAT
                                 6159   	public _BH1730FVC_REG_ID
                                 6160   	public _KMX61_TEMP_EN_CNTL
                                 6161   	public _KMX61_CNTL1
                                 6162   	public _write
                                 6163   	public _KMX61_CNTL2
                                 6164   	public _KMX61_XOUT_HPF_L
                                 6165   	public _KMX61_XOUT_HPF_H
                                 6166   	public _KX022_BUF_CLEAR
                                 6167   	public _BH1710FVC_RESET
                                 6168   	public _BH1730FVC_REG_CONTROL
                                 6169   	public _KMX61_INL
                                 6170   	public _KX022_WUFC
                                 6171   	public _BH1730FVC_REG_DATA0HIGH
                                 6172   	public _KX022_YOUTL
                                 6173   	public _KX022_YOUTH
                                 6174   	public _BH17xxFVC_PWR_ON
                                 6175   	public _BH1710FVC_ONET_L_RES_MOD
                                 6176   	public _KMX61_ZOUT_HPF_L
                                 6177   	public _KX022_LP_CNTL
                                 6178   	public _KX022_ODCNTL_CFGDAT
                                 6179   	public _BH1730FVC_REG_THLHIGH
                                 6180   	public _KMX61_ZOUT_HPF_H
                                 6181   	public _PortC_Low
                                 6182   	public _KMX61_YOUT_HPF_L
                                 6183   	public _BH1730FVC_CMD_START_MIM
                                 6184   	public _KMX61_YOUT_HPF_H
                                 6185   	public _KX022_ATH
                                 6186   	public _KMX61_SN_1
                                 6187   	public _KMX61_SN_2
                                 6188   	public _KMX61_SN_3
                                 6189   	public _KMX61_SN_4
                                 6190   	public _BH1780GLI_REG_CONTROL
                                 6191   	public _KX022_COTR
                                 6192   	public _KMX61_SELF_TEST_CFGDAT
                                 6193   	public _PortB_Low
                                 6194   	public _KX022_FTD
                                 6195   	public _KX022_BUF_CNTL1
                                 6196   	public _KX022_BUF_CNTL2
                                 6197   	public _KMX61_I2C_ADDR
                                 6198   	public _KMX61_BUF_READ
                                 6199   	public _BH17xxFVC_ADDR_1
                                 6200   	public _BH17xxFVC_ADDR_2
                                 6201   	public _BH1730FVC_REG_THHLOW
                                 6202   	public _BH1710FVC_ONET_M_RES_MOD
                                 6203   	public _KX022_CNTL1
                                 6204   	public _KX022_CNTL2
                                 6205   	public _KX022_CNTL3
                                 6206   	public _KMX61_TEMP_OUT_H
                                 6207   	public _KMX61_TEMP_OUT_L
                                 6208   	public _KX022_STD
                                 6209   	public _KMX61_ACCEL_XOUT_H
                                 6210   	public _KMX61_ACCEL_ZOUT_H
                                 6211   	public _KMX61_ACCEL_XOUT_L
                                 6212   	public _KMX61_ACCEL_ZOUT_L
                                 6213   	public _BH1710FVC_ONET_H_RES_MOD
                                 6214   	public _KMX61_BUF_CTRL2_CFGDAT
                                 6215   	public _I2C_Read
                                 6216   	public _ADC_Read
                                 6217   	public _KX022_INC1
                                 6218   	public _KX022_INC2
                                 6219   	public _KX022_INC3
                                 6220   	public _KMX61_BUF_CTRL1_CFGDAT
                                 6221   	public _KX022_INC4
                                 6222   	public _KX022_INC5
                                 6223   	public _BH1730FVC_REG_GAIN
                                 6224   	public _KX022_INC6
                                 6225   	public _KX022_TLT
                                 6226   	public _KMX61_BUF_CTRL1
                                 6227   	public _KMX61_BUF_CTRL2
                                 6228   	public _MainOp_KX022
                                 6229   	public _BH1730FVC_CMD_SW_RESET
                                 6230   	public _KX022_TTH
                                 6231   	public _Init_Ambient_Light_Sensor_5
                                 6232   	public _Init_Ambient_Light_Sensor_6
                                 6233   	public _Init_Ambient_Light_Sensor_7
                                 6234   	public _Init_Ambient_Light_Sensor_8
                                 6235   	public _KX022_TTL
                                 6236   	public _Init_Ambient_Light_Sensor_9
                                 6237   	public _KX022_INS1
                                 6238   	public _KX022_INS2
                                 6239   	public _KX022_INS3
                                 6240   	public _KX022_TWS
                                 6241   	public _KMX61_BUF_STATUS_L
                                 6242   	public _BH1730FVC_REG_DATA0LOW
                                 6243   	public _PortA_Low
                                 6244   	public _KMX61_BUF_STATUS_H
                                 6245   	public _KMX61_MAG_XOUT_H
                                 6246   	public _KMX61_MAG_ZOUT_H
                                 6247   	public _KMX61_MAG_XOUT_L
                                 6248   	public _KMX61_MAG_ZOUT_L
                                 6249   	public _KMX61_SELF_TEST
                                 6250   	public _ReverseBits
                                 6251   	public _BH1730FVC_REG_THLLOW
                                 6252   	public _KX022_HYST_SET
                                 6253   	public _KMX61_WHO_AM_I
                                 6254   	public _FlashLEDs
                                 6255   	public _Init_KMX61
                                 6256   	public _KX022_TILT_TIMER
                                 6257   	public _BH1730FVC_REG_DATA1LOW
                                 6258   	public _KMX61_BUF_STATUS_REG
                                 6259   	public _MainOp_Ambient_Light_Sensor_8
                                 6260   	public _MainOp_Ambient_Light_Sensor_9
                                 6261   	public _MainOp_Ambient_Light_Sensor_5
                                 6262   	public _MainOp_Ambient_Light_Sensor_6
                                 6263   	public _MainOp_Ambient_Light_Sensor_7
                                 6264   	__flgUartFin comm data 01h #00h
                                 6265   	_uniRawSensorOut comm data 06h #00h
                                 6266   	__flgI2CFin comm data 01h #00h
                                 6267   	__reqNotHalt comm data 01h #00h
                                 6268   	_flSensorOut comm data 0ch #00h
                                 6269   	__flgADCFin comm data 01h #00h
                                 6270   	extrn code near : _irq_init
                                 6271   	extrn code near : _uart_PortSet
                                 6272   	extrn code near : _i2c_stop
                                 6273   	extrn code near : _i2c_startReceive
                                 6274   	extrn code near : _uart_init
                                 6275   	extrn code near : _i2c_continue
                                 6276   	extrn code near : _irq_di
                                 6277   	extrn code near : _irq_ei
                                 6278   	extrn code near : _irq_setHdr
                                 6279   	extrn code near : _uart_stop
                                 6280   	extrn code near : _uart_startSend
                                 6281   	extrn code near : _printf_n
                                 6282   	extrn code near : _i2c_startSend
                                 6283   	extrn code near : _uart_continue
                                 6284   	extrn code near : _i2c_init
                                 6285   	extrn code near : _tm_init
                                 6286   	extrn code : $$start_up
                                 6287   
  --------------------------     6288   	cseg #00h at 02h
00:0002 00-00'                   6289   	dw	$$start_up
                                 6290   
  --------------------------     6291   	rseg $$NTABmain$main
00:0000                          6292   _$M1 :
00:0000 00-00'                   6293   	dw	_$S39
00:0002 00-00'                   6294   	dw	_$S40
00:0004 00-00'                   6295   	dw	_$L38
00:0006 00-00'                   6296   	dw	_$L38
00:0008 00-00'                   6297   	dw	_$S41
00:000A 00-00'                   6298   	dw	_$S42
00:000C 00-00'                   6299   	dw	_$S43
00:000E 00-00'                   6300   	dw	_$S44
00:0010 00-00'                   6301   	dw	_$S45
00:0012 00-00'                   6302   	dw	_$S46
00:0014 00-00'                   6303   	dw	_$L38
00:0016 00-00'                   6304   	dw	_$L38
00:0018 00-00'                   6305   	dw	_$L38
00:001A 00-00'                   6306   	dw	_$L38
00:001C 00-00'                   6307   	dw	_$S47
00:001E 00-00'                   6308   	dw	_$S48
00:0020 00-00'                   6309   	dw	_$L38
00:0022 00-00'                   6310   	dw	_$L38
00:0024 00-00'                   6311   	dw	_$L38
00:0026 00-00'                   6312   	dw	_$S49
00:0028 00-00'                   6313   	dw	_$S50
00:002A 00-00'                   6314   	dw	_$S51
00:002C 00-00'                   6315   	dw	_$S52
                                 6316   
  --------------------------     6317   	rseg $$NTABADC_Read$main
00:0000                          6318   _$M7 :
00:0000 00-00'                   6319   	dw	_$S71
00:0002 00-00'                   6320   	dw	_$S72
00:0004 00-00'                   6321   	dw	_$S73
00:0006 00-00'                   6322   	dw	_$S74
00:0008 00-00'                   6323   	dw	_$S75
00:000A 00-00'                   6324   	dw	_$S76
00:000C 00-00'                   6325   	dw	_$S77
00:000E 00-00'                   6326   	dw	_$S78
                                 6327   
  --------------------------     6328   	rseg $$NTABSensorInitialization$main
00:0000                          6329   _$M13 :
00:0000 00-00'                   6330   	dw	_$S101
00:0002 00-00'                   6331   	dw	_$S102
00:0004 00-00'                   6332   	dw	_$L100
00:0006 00-00'                   6333   	dw	_$L100
00:0008 00-00'                   6334   	dw	_$S103
00:000A 00-00'                   6335   	dw	_$S104
00:000C 00-00'                   6336   	dw	_$S105
00:000E 00-00'                   6337   	dw	_$S106
00:0010 00-00'                   6338   	dw	_$S107
00:0012 00-00'                   6339   	dw	_$S108
00:0014 00-00'                   6340   	dw	_$L100
00:0016 00-00'                   6341   	dw	_$L100
00:0018 00-00'                   6342   	dw	_$L100
00:001A 00-00'                   6343   	dw	_$L100
00:001C 00-00'                   6344   	dw	_$S109
00:001E 00-00'                   6345   	dw	_$S110
00:0020 00-00'                   6346   	dw	_$L100
00:0022 00-00'                   6347   	dw	_$L100
00:0024 00-00'                   6348   	dw	_$L100
00:0026 00-00'                   6349   	dw	_$S111
00:0028 00-00'                   6350   	dw	_$S112
00:002A 00-00'                   6351   	dw	_$S113
00:002C 00-00'                   6352   	dw	_$S114
                                 6353   
  --------------------------     6354   	rseg $$NINITTAB
??:0000 01                       6355   	db	01h
??:0001 00                       6356   	db	00h
??:0002 00                       6357   	db	00h
                                 6358   
  --------------------------     6359   	rseg $$TAB_uartSetParam$main
00:0000                          6360   __uartSetParam :
00:0000 80-25                    6361   	dw	02580h
00:0002 00-00                    6362   	dw	00h
00:0004 00                       6363   	db	00h
00:0005 02                       6364   	db	02h
00:0006 00                       6365   	db	00h
00:0007 00                       6366   	db	00h
00:0008 00                       6367   	db	00h
00:0009 00                       6368   	align
                                 6369   
  --------------------------     6370   	rseg $$TABBH17xxFVC_ADDR_1$main
00:0000                          6371   _BH17xxFVC_ADDR_1 :
00:0000 23                       6372   	db	023h
                                 6373   
  --------------------------     6374   	rseg $$TABBH17xxFVC_ADDR_2$main
00:0000                          6375   _BH17xxFVC_ADDR_2 :
00:0000 29                       6376   	db	029h
                                 6377   
  --------------------------     6378   	rseg $$TABBH17xxFVC_PWR_DOWN$main
00:0000                          6379   _BH17xxFVC_PWR_DOWN :
00:0000 00                       6380   	db	00h
                                 6381   
  --------------------------     6382   	rseg $$TABBH17xxFVC_PWR_ON$main
00:0000                          6383   _BH17xxFVC_PWR_ON :
00:0000 01                       6384   	db	01h
                                 6385   
  --------------------------     6386   	rseg $$TABBH1710FVC_RESET$main
00:0000                          6387   _BH1710FVC_RESET :
00:0000 07                       6388   	db	07h
                                 6389   
  --------------------------     6390   	rseg $$TABBH1710FVC_CONT_H_RES_MOD$main
00:0000                          6391   _BH1710FVC_CONT_H_RES_MOD :
00:0000 10                       6392   	db	010h
                                 6393   
  --------------------------     6394   	rseg $$TABBH1710FVC_CONT_M_RES_MOD$main
00:0000                          6395   _BH1710FVC_CONT_M_RES_MOD :
00:0000 13                       6396   	db	013h
                                 6397   
  --------------------------     6398   	rseg $$TABBH1710FVC_CONT_L_RES_MOD$main
00:0000                          6399   _BH1710FVC_CONT_L_RES_MOD :
00:0000 16                       6400   	db	016h
                                 6401   
  --------------------------     6402   	rseg $$TABBH1710FVC_ONET_H_RES_MOD$main
00:0000                          6403   _BH1710FVC_ONET_H_RES_MOD :
00:0000 20                       6404   	db	020h
                                 6405   
  --------------------------     6406   	rseg $$TABBH1710FVC_ONET_M_RES_MOD$main
00:0000                          6407   _BH1710FVC_ONET_M_RES_MOD :
00:0000 23                       6408   	db	023h
                                 6409   
  --------------------------     6410   	rseg $$TABBH1710FVC_ONET_L_RES_MOD$main
00:0000                          6411   _BH1710FVC_ONET_L_RES_MOD :
00:0000 26                       6412   	db	026h
                                 6413   
  --------------------------     6414   	rseg $$TABBH1721FVC_CONT_A_RES_MOD$main
00:0000                          6415   _BH1721FVC_CONT_A_RES_MOD :
00:0000 10                       6416   	db	010h
                                 6417   
  --------------------------     6418   	rseg $$TABBH1721FVC_CONT_H_RES_MOD$main
00:0000                          6419   _BH1721FVC_CONT_H_RES_MOD :
00:0000 12                       6420   	db	012h
                                 6421   
  --------------------------     6422   	rseg $$TABBH1721FVC_CONT_L_RES_MOD$main
00:0000                          6423   _BH1721FVC_CONT_L_RES_MOD :
00:0000 13                       6424   	db	013h
                                 6425   
  --------------------------     6426   	rseg $$TABBH1730FVC_REG_CONTROL$main
00:0000                          6427   _BH1730FVC_REG_CONTROL :
00:0000 80                       6428   	db	080h
                                 6429   
  --------------------------     6430   	rseg $$TABBH1730FVC_REG_TIMING$main
00:0000                          6431   _BH1730FVC_REG_TIMING :
00:0000 81                       6432   	db	081h
                                 6433   
  --------------------------     6434   	rseg $$TABBH1730FVC_REG_INTERRUPT$main
00:0000                          6435   _BH1730FVC_REG_INTERRUPT :
00:0000 82                       6436   	db	082h
                                 6437   
  --------------------------     6438   	rseg $$TABBH1730FVC_REG_THLLOW$main
00:0000                          6439   _BH1730FVC_REG_THLLOW :
00:0000 83                       6440   	db	083h
                                 6441   
  --------------------------     6442   	rseg $$TABBH1730FVC_REG_THLHIGH$main
00:0000                          6443   _BH1730FVC_REG_THLHIGH :
00:0000 84                       6444   	db	084h
                                 6445   
  --------------------------     6446   	rseg $$TABBH1730FVC_REG_THHLOW$main
00:0000                          6447   _BH1730FVC_REG_THHLOW :
00:0000 85                       6448   	db	085h
                                 6449   
  --------------------------     6450   	rseg $$TABBH1730FVC_REG_THHHIGH$main
00:0000                          6451   _BH1730FVC_REG_THHHIGH :
00:0000 86                       6452   	db	086h
                                 6453   
  --------------------------     6454   	rseg $$TABBH1730FVC_REG_GAIN$main
00:0000                          6455   _BH1730FVC_REG_GAIN :
00:0000 87                       6456   	db	087h
                                 6457   
  --------------------------     6458   	rseg $$TABBH1730FVC_REG_ID$main
00:0000                          6459   _BH1730FVC_REG_ID :
00:0000 92                       6460   	db	092h
                                 6461   
  --------------------------     6462   	rseg $$TABBH1730FVC_REG_DATA0LOW$main
00:0000                          6463   _BH1730FVC_REG_DATA0LOW :
00:0000 94                       6464   	db	094h
                                 6465   
  --------------------------     6466   	rseg $$TABBH1730FVC_REG_DATA0HIGH$main
00:0000                          6467   _BH1730FVC_REG_DATA0HIGH :
00:0000 95                       6468   	db	095h
                                 6469   
  --------------------------     6470   	rseg $$TABBH1730FVC_REG_DATA1LOW$main
00:0000                          6471   _BH1730FVC_REG_DATA1LOW :
00:0000 96                       6472   	db	096h
                                 6473   
  --------------------------     6474   	rseg $$TABBH1730FVC_REG_DATA1HIGH$main
00:0000                          6475   _BH1730FVC_REG_DATA1HIGH :
00:0000 97                       6476   	db	097h
                                 6477   
  --------------------------     6478   	rseg $$TABBH1730FVC_CMD_RESET_INT_OUT$main
00:0000                          6479   _BH1730FVC_CMD_RESET_INT_OUT :
00:0000 E1                       6480   	db	0e1h
                                 6481   
  --------------------------     6482   	rseg $$TABBH1730FVC_CMD_STOP_MIM$main
00:0000                          6483   _BH1730FVC_CMD_STOP_MIM :
00:0000 E2                       6484   	db	0e2h
                                 6485   
  --------------------------     6486   	rseg $$TABBH1730FVC_CMD_START_MIM$main
00:0000                          6487   _BH1730FVC_CMD_START_MIM :
00:0000 E3                       6488   	db	0e3h
                                 6489   
  --------------------------     6490   	rseg $$TABBH1730FVC_CMD_SW_RESET$main
00:0000                          6491   _BH1730FVC_CMD_SW_RESET :
00:0000 E4                       6492   	db	0e4h
                                 6493   
  --------------------------     6494   	rseg $$TABBH1780GLI_REG_CONTROL$main
00:0000                          6495   _BH1780GLI_REG_CONTROL :
00:0000 80                       6496   	db	080h
                                 6497   
  --------------------------     6498   	rseg $$TABBH1780GLI_REG_PART_ID$main
00:0000                          6499   _BH1780GLI_REG_PART_ID :
00:0000 8A                       6500   	db	08ah
                                 6501   
  --------------------------     6502   	rseg $$TABBH1780GLI_REG_MFG_ID$main
00:0000                          6503   _BH1780GLI_REG_MFG_ID :
00:0000 8B                       6504   	db	08bh
                                 6505   
  --------------------------     6506   	rseg $$TABBH1780GLI_REG_DATALOW$main
00:0000                          6507   _BH1780GLI_REG_DATALOW :
00:0000 8C                       6508   	db	08ch
                                 6509   
  --------------------------     6510   	rseg $$TABBH1780GLI_REG_DATAHIGH$main
00:0000                          6511   _BH1780GLI_REG_DATAHIGH :
00:0000 8D                       6512   	db	08dh
                                 6513   
  --------------------------     6514   	rseg $$TABKX022_I2C_ADDR$main
00:0000                          6515   _KX022_I2C_ADDR :
00:0000 1E                       6516   	db	01eh
                                 6517   
  --------------------------     6518   	rseg $$TABKX022_XHPL$main
00:0000                          6519   _KX022_XHPL :
00:0000 00                       6520   	db	00h
                                 6521   
  --------------------------     6522   	rseg $$TABKX022_XHPH$main
00:0000                          6523   _KX022_XHPH :
00:0000 01                       6524   	db	01h
                                 6525   
  --------------------------     6526   	rseg $$TABKX022_YHPL$main
00:0000                          6527   _KX022_YHPL :
00:0000 02                       6528   	db	02h
                                 6529   
  --------------------------     6530   	rseg $$TABKX022_YHPH$main
00:0000                          6531   _KX022_YHPH :
00:0000 03                       6532   	db	03h
                                 6533   
  --------------------------     6534   	rseg $$TABKX022_ZHPL$main
00:0000                          6535   _KX022_ZHPL :
00:0000 04                       6536   	db	04h
                                 6537   
  --------------------------     6538   	rseg $$TABKX022_ZHPH$main
00:0000                          6539   _KX022_ZHPH :
00:0000 05                       6540   	db	05h
                                 6541   
  --------------------------     6542   	rseg $$TABKX022_XOUTL$main
00:0000                          6543   _KX022_XOUTL :
00:0000 06                       6544   	db	06h
                                 6545   
  --------------------------     6546   	rseg $$TABKX022_XOUTH$main
00:0000                          6547   _KX022_XOUTH :
00:0000 07                       6548   	db	07h
                                 6549   
  --------------------------     6550   	rseg $$TABKX022_YOUTL$main
00:0000                          6551   _KX022_YOUTL :
00:0000 08                       6552   	db	08h
                                 6553   
  --------------------------     6554   	rseg $$TABKX022_YOUTH$main
00:0000                          6555   _KX022_YOUTH :
00:0000 09                       6556   	db	09h
                                 6557   
  --------------------------     6558   	rseg $$TABKX022_ZOUTL$main
00:0000                          6559   _KX022_ZOUTL :
00:0000 0A                       6560   	db	0ah
                                 6561   
  --------------------------     6562   	rseg $$TABKX022_ZOUTH$main
00:0000                          6563   _KX022_ZOUTH :
00:0000 0B                       6564   	db	0bh
                                 6565   
  --------------------------     6566   	rseg $$TABKX022_COTR$main
00:0000                          6567   _KX022_COTR :
00:0000 0C                       6568   	db	0ch
                                 6569   
  --------------------------     6570   	rseg $$TABKX022_WHO_AM_I$main
00:0000                          6571   _KX022_WHO_AM_I :
00:0000 0F                       6572   	db	0fh
                                 6573   
  --------------------------     6574   	rseg $$TABKX022_TSCP$main
00:0000                          6575   _KX022_TSCP :
00:0000 10                       6576   	db	010h
                                 6577   
  --------------------------     6578   	rseg $$TABKX022_TSPP$main
00:0000                          6579   _KX022_TSPP :
00:0000 11                       6580   	db	011h
                                 6581   
  --------------------------     6582   	rseg $$TABKX022_INS1$main
00:0000                          6583   _KX022_INS1 :
00:0000 12                       6584   	db	012h
                                 6585   
  --------------------------     6586   	rseg $$TABKX022_INS2$main
00:0000                          6587   _KX022_INS2 :
00:0000 13                       6588   	db	013h
                                 6589   
  --------------------------     6590   	rseg $$TABKX022_INS3$main
00:0000                          6591   _KX022_INS3 :
00:0000 14                       6592   	db	014h
                                 6593   
  --------------------------     6594   	rseg $$TABKX022_STAT$main
00:0000                          6595   _KX022_STAT :
00:0000 15                       6596   	db	015h
                                 6597   
  --------------------------     6598   	rseg $$TABKX022_INT_REL$main
00:0000                          6599   _KX022_INT_REL :
00:0000 17                       6600   	db	017h
                                 6601   
  --------------------------     6602   	rseg $$TABKX022_CNTL1$main
00:0000                          6603   _KX022_CNTL1 :
00:0000 18                       6604   	db	018h
                                 6605   
  --------------------------     6606   	rseg $$TABKX022_CNTL2$main
00:0000                          6607   _KX022_CNTL2 :
00:0000 19                       6608   	db	019h
                                 6609   
  --------------------------     6610   	rseg $$TABKX022_CNTL3$main
00:0000                          6611   _KX022_CNTL3 :
00:0000 1A                       6612   	db	01ah
                                 6613   
  --------------------------     6614   	rseg $$TABKX022_ODCNTL$main
00:0000                          6615   _KX022_ODCNTL :
00:0000 1B                       6616   	db	01bh
                                 6617   
  --------------------------     6618   	rseg $$TABKX022_INC1$main
00:0000                          6619   _KX022_INC1 :
00:0000 1C                       6620   	db	01ch
                                 6621   
  --------------------------     6622   	rseg $$TABKX022_INC2$main
00:0000                          6623   _KX022_INC2 :
00:0000 1D                       6624   	db	01dh
                                 6625   
  --------------------------     6626   	rseg $$TABKX022_INC3$main
00:0000                          6627   _KX022_INC3 :
00:0000 1E                       6628   	db	01eh
                                 6629   
  --------------------------     6630   	rseg $$TABKX022_INC4$main
00:0000                          6631   _KX022_INC4 :
00:0000 1F                       6632   	db	01fh
                                 6633   
  --------------------------     6634   	rseg $$TABKX022_INC5$main
00:0000                          6635   _KX022_INC5 :
00:0000 20                       6636   	db	020h
                                 6637   
  --------------------------     6638   	rseg $$TABKX022_INC6$main
00:0000                          6639   _KX022_INC6 :
00:0000 21                       6640   	db	021h
                                 6641   
  --------------------------     6642   	rseg $$TABKX022_TILT_TIMER$main
00:0000                          6643   _KX022_TILT_TIMER :
00:0000 22                       6644   	db	022h
                                 6645   
  --------------------------     6646   	rseg $$TABKX022_WUFC$main
00:0000                          6647   _KX022_WUFC :
00:0000 23                       6648   	db	023h
                                 6649   
  --------------------------     6650   	rseg $$TABKX022_TDTRC$main
00:0000                          6651   _KX022_TDTRC :
00:0000 24                       6652   	db	024h
                                 6653   
  --------------------------     6654   	rseg $$TABKX022_TDTC$main
00:0000                          6655   _KX022_TDTC :
00:0000 25                       6656   	db	025h
                                 6657   
  --------------------------     6658   	rseg $$TABKX022_TTH$main
00:0000                          6659   _KX022_TTH :
00:0000 26                       6660   	db	026h
                                 6661   
  --------------------------     6662   	rseg $$TABKX022_TTL$main
00:0000                          6663   _KX022_TTL :
00:0000 27                       6664   	db	027h
                                 6665   
  --------------------------     6666   	rseg $$TABKX022_FTD$main
00:0000                          6667   _KX022_FTD :
00:0000 28                       6668   	db	028h
                                 6669   
  --------------------------     6670   	rseg $$TABKX022_STD$main
00:0000                          6671   _KX022_STD :
00:0000 29                       6672   	db	029h
                                 6673   
  --------------------------     6674   	rseg $$TABKX022_TLT$main
00:0000                          6675   _KX022_TLT :
00:0000 2A                       6676   	db	02ah
                                 6677   
  --------------------------     6678   	rseg $$TABKX022_TWS$main
00:0000                          6679   _KX022_TWS :
00:0000 2B                       6680   	db	02bh
                                 6681   
  --------------------------     6682   	rseg $$TABKX022_ATH$main
00:0000                          6683   _KX022_ATH :
00:0000 30                       6684   	db	030h
                                 6685   
  --------------------------     6686   	rseg $$TABKX022_TILT_ANGLE_LL$main
00:0000                          6687   _KX022_TILT_ANGLE_LL :
00:0000 32                       6688   	db	032h
                                 6689   
  --------------------------     6690   	rseg $$TABKX022_TILT_ANGLE_HL$main
00:0000                          6691   _KX022_TILT_ANGLE_HL :
00:0000 33                       6692   	db	033h
                                 6693   
  --------------------------     6694   	rseg $$TABKX022_HYST_SET$main
00:0000                          6695   _KX022_HYST_SET :
00:0000 34                       6696   	db	034h
                                 6697   
  --------------------------     6698   	rseg $$TABKX022_LP_CNTL$main
00:0000                          6699   _KX022_LP_CNTL :
00:0000 35                       6700   	db	035h
                                 6701   
  --------------------------     6702   	rseg $$TABKX022_BUF_CNTL1$main
00:0000                          6703   _KX022_BUF_CNTL1 :
00:0000 3A                       6704   	db	03ah
                                 6705   
  --------------------------     6706   	rseg $$TABKX022_BUF_CNTL2$main
00:0000                          6707   _KX022_BUF_CNTL2 :
00:0000 3B                       6708   	db	03bh
                                 6709   
  --------------------------     6710   	rseg $$TABKX022_BUF_STATUS_1$main
00:0000                          6711   _KX022_BUF_STATUS_1 :
00:0000 3C                       6712   	db	03ch
                                 6713   
  --------------------------     6714   	rseg $$TABKX022_BUF_STATUS_2$main
00:0000                          6715   _KX022_BUF_STATUS_2 :
00:0000 3D                       6716   	db	03dh
                                 6717   
  --------------------------     6718   	rseg $$TABKX022_BUF_CLEAR$main
00:0000                          6719   _KX022_BUF_CLEAR :
00:0000 3E                       6720   	db	03eh
                                 6721   
  --------------------------     6722   	rseg $$TABKX022_BUF_READ$main
00:0000                          6723   _KX022_BUF_READ :
00:0000 3F                       6724   	db	03fh
                                 6725   
  --------------------------     6726   	rseg $$TABKX022_SELF_TEST$main
00:0000                          6727   _KX022_SELF_TEST :
00:0000 60                       6728   	db	060h
                                 6729   
  --------------------------     6730   	rseg $$TABKX022_CNTL1_CFGDAT$main
00:0000                          6731   _KX022_CNTL1_CFGDAT :
00:0000 41                       6732   	db	041h
                                 6733   
  --------------------------     6734   	rseg $$TABKX022_ODCNTL_CFGDAT$main
00:0000                          6735   _KX022_ODCNTL_CFGDAT :
00:0000 02                       6736   	db	02h
                                 6737   
  --------------------------     6738   	rseg $$TABKX022_CNTL3_CFGDAT$main
00:0000                          6739   _KX022_CNTL3_CFGDAT :
00:0000 D8                       6740   	db	0d8h
                                 6741   
  --------------------------     6742   	rseg $$TABKX022_TILT_TIMER_CFGDAT$main
00:0000                          6743   _KX022_TILT_TIMER_CFGDAT :
00:0000 01                       6744   	db	01h
                                 6745   
  --------------------------     6746   	rseg $$TABKMX61_I2C_ADDR$main
00:0000                          6747   _KMX61_I2C_ADDR :
00:0000 0E                       6748   	db	0eh
                                 6749   
  --------------------------     6750   	rseg $$TABKMX61_WHO_AM_I$main
00:0000                          6751   _KMX61_WHO_AM_I :
00:0000 00                       6752   	db	00h
                                 6753   
  --------------------------     6754   	rseg $$TABKMX61_INS1$main
00:0000                          6755   _KMX61_INS1 :
00:0000 01                       6756   	db	01h
                                 6757   
  --------------------------     6758   	rseg $$TABKMX61_INS2$main
00:0000                          6759   _KMX61_INS2 :
00:0000 02                       6760   	db	02h
                                 6761   
  --------------------------     6762   	rseg $$TABKMX61_STATUS_REG$main
00:0000                          6763   _KMX61_STATUS_REG :
00:0000 03                       6764   	db	03h
                                 6765   
  --------------------------     6766   	rseg $$TABKMX61_ACCEL_XOUT_L$main
00:0000                          6767   _KMX61_ACCEL_XOUT_L :
00:0000 0A                       6768   	db	0ah
                                 6769   
  --------------------------     6770   	rseg $$TABKMX61_ACCEL_XOUT_H$main
00:0000                          6771   _KMX61_ACCEL_XOUT_H :
00:0000 0B                       6772   	db	0bh
                                 6773   
  --------------------------     6774   	rseg $$TABKMX61_ACCEL_YOUT_L$main
00:0000                          6775   _KMX61_ACCEL_YOUT_L :
00:0000 0C                       6776   	db	0ch
                                 6777   
  --------------------------     6778   	rseg $$TABKMX61_ACCEL_YOUT_H$main
00:0000                          6779   _KMX61_ACCEL_YOUT_H :
00:0000 0D                       6780   	db	0dh
                                 6781   
  --------------------------     6782   	rseg $$TABKMX61_ACCEL_ZOUT_L$main
00:0000                          6783   _KMX61_ACCEL_ZOUT_L :
00:0000 0E                       6784   	db	0eh
                                 6785   
  --------------------------     6786   	rseg $$TABKMX61_ACCEL_ZOUT_H$main
00:0000                          6787   _KMX61_ACCEL_ZOUT_H :
00:0000 0F                       6788   	db	0fh
                                 6789   
  --------------------------     6790   	rseg $$TABKMX61_TEMP_OUT_L$main
00:0000                          6791   _KMX61_TEMP_OUT_L :
00:0000 10                       6792   	db	010h
                                 6793   
  --------------------------     6794   	rseg $$TABKMX61_TEMP_OUT_H$main
00:0000                          6795   _KMX61_TEMP_OUT_H :
00:0000 11                       6796   	db	011h
                                 6797   
  --------------------------     6798   	rseg $$TABKMX61_MAG_XOUT_L$main
00:0000                          6799   _KMX61_MAG_XOUT_L :
00:0000 12                       6800   	db	012h
                                 6801   
  --------------------------     6802   	rseg $$TABKMX61_MAG_XOUT_H$main
00:0000                          6803   _KMX61_MAG_XOUT_H :
00:0000 13                       6804   	db	013h
                                 6805   
  --------------------------     6806   	rseg $$TABKMX61_MAG_YOUT_L$main
00:0000                          6807   _KMX61_MAG_YOUT_L :
00:0000 14                       6808   	db	014h
                                 6809   
  --------------------------     6810   	rseg $$TABKMX61_MAG_YOUT_H$main
00:0000                          6811   _KMX61_MAG_YOUT_H :
00:0000 15                       6812   	db	015h
                                 6813   
  --------------------------     6814   	rseg $$TABKMX61_MAG_ZOUT_L$main
00:0000                          6815   _KMX61_MAG_ZOUT_L :
00:0000 16                       6816   	db	016h
                                 6817   
  --------------------------     6818   	rseg $$TABKMX61_MAG_ZOUT_H$main
00:0000                          6819   _KMX61_MAG_ZOUT_H :
00:0000 17                       6820   	db	017h
                                 6821   
  --------------------------     6822   	rseg $$TABKMX61_XOUT_HPF_L$main
00:0000                          6823   _KMX61_XOUT_HPF_L :
00:0000 18                       6824   	db	018h
                                 6825   
  --------------------------     6826   	rseg $$TABKMX61_XOUT_HPF_H$main
00:0000                          6827   _KMX61_XOUT_HPF_H :
00:0000 19                       6828   	db	019h
                                 6829   
  --------------------------     6830   	rseg $$TABKMX61_YOUT_HPF_L$main
00:0000                          6831   _KMX61_YOUT_HPF_L :
00:0000 1A                       6832   	db	01ah
                                 6833   
  --------------------------     6834   	rseg $$TABKMX61_YOUT_HPF_H$main
00:0000                          6835   _KMX61_YOUT_HPF_H :
00:0000 1B                       6836   	db	01bh
                                 6837   
  --------------------------     6838   	rseg $$TABKMX61_ZOUT_HPF_L$main
00:0000                          6839   _KMX61_ZOUT_HPF_L :
00:0000 1C                       6840   	db	01ch
                                 6841   
  --------------------------     6842   	rseg $$TABKMX61_ZOUT_HPF_H$main
00:0000                          6843   _KMX61_ZOUT_HPF_H :
00:0000 1D                       6844   	db	01dh
                                 6845   
  --------------------------     6846   	rseg $$TABKMX61_SN_1$main
00:0000                          6847   _KMX61_SN_1 :
00:0000 24                       6848   	db	024h
                                 6849   
  --------------------------     6850   	rseg $$TABKMX61_SN_2$main
00:0000                          6851   _KMX61_SN_2 :
00:0000 25                       6852   	db	025h
                                 6853   
  --------------------------     6854   	rseg $$TABKMX61_SN_3$main
00:0000                          6855   _KMX61_SN_3 :
00:0000 26                       6856   	db	026h
                                 6857   
  --------------------------     6858   	rseg $$TABKMX61_SN_4$main
00:0000                          6859   _KMX61_SN_4 :
00:0000 27                       6860   	db	027h
                                 6861   
  --------------------------     6862   	rseg $$TABKMX61_INL$main
00:0000                          6863   _KMX61_INL :
00:0000 28                       6864   	db	028h
                                 6865   
  --------------------------     6866   	rseg $$TABKMX61_STBY_REG$main
00:0000                          6867   _KMX61_STBY_REG :
00:0000 29                       6868   	db	029h
                                 6869   
  --------------------------     6870   	rseg $$TABKMX61_CNTL1$main
00:0000                          6871   _KMX61_CNTL1 :
00:0000 2A                       6872   	db	02ah
                                 6873   
  --------------------------     6874   	rseg $$TABKMX61_CNTL2$main
00:0000                          6875   _KMX61_CNTL2 :
00:0000 2B                       6876   	db	02bh
                                 6877   
  --------------------------     6878   	rseg $$TABKMX61_ODCNTL$main
00:0000                          6879   _KMX61_ODCNTL :
00:0000 2C                       6880   	db	02ch
                                 6881   
  --------------------------     6882   	rseg $$TABKMX61_INC1$main
00:0000                          6883   _KMX61_INC1 :
00:0000 2D                       6884   	db	02dh
                                 6885   
  --------------------------     6886   	rseg $$TABKMX61_INC2$main
00:0000                          6887   _KMX61_INC2 :
00:0000 2E                       6888   	db	02eh
                                 6889   
  --------------------------     6890   	rseg $$TABKMX61_INC3$main
00:0000                          6891   _KMX61_INC3 :
00:0000 2F                       6892   	db	02fh
                                 6893   
  --------------------------     6894   	rseg $$TABKMX61_COTR$main
00:0000                          6895   _KMX61_COTR :
00:0000 3C                       6896   	db	03ch
                                 6897   
  --------------------------     6898   	rseg $$TABKMX61_WUFTH$main
00:0000                          6899   _KMX61_WUFTH :
00:0000 3D                       6900   	db	03dh
                                 6901   
  --------------------------     6902   	rseg $$TABKMX61_WUFC$main
00:0000                          6903   _KMX61_WUFC :
00:0000 3E                       6904   	db	03eh
                                 6905   
  --------------------------     6906   	rseg $$TABKMX61_BTH$main
00:0000                          6907   _KMX61_BTH :
00:0000 3F                       6908   	db	03fh
                                 6909   
  --------------------------     6910   	rseg $$TABKMX61_BTSC$main
00:0000                          6911   _KMX61_BTSC :
00:0000 40                       6912   	db	040h
                                 6913   
  --------------------------     6914   	rseg $$TABKMX61_TEMP_EN_CNTL$main
00:0000                          6915   _KMX61_TEMP_EN_CNTL :
00:0000 4C                       6916   	db	04ch
                                 6917   
  --------------------------     6918   	rseg $$TABKMX61_SELF_TEST$main
00:0000                          6919   _KMX61_SELF_TEST :
00:0000 60                       6920   	db	060h
                                 6921   
  --------------------------     6922   	rseg $$TABKMX61_BUF_THRESH_H$main
00:0000                          6923   _KMX61_BUF_THRESH_H :
00:0000 76                       6924   	db	076h
                                 6925   
  --------------------------     6926   	rseg $$TABKMX61_BUF_THRESH_L$main
00:0000                          6927   _KMX61_BUF_THRESH_L :
00:0000 77                       6928   	db	077h
                                 6929   
  --------------------------     6930   	rseg $$TABKMX61_BUF_CTRL1$main
00:0000                          6931   _KMX61_BUF_CTRL1 :
00:0000 78                       6932   	db	078h
                                 6933   
  --------------------------     6934   	rseg $$TABKMX61_BUF_CTRL2$main
00:0000                          6935   _KMX61_BUF_CTRL2 :
00:0000 79                       6936   	db	079h
                                 6937   
  --------------------------     6938   	rseg $$TABKMX61_BUF_CLEAR$main
00:0000                          6939   _KMX61_BUF_CLEAR :
00:0000 7A                       6940   	db	07ah
                                 6941   
  --------------------------     6942   	rseg $$TABKMX61_BUF_STATUS_REG$main
00:0000                          6943   _KMX61_BUF_STATUS_REG :
00:0000 7B                       6944   	db	07bh
                                 6945   
  --------------------------     6946   	rseg $$TABKMX61_BUF_STATUS_H$main
00:0000                          6947   _KMX61_BUF_STATUS_H :
00:0000 7C                       6948   	db	07ch
                                 6949   
  --------------------------     6950   	rseg $$TABKMX61_BUF_STATUS_L$main
00:0000                          6951   _KMX61_BUF_STATUS_L :
00:0000 7D                       6952   	db	07dh
                                 6953   
  --------------------------     6954   	rseg $$TABKMX61_BUF_READ$main
00:0000                          6955   _KMX61_BUF_READ :
00:0000 7E                       6956   	db	07eh
                                 6957   
  --------------------------     6958   	rseg $$TABKMX61_SELF_TEST_CFGDAT$main
00:0000                          6959   _KMX61_SELF_TEST_CFGDAT :
00:0000 00                       6960   	db	00h
                                 6961   
  --------------------------     6962   	rseg $$TABKMX61_CNTL1_CFGDAT$main
00:0000                          6963   _KMX61_CNTL1_CFGDAT :
00:0000 13                       6964   	db	013h
                                 6965   
  --------------------------     6966   	rseg $$TABKMX61_CNTL2_CFGDAT$main
00:0000                          6967   _KMX61_CNTL2_CFGDAT :
00:0000 00                       6968   	db	00h
                                 6969   
  --------------------------     6970   	rseg $$TABKMX61_ODCNTL_CFGDAT$main
00:0000                          6971   _KMX61_ODCNTL_CFGDAT :
00:0000 00                       6972   	db	00h
                                 6973   
  --------------------------     6974   	rseg $$TABKMX61_TEMP_EN_CNTL_CFGDAT$main
00:0000                          6975   _KMX61_TEMP_EN_CNTL_CFGDAT :
00:0000 01                       6976   	db	01h
                                 6977   
  --------------------------     6978   	rseg $$TABKMX61_BUF_CTRL1_CFGDAT$main
00:0000                          6979   _KMX61_BUF_CTRL1_CFGDAT :
00:0000 00                       6980   	db	00h
                                 6981   
  --------------------------     6982   	rseg $$TABKMX61_BUF_CTRL2_CFGDAT$main
00:0000                          6983   _KMX61_BUF_CTRL2_CFGDAT :
00:0000 00                       6984   	db	00h
                                 6985   
  --------------------------     6986   	rseg $$TAB$$S30$main
00:0000                          6987   $$S30 :
00:0000 1B 5B 32 4A 1B 5B 31 3B  6988   	DB	"\x1b[2J\x1b[1;1H*********************************************\x0a\x0d** Q112 Firmware - Sensor Platform EVK\x0a\x0d** Revision    : REV00\x0a\x0d** Release date: Oct  6 2014 16:19:39\x0a\x0d** By          : ROHM Semiconductor USA, LLC\x0a\x0d********
00:0008 31 48 2A 2A 2A 2A 2A 2A   >>>   
00:0010 2A 2A 2A 2A 2A 2A 2A 2A   >>>   
00:0018 2A 2A 2A 2A 2A 2A 2A 2A   >>>   
00:0020 2A 2A 2A 2A 2A 2A 2A 2A   >>>   
00:0028 2A 2A 2A 2A 2A 2A 2A 2A   >>>   
00:0030 2A 2A 2A 2A 2A 2A 2A 0A   >>>   
00:0038 0D 2A 2A 20 51 31 31 32   >>>   
00:0040 20 46 69 72 6D 77 61 72   >>>   
00:0048 65 20 2D 20 53 65 6E 73   >>>   
00:0050 6F 72 20 50 6C 61 74 66   >>>   
00:0058 6F 72 6D 20 45 56 4B 0A   >>>   
00:0060 0D 2A 2A 20 52 65 76 69   >>>   
00:0068 73 69 6F 6E 20 20 20 20   >>>   
00:0070 3A 20 52 45 56 30 30 0A   >>>   
00:0078 0D 2A 2A 20 52 65 6C 65   >>>   
00:0080 61 73 65 20 64 61 74 65   >>>   
00:0088 3A 20 4F 63 74 20 20 36   >>>   
00:0090 20 32 30 31 34 20 31 36   >>>   
00:0098 3A 31 39 3A 33 39 0A 0D   >>>   
00:00A0 2A 2A 20 42 79 20 20 20   >>>   
00:00A8 20 20 20 20 20 20 20 3A   >>>   
00:00B0 20 52 4F 48 4D 20 53 65   >>>   
00:00B8 6D 69 63 6F 6E 64 75 63   >>>   
00:00C0 74 6F 72 20 55 53 41 2C   >>>   
00:00C8 20 4C 4C 43 0A 0D 2A 2A   >>>   
00:00D0 2A 2A 2A 2A 2A 2A 2A 2A   >>>   
00:00D8 2A 2A 2A 2A 2A 2A 2A 2A   >>>   
00:00E0 2A 2A 2A 2A 2A 2A 2A 2A   >>>   
00:00E8 2A 2A 2A 2A 2A 2A 2A 2A   >>>   
00:00F0 2A 2A 2A 2A 2A 2A 2A 2A   >>>   
00:00F8 2A 2A                     >>>   
00:00FA 2A 0A 0D 00              6989   	DB	"*\x0a\x0d", 00H
                                 6990   
  --------------------------     6991   	rseg $$TAB$$S53$main
00:0000                          6992   $$S53 :
00:0000 1B 5B 4A 4E 6F 20 64 65  6993   	DB	"\x1b[JNo device connected.\x0d"
00:0008 76 69 63 65 20 63 6F 6E   >>>   
00:0010 6E 65 63 74 65 64 2E 0D   >>>   ,
00:0018 00                        >>>    00H
                                 6994   
  --------------------------     6995   	rseg $$TAB$$S123$main
00:0000                          6996   $$S123 :
00:0000 1B 5B 4A 42 55 35 32 30  6997   	DB	"\x1b[JBU52004GUL> Hall \xe2\x80\x93 No Mag Fields Detected.\x0d"
00:0008 30 34 47 55 4C 3E 20 48   >>>   
00:0010 61 6C 6C 20 E2 80 93 20   >>>   
00:0018 4E 6F 20 4D 61 67 20 46   >>>   
00:0020 69 65 6C 64 73 20 44 65   >>>   
00:0028 74 65 63 74 65 64 2E 0D   >>>   ,
00:0030 00                        >>>    00H
                                 6998   
  --------------------------     6999   	rseg $$TAB$$S132$main
00:0000                          7000   $$S132 :
00:0000 1B 5B 4A 42 55 35 32 30  7001   	DB	"\x1b[JBU52004GUL> Hall \xe2\x80\x93 North Mag Field Detected.\x0d"
00:0008 30 34 47 55 4C 3E 20 48   >>>   
00:0010 61 6C 6C 20 E2 80 93 20   >>>   
00:0018 4E 6F 72 74 68 20 4D 61   >>>   
00:0020 67 20 46 69 65 6C 64 20   >>>   
00:0028 44 65 74 65 63 74 65 64   >>>   
00:0030 2E 0D 00                  >>>   , 00H
                                 7002   
  --------------------------     7003   	rseg $$TAB$$S141$main
00:0000                          7004   $$S141 :
00:0000 1B 5B 4A 42 55 35 32 30  7005   	DB	"\x1b[JBU52004GUL> Hall \xe2\x80\x93 South Mag Field Detected.\x0d"
00:0008 30 34 47 55 4C 3E 20 48   >>>   
00:0010 61 6C 6C 20 E2 80 93 20   >>>   
00:0018 53 6F 75 74 68 20 4D 61   >>>   
00:0020 67 20 46 69 65 6C 64 20   >>>   
00:0028 44 65 74 65 63 74 65 64   >>>   
00:0030 2E 0D 00                  >>>   , 00H
                                 7006   
  --------------------------     7007   	rseg $$TAB$$S143$main
00:0000                          7008   $$S143 :
00:0000 1B 5B 4A 42 55 35 32 30  7009   	DB	"\x1b[JBU52004GUL> Hall \xe2\x80\x93 Both Mag Fields Detected.\x0d"
00:0008 30 34 47 55 4C 3E 20 48   >>>   
00:0010 61 6C 6C 20 E2 80 93 20   >>>   
00:0018 42 6F 74 68 20 4D 61 67   >>>   
00:0020 20 46 69 65 6C 64 73 20   >>>   
00:0028 44 65 74 65 63 74 65 64   >>>   
00:0030 2E 0D 00                  >>>   , 00H
                                 7010   
  --------------------------     7011   	rseg $$TAB$$S147$main
00:0000                          7012   $$S147 :
00:0000 1B 5B 4A 42 55 35 32 30  7013   	DB	"\x1b[JBU52011HFV> Hall \xe2\x80\x93 Mag Field Detected.\x0d"
00:0008 31 31 48 46 56 3E 20 48   >>>   
00:0010 61 6C 6C 20 E2 80 93 20   >>>   
00:0018 4D 61 67 20 46 69 65 6C   >>>   
00:0020 64 20 44 65 74 65 63 74   >>>   
00:0028 65 64 2E 0D 00            >>>   , 00H
                                 7014   
  --------------------------     7015   	rseg $$TAB$$S149$main
00:0000                          7016   $$S149 :
00:0000 1B 5B 4A 42 55 35 32 30  7017   	DB	"\x1b[JBU52011HFV> Hall \xe2\x80\x93 No Mag Fields Detected.\x0d"
00:0008 31 31 48 46 56 3E 20 48   >>>   
00:0010 61 6C 6C 20 E2 80 93 20   >>>   
00:0018 4E 6F 20 4D 61 67 20 46   >>>   
00:0020 69 65 6C 64 73 20 44 65   >>>   
00:0028 74 65 63 74 65 64 2E 0D   >>>   ,
00:0030 00                        >>>    00H
                                 7018   
  --------------------------     7019   	rseg $$TAB$$S160$main
00:0000                          7020   $$S160 :
00:0000 1B 5B 4A 42 48 31 36 32  7021   	DB	"\x1b[JBH1620FVC> Ambient Light = %lu[lx]\x0d"
00:0008 30 46 56 43 3E 20 41 6D   >>>   
00:0010 62 69 65 6E 74 20 4C 69   >>>   
00:0018 67 68 74 20 3D 20 25 6C   >>>   
00:0020 75 5B 6C 78 5D 0D 00      >>>   , 00H
                                 7022   
  --------------------------     7023   	rseg $$TAB$$S162$main
00:0000                          7024   $$S162 :
00:0000 1B 5B 4A 42 48 31 37 31  7025   	DB	"\x1b[JBH1710FVC> Ambient Light = %lu[lx]\x0d"
00:0008 30 46 56 43 3E 20 41 6D   >>>   
00:0010 62 69 65 6E 74 20 4C 69   >>>   
00:0018 67 68 74 20 3D 20 25 6C   >>>   
00:0020 75 5B 6C 78 5D 0D 00      >>>   , 00H
                                 7026   
  --------------------------     7027   	rseg $$TAB$$S176$main
00:0000                          7028   $$S176 :
00:0000 1B 5B 4A 42 48 31 37 33  7029   	DB	"\x1b[JBH1730FVC> Ambient Light = %lu[lx]\x0d"
00:0008 30 46 56 43 3E 20 41 6D   >>>   
00:0010 62 69 65 6E 74 20 4C 69   >>>   
00:0018 67 68 74 20 3D 20 25 6C   >>>   
00:0020 75 5B 6C 78 5D 0D 00      >>>   , 00H
                                 7030   
  --------------------------     7031   	rseg $$TAB$$S178$main
00:0000                          7032   $$S178 :
00:0000 1B 5B 4A 42 48 31 37 32  7033   	DB	"\x1b[JBH1721FVC> Ambient Light = %lu[lx]\x0d"
00:0008 31 46 56 43 3E 20 41 6D   >>>   
00:0010 62 69 65 6E 74 20 4C 69   >>>   
00:0018 67 68 74 20 3D 20 25 6C   >>>   
00:0020 75 5B 6C 78 5D 0D 00      >>>   , 00H
                                 7034   
  --------------------------     7035   	rseg $$TAB$$S180$main
00:0000                          7036   $$S180 :
00:0000 1B 5B 4A 42 48 31 37 38  7037   	DB	"\x1b[JBH1780GLI> Ambient Light = %lu[lx]\x0d"
00:0008 30 47 4C 49 3E 20 41 6D   >>>   
00:0010 62 69 65 6E 74 20 4C 69   >>>   
00:0018 67 68 74 20 3D 20 25 6C   >>>   
00:0020 75 5B 6C 78 5D 0D 00      >>>   , 00H
                                 7038   
  --------------------------     7039   	rseg $$TAB$$S182$main
00:0000                          7040   $$S182 :
00:0000 1B 5B 4A 4D 4C 38 35 31  7041   	DB	"\x1b[JML8511> UV Intensity = %.02f[mW/cm2]. Vsenout = %.02f[V]\x0d"
00:0008 31 3E 20 55 56 20 49 6E   >>>   
00:0010 74 65 6E 73 69 74 79 20   >>>   
00:0018 3D 20 25 2E 30 32 66 5B   >>>   
00:0020 6D 57 2F 63 6D 32 5D 2E   >>>   
00:0028 20 56 73 65 6E 6F 75 74   >>>   
00:0030 20 3D 20 25 2E 30 32 66   >>>   
00:0038 5B 56 5D 0D 00            >>>   , 00H
                                 7042   
  --------------------------     7043   	rseg $$TAB$$S184$main
00:0000                          7044   $$S184 :
00:0000 1B 5B 4A 4B 58 30 32 32  7045   	DB	"\x1b[JKX022> AccelX_raw = %d, AccelX_scaled = %.05f[g], AccelY_raw = %d, AccelY_scaled = %.05f[g], AccelZ_raw = %d, AccelZ_scaled = %.05f[g]\x0d"
00:0008 3E 20 41 63 63 65 6C 58   >>>   
00:0010 5F 72 61 77 20 3D 20 25   >>>   
00:0018 64 2C 20 41 63 63 65 6C   >>>   
00:0020 58 5F 73 63 61 6C 65 64   >>>   
00:0028 20 3D 20 25 2E 30 35 66   >>>   
00:0030 5B 67 5D 2C 20 41 63 63   >>>   
00:0038 65 6C 59 5F 72 61 77 20   >>>   
00:0040 3D 20 25 64 2C 20 41 63   >>>   
00:0048 63 65 6C 59 5F 73 63 61   >>>   
00:0050 6C 65 64 20 3D 20 25 2E   >>>   
00:0058 30 35 66 5B 67 5D 2C 20   >>>   
00:0060 41 63 63 65 6C 5A 5F 72   >>>   
00:0068 61 77 20 3D 20 25 64 2C   >>>   
00:0070 20 41 63 63 65 6C 5A 5F   >>>   
00:0078 73 63 61 6C 65 64 20 3D   >>>   
00:0080 20 25 2E 30 35 66 5B 67   >>>   
00:0088 5D 0D 00                  >>>   , 00H
                                 7046   
  --------------------------     7047   	rseg $$TAB$$S197$main
00:0000                          7048   $$S197 :
00:0000 1B 5B 4A 4B 4D 58 36 31  7049   	DB	"\x1b[JKMX61> AccelX_raw = %d, AccelX_scaled = %.05f[g], AccelY_raw = %d, AccelY_scaled = %.05f[g], AccelZ_raw = %d, AccelZ_scaled = %.05f[g]"
00:0008 3E 20 41 63 63 65 6C 58   >>>   
00:0010 5F 72 61 77 20 3D 20 25   >>>   
00:0018 64 2C 20 41 63 63 65 6C   >>>   
00:0020 58 5F 73 63 61 6C 65 64   >>>   
00:0028 20 3D 20 25 2E 30 35 66   >>>   
00:0030 5B 67 5D 2C 20 41 63 63   >>>   
00:0038 65 6C 59 5F 72 61 77 20   >>>   
00:0040 3D 20 25 64 2C 20 41 63   >>>   
00:0048 63 65 6C 59 5F 73 63 61   >>>   
00:0050 6C 65 64 20 3D 20 25 2E   >>>   
00:0058 30 35 66 5B 67 5D 2C 20   >>>   
00:0060 41 63 63 65 6C 5A 5F 72   >>>   
00:0068 61 77 20 3D 20 25 64 2C   >>>   
00:0070 20 41 63 63 65 6C 5A 5F   >>>   
00:0078 73 63 61 6C 65 64 20 3D   >>>   
00:0080 20 25 2E 30 35 66 5B 67   >>>   
00:0088 5D 00                     >>>   , 00H
                                 7050   
  --------------------------     7051   	rseg $$TAB$$S247$main
00:0000                          7052   $$S247 :
00:0000 0A 0D 4B 4D 58 36 31 3E  7053   	DB	"\x0a\x0dKMX61> MagX_raw = %d, MagX_scaled = %.05f[uT], MagY_raw = %d, MagY_scaled = %.05f[uT], MagZ_raw = %d, MagZ_scaled = %.05f[uT]\x1b[F"
00:0008 20 4D 61 67 58 5F 72 61   >>>   
00:0010 77 20 3D 20 25 64 2C 20   >>>   
00:0018 4D 61 67 58 5F 73 63 61   >>>   
00:0020 6C 65 64 20 3D 20 25 2E   >>>   
00:0028 30 35 66 5B 75 54 5D 2C   >>>   
00:0030 20 4D 61 67 59 5F 72 61   >>>   
00:0038 77 20 3D 20 25 64 2C 20   >>>   
00:0040 4D 61 67 59 5F 73 63 61   >>>   
00:0048 6C 65 64 20 3D 20 25 2E   >>>   
00:0050 30 35 66 5B 75 54 5D 2C   >>>   
00:0058 20 4D 61 67 5A 5F 72 61   >>>   
00:0060 77 20 3D 20 25 64 2C 20   >>>   
00:0068 4D 61 67 5A 5F 73 63 61   >>>   
00:0070 6C 65 64 20 3D 20 25 2E   >>>   
00:0078 30 35 66 5B 75 54 5D 1B   >>>   
00:0080 5B 46 00                  >>>   , 00H
                                 7054   
  --------------------------     7055   	rseg $$TAB$$S249$main
00:0000                          7056   $$S249 :
00:0000 1B 5B 4A 42 44 31 30 32  7057   	DB	"\x1b[JBD1020HFV> Temperature = %.02f[\xc2\xb0C]. Vsenout = %.02f[V]\x0d"
00:0008 30 48 46 56 3E 20 54 65   >>>   
00:0010 6D 70 65 72 61 74 75 72   >>>   
00:0018 65 20 3D 20 25 2E 30 32   >>>   
00:0020 66 5B C2 B0 43 5D 2E 20   >>>   
00:0028 56 73 65 6E 6F 75 74 20   >>>   
00:0030 3D 20 25 2E 30 32 66 5B   >>>   
00:0038 56 5D 0D 00               >>>   , 00H
                                 7058   
  --------------------------     7059   	rseg $$TAB$$S251$main
00:0000                          7060   $$S251 :
00:0000 1B 5B 4A 42 44 4A 30 36  7061   	DB	"\x1b[JBDJ0601HFV> Temperature = %.02f[\xc2\xb0C]. Vsenout = %.02f[V]"
00:0008 30 31 48 46 56 3E 20 54   >>>   
00:0010 65 6D 70 65 72 61 74 75   >>>   
00:0018 72 65 20 3D 20 25 2E 30   >>>   
00:0020 32 66 5B C2 B0 43 5D 2E   >>>   
00:0028 20 56 73 65 6E 6F 75 74   >>>   
00:0030 20 3D 20 25 2E 30 32 66   >>>   
00:0038 5B 56 5D 00               >>>   , 00H
                                 7062   
  --------------------------     7063   	rseg $$TAB$$S254$main
00:0000                          7064   $$S254 :
00:0000 0A 0D 42 44 4A 30 36 30  7065   	DB	"\x0a\x0dBDJ0601HFV> Temperature Threshold Reached.\x1b[F"
00:0008 31 48 46 56 3E 20 54 65   >>>   
00:0010 6D 70 65 72 61 74 75 72   >>>   
00:0018 65 20 54 68 72 65 73 68   >>>   
00:0020 6F 6C 64 20 52 65 61 63   >>>   
00:0028 68 65 64 2E 1B 5B 46 00   >>>   , 00H
                                 7066   
  --------------------------     7067   	rseg $$TAB$$S256$main
00:0000                          7068   $$S256 :
00:0000 0A 0D 42 44 4A 30 36 30  7069   	DB	"\x0a\x0dBDJ0601HFV> Temperature Threshold Not Reached.\x1b[F"
00:0008 31 48 46 56 3E 20 54 65   >>>   
00:0010 6D 70 65 72 61 74 75 72   >>>   
00:0018 65 20 54 68 72 65 73 68   >>>   
00:0020 6F 6C 64 20 4E 6F 74 20   >>>   
00:0028 52 65 61 63 68 65 64 2E   >>>   
00:0030 1B 5B 46 00               >>>   , 00H
                                 7070   
  --------------------------     7071   	rseg $$TAB$$S258$main
00:0000                          7072   $$S258 :
00:0000 1B 5B 4A 42 44 45 30 36  7073   	DB	"\x1b[JBDE0600G> Temperature = %.02f[\xc2\xb0C]. Vsenout = %.02f[V]"
00:0008 30 30 47 3E 20 54 65 6D   >>>   
00:0010 70 65 72 61 74 75 72 65   >>>   
00:0018 20 3D 20 25 2E 30 32 66   >>>   
00:0020 5B C2 B0 43 5D 2E 20 56   >>>   
00:0028 73 65 6E 6F 75 74 20 3D   >>>   
00:0030 20 25 2E 30 32 66 5B 56   >>>   
00:0038 5D 00                     >>>   , 00H
                                 7074   
  --------------------------     7075   	rseg $$TAB$$S261$main
00:0000                          7076   $$S261 :
00:0000 0A 0D 42 44 45 30 36 30  7077   	DB	"\x0a\x0dBDE0600G> Temperature Threshold Reached.\x1b[F"
00:0008 30 47 3E 20 54 65 6D 70   >>>   
00:0010 65 72 61 74 75 72 65 20   >>>   
00:0018 54 68 72 65 73 68 6F 6C   >>>   
00:0020 64 20 52 65 61 63 68 65   >>>   
00:0028 64 2E 1B 5B 46 00         >>>   , 00H
                                 7078   
  --------------------------     7079   	rseg $$TAB$$S263$main
00:0000                          7080   $$S263 :
00:0000 0A 0D 42 44 45 30 36 30  7081   	DB	"\x0a\x0dBDE0600G> Temperature Threshold Not Reached.\x1b[F"
00:0008 30 47 3E 20 54 65 6D 70   >>>   
00:0010 65 72 61 74 75 72 65 20   >>>   
00:0018 54 68 72 65 73 68 6F 6C   >>>   
00:0020 64 20 4E 6F 74 20 52 65   >>>   
00:0028 61 63 68 65 64 2E 1B 5B   >>>   
00:0030 46 00                     >>>   , 00H
                                 7082   
  --------------------------     7083   	rseg $$TAB$$S265$main
00:0000                          7084   $$S265 :
00:0000 1B 5B 4A 42 44 4A 30 35  7085   	DB	"\x1b[JBDJ0550HFV> Temperature = %.02f[\xc2\xb0C]. Vsenout = %.02f[V]"
00:0008 35 30 48 46 56 3E 20 54   >>>   
00:0010 65 6D 70 65 72 61 74 75   >>>   
00:0018 72 65 20 3D 20 25 2E 30   >>>   
00:0020 32 66 5B C2 B0 43 5D 2E   >>>   
00:0028 20 56 73 65 6E 6F 75 74   >>>   
00:0030 20 3D 20 25 2E 30 32 66   >>>   
00:0038 5B 56 5D 00               >>>   , 00H
                                 7086   
  --------------------------     7087   	rseg $$TAB$$S268$main
00:0000                          7088   $$S268 :
00:0000 0A 0D 42 44 4A 30 35 35  7089   	DB	"\x0a\x0dBDJ0550HFV> Temperature Threshold Reached.\x1b[F"
00:0008 30 48 46 56 3E 20 54 65   >>>   
00:0010 6D 70 65 72 61 74 75 72   >>>   
00:0018 65 20 54 68 72 65 73 68   >>>   
00:0020 6F 6C 64 20 52 65 61 63   >>>   
00:0028 68 65 64 2E 1B 5B 46 00   >>>   , 00H
                                 7090   
  --------------------------     7091   	rseg $$TAB$$S270$main
00:0000                          7092   $$S270 :
00:0000 0A 0D 42 44 4A 30 35 35  7093   	DB	"\x0a\x0dBDJ0550HFV> Temperature Threshold Not Reached.\x1b[F"
00:0008 30 48 46 56 3E 20 54 65   >>>   
00:0010 6D 70 65 72 61 74 75 72   >>>   
00:0018 65 20 54 68 72 65 73 68   >>>   
00:0020 6F 6C 64 20 4E 6F 74 20   >>>   
00:0028 52 65 61 63 68 65 64 2E   >>>   
00:0030 1B 5B 46 00               >>>   , 00H
                                 7094   
  --------------------------     7095   	rseg $$NINITVAR
00:0000                          7096   _SensorIntializationFlag :
00:0000                          7097   	ds	01h
00:0001                          7098   _LEDFlashFlag :
00:0001                          7099   	ds	01h
00:0002                          7100   _LEDChangeFlag :
00:0002                          7101   	ds	01h
                                 7102   
  --------------------------     7103   	rseg $$NVARmain
00:0000                          7104   _SensorPlatformSelection :
00:0000                          7105   	ds	01h
                                 7106   
  --------------------------     7107   	rseg $$NINITTAB
??:0003 00                       7108   	align
                                 7109   
  --------------------------     7110   	rseg $$NINITVAR
00:0003                          7111   	align
                                 7112   	extrn code : __faddu8sw
                                 7113   	extrn code : __fsubu8sw
                                 7114   	extrn code : __fcmpu8sw
                                 7115   	extrn code : __fmulu8sw
                                 7116   	extrn code : __fdivu8sw
                                 7117   	extrn code : __fildu8sw
                                 7118   	extrn code : __ftolu8sw
                                 7119   	extrn code : __ftodu8sw
                                 7120   	extrn code : __fuldu8sw
                                 7121   
                                 7122   	end



  Target       : ML610112 (nX-U8/100)
  Memory Model : SMALL
  Data   Model : NEAR
  ROM WINDOW   : (not specified)
  Internal RAM : E000H to EFFFH

  Errors   : 0
  Warnings : 0  (/Wrpeast)
  Lines    : 7122
