RASU8(ML610112)Relocatable Assembler, Ver.1.61.2    assemble list. page:   1 
 Source File: _output\_obj\main.asm
 Object File: _output\_obj\main.obj
 Date  : 2014/09/10 Wed.[14:00]
 Title : 
## Loc. Object                   Line   Source Statements

                                    1   ;; Compile Options : /TML610112 /MS /near /Icommon /Imain /Iirq /Itimer /Iclock /Itbc /Iuart /Ii2c /SS 256 /SD /Oa /Ot /W 3 /Wc /Fa_output\_obj\ 
                                    2   ;; Version Number  : Ver.3.31.4
                                    3   ;; File Name       : main.c
                                    4   
                                    5   	type (ML610112) 
                                    6   	model small, near
                                    7   	$$NVARmain segment data 2h #0h
                                    8   	$$NINITVAR segment data 2h #0h
                                    9   	$$NINITTAB segment table 2h any
                                   10   	$$NTABmain segment table 2h #0h
                                   11   	$$ADC_Read$main segment code 2h #0h
                                   12   	$$DeviceSelection$main segment code 2h #0h
                                   13   	$$I2C_Read$main segment code 2h #0h
                                   14   	$$I2C_Write$main segment code 2h #0h
                                   15   	$$Init_Ambient_Light_Sensor_5$main segment code 2h #0h
                                   16   	$$Init_Ambient_Light_Sensor_6$main segment code 2h #0h
                                   17   	$$Init_Ambient_Light_Sensor_7$main segment code 2h #0h
                                   18   	$$Init_Ambient_Light_Sensor_8$main segment code 2h #0h
                                   19   	$$Init_Ambient_Light_Sensor_9$main segment code 2h #0h
                                   20   	$$Init_Hall_Effect_Sensors_1$main segment code 2h #0h
                                   21   	$$Init_Hall_Effect_Sensors_2$main segment code 2h #0h
                                   22   	$$Init_KMX61$main segment code 2h #0h
                                   23   	$$Init_KX022$main segment code 2h #0h
                                   24   	$$Init_Temperature_Sensor_20$main segment code 2h #0h
                                   25   	$$Init_Temperature_Sensor_21$main segment code 2h #0h
                                   26   	$$Init_Temperature_Sensor_22$main segment code 2h #0h
                                   27   	$$Init_Temperature_Sensor_23$main segment code 2h #0h
                                   28   	$$Init_UV_Sensor_10$main segment code 2h #0h
                                   29   	$$Initialization$main segment code 2h #0h
                                   30   	$$MainOp_Ambient_Light_Sensor_5$main segment code 2h #0h
                                   31   	$$MainOp_Ambient_Light_Sensor_6$main segment code 2h #0h
                                   32   	$$MainOp_Ambient_Light_Sensor_7$main segment code 2h #0h
                                   33   	$$MainOp_Ambient_Light_Sensor_8$main segment code 2h #0h
                                   34   	$$MainOp_Ambient_Light_Sensor_9$main segment code 2h #0h
                                   35   	$$MainOp_Hall_Effect_Sensors_1$main segment code 2h #0h
                                   36   	$$MainOp_Hall_Effect_Sensors_2$main segment code 2h #0h
                                   37   	$$MainOp_KMX61$main segment code 2h #0h
                                   38   	$$MainOp_KX022$main segment code 2h #0h
                                   39   	$$MainOp_Temperature_Sensor_20$main segment code 2h #0h
                                   40   	$$MainOp_Temperature_Sensor_21$main segment code 2h #0h
                                   41   	$$MainOp_Temperature_Sensor_22$main segment code 2h #0h
                                   42   	$$MainOp_Temperature_Sensor_23$main segment code 2h #0h
                                   43   	$$MainOp_UV_Sensor_10$main segment code 2h #0h
                                   44   	$$NOPms$main segment code 2h #0h
                                   45   	$$PortA_Low$main segment code 2h #0h
                                   46   	$$PortB_Low$main segment code 2h #0h
                                   47   	$$PortC_Low$main segment code 2h #0h
                                   48   	$$PortD_Low$main segment code 2h #0h
                                   49   	$$SensorInitialization$main segment code 2h #0h
                                   50   	$$SetOSC$main segment code 2h #0h
                                   51   	$$TAB$$S123$main segment table 2h #0h
                                   52   	$$TAB$$S132$main segment table 2h #0h
                                   53   	$$TAB$$S141$main segment table 2h #0h
                                   54   	$$TAB$$S143$main segment table 2h #0h
                                   55   	$$TAB$$S147$main segment table 2h #0h
                                   56   	$$TAB$$S149$main segment table 2h #0h
                                   57   	$$TAB$$S160$main segment table 2h #0h
                                   58   	$$TAB$$S162$main segment table 2h #0h
                                   59   	$$TAB$$S176$main segment table 2h #0h
                                   60   	$$TAB$$S178$main segment table 2h #0h
                                   61   	$$TAB$$S180$main segment table 2h #0h
                                   62   	$$TAB$$S182$main segment table 2h #0h
                                   63   	$$TAB$$S184$main segment table 2h #0h
                                   64   	$$TAB$$S186$main segment table 2h #0h
                                   65   	$$TAB$$S187$main segment table 2h #0h
                                   66   	$$TAB$$S189$main segment table 2h #0h
                                   67   	$$TAB$$S191$main segment table 2h #0h
                                   68   	$$TAB$$S194$main segment table 2h #0h
                                   69   	$$TAB$$S196$main segment table 2h #0h
                                   70   	$$TAB$$S198$main segment table 2h #0h
                                   71   	$$TAB$$S201$main segment table 2h #0h
                                   72   	$$TAB$$S203$main segment table 2h #0h
                                   73   	$$TAB$$S205$main segment table 2h #0h
                                   74   	$$TAB$$S208$main segment table 2h #0h
                                   75   	$$TAB$$S210$main segment table 2h #0h
                                   76   	$$TAB$$S30$main segment table 2h #0h
                                   77   	$$TAB$$S53$main segment table 2h #0h
                                   78   	$$TABBH1710FVC_CONT_H_RES_MOD$main segment table 2h #0h
                                   79   	$$TABBH1710FVC_CONT_L_RES_MOD$main segment table 2h #0h
                                   80   	$$TABBH1710FVC_CONT_M_RES_MOD$main segment table 2h #0h
                                   81   	$$TABBH1710FVC_ONET_H_RES_MOD$main segment table 2h #0h
                                   82   	$$TABBH1710FVC_ONET_L_RES_MOD$main segment table 2h #0h
                                   83   	$$TABBH1710FVC_ONET_M_RES_MOD$main segment table 2h #0h
                                   84   	$$TABBH1710FVC_RESET$main segment table 2h #0h
                                   85   	$$TABBH1721FVC_CONT_A_RES_MOD$main segment table 2h #0h
                                   86   	$$TABBH1721FVC_CONT_H_RES_MOD$main segment table 2h #0h
                                   87   	$$TABBH1721FVC_CONT_L_RES_MOD$main segment table 2h #0h
                                   88   	$$TABBH1730FVC_CMD_RESET_INT_OUT$main segment table 2h #0h
                                   89   	$$TABBH1730FVC_CMD_START_MIM$main segment table 2h #0h
                                   90   	$$TABBH1730FVC_CMD_STOP_MIM$main segment table 2h #0h
                                   91   	$$TABBH1730FVC_CMD_SW_RESET$main segment table 2h #0h
                                   92   	$$TABBH1730FVC_REG_CONTROL$main segment table 2h #0h
                                   93   	$$TABBH1730FVC_REG_DATA0HIGH$main segment table 2h #0h
                                   94   	$$TABBH1730FVC_REG_DATA0LOW$main segment table 2h #0h
                                   95   	$$TABBH1730FVC_REG_DATA1HIGH$main segment table 2h #0h
                                   96   	$$TABBH1730FVC_REG_DATA1LOW$main segment table 2h #0h
                                   97   	$$TABBH1730FVC_REG_GAIN$main segment table 2h #0h
                                   98   	$$TABBH1730FVC_REG_ID$main segment table 2h #0h
                                   99   	$$TABBH1730FVC_REG_INTERRUPT$main segment table 2h #0h
                                  100   	$$TABBH1730FVC_REG_THHHIGH$main segment table 2h #0h
                                  101   	$$TABBH1730FVC_REG_THHLOW$main segment table 2h #0h
                                  102   	$$TABBH1730FVC_REG_THLHIGH$main segment table 2h #0h
                                  103   	$$TABBH1730FVC_REG_THLLOW$main segment table 2h #0h
                                  104   	$$TABBH1730FVC_REG_TIMING$main segment table 2h #0h
                                  105   	$$TABBH1780GLI_REG_CONTROL$main segment table 2h #0h
                                  106   	$$TABBH1780GLI_REG_DATAHIGH$main segment table 2h #0h
                                  107   	$$TABBH1780GLI_REG_DATALOW$main segment table 2h #0h
                                  108   	$$TABBH1780GLI_REG_MFG_ID$main segment table 2h #0h
                                  109   	$$TABBH1780GLI_REG_PART_ID$main segment table 2h #0h
                                  110   	$$TABBH17xxFVC_ADDR_1$main segment table 2h #0h
                                  111   	$$TABBH17xxFVC_ADDR_2$main segment table 2h #0h
                                  112   	$$TABBH17xxFVC_PWR_DOWN$main segment table 2h #0h
                                  113   	$$TABBH17xxFVC_PWR_ON$main segment table 2h #0h
                                  114   	$$TABKMX61_ACCEL_XOUT_H$main segment table 2h #0h
                                  115   	$$TABKMX61_ACCEL_XOUT_L$main segment table 2h #0h
                                  116   	$$TABKMX61_ACCEL_YOUT_H$main segment table 2h #0h
                                  117   	$$TABKMX61_ACCEL_YOUT_L$main segment table 2h #0h
                                  118   	$$TABKMX61_ACCEL_ZOUT_H$main segment table 2h #0h
                                  119   	$$TABKMX61_ACCEL_ZOUT_L$main segment table 2h #0h
                                  120   	$$TABKMX61_BTH$main segment table 2h #0h
                                  121   	$$TABKMX61_BTSC$main segment table 2h #0h
                                  122   	$$TABKMX61_BUF_CLEAR$main segment table 2h #0h
                                  123   	$$TABKMX61_BUF_CTRL1$main segment table 2h #0h
                                  124   	$$TABKMX61_BUF_CTRL2$main segment table 2h #0h
                                  125   	$$TABKMX61_BUF_READ$main segment table 2h #0h
                                  126   	$$TABKMX61_BUF_STATUS_H$main segment table 2h #0h
                                  127   	$$TABKMX61_BUF_STATUS_L$main segment table 2h #0h
                                  128   	$$TABKMX61_BUF_STATUS_REG$main segment table 2h #0h
                                  129   	$$TABKMX61_BUF_THRESH_H$main segment table 2h #0h
                                  130   	$$TABKMX61_BUF_THRESH_L$main segment table 2h #0h
                                  131   	$$TABKMX61_CNTL1$main segment table 2h #0h
                                  132   	$$TABKMX61_CNTL2$main segment table 2h #0h
                                  133   	$$TABKMX61_COTR$main segment table 2h #0h
                                  134   	$$TABKMX61_I2C_ADDR$main segment table 2h #0h
                                  135   	$$TABKMX61_INC1$main segment table 2h #0h
                                  136   	$$TABKMX61_INC2$main segment table 2h #0h
                                  137   	$$TABKMX61_INC3$main segment table 2h #0h
                                  138   	$$TABKMX61_INL$main segment table 2h #0h
                                  139   	$$TABKMX61_INS1$main segment table 2h #0h
                                  140   	$$TABKMX61_INS2$main segment table 2h #0h
                                  141   	$$TABKMX61_MAG_XOUT_H$main segment table 2h #0h
                                  142   	$$TABKMX61_MAG_XOUT_L$main segment table 2h #0h
                                  143   	$$TABKMX61_MAG_YOUT_H$main segment table 2h #0h
                                  144   	$$TABKMX61_MAG_YOUT_L$main segment table 2h #0h
                                  145   	$$TABKMX61_MAG_ZOUT_H$main segment table 2h #0h
                                  146   	$$TABKMX61_MAG_ZOUT_L$main segment table 2h #0h
                                  147   	$$TABKMX61_ODCNTL$main segment table 2h #0h
                                  148   	$$TABKMX61_SELF_TEST$main segment table 2h #0h
                                  149   	$$TABKMX61_SN_1$main segment table 2h #0h
                                  150   	$$TABKMX61_SN_2$main segment table 2h #0h
                                  151   	$$TABKMX61_SN_3$main segment table 2h #0h
                                  152   	$$TABKMX61_SN_4$main segment table 2h #0h
                                  153   	$$TABKMX61_STATUS_REG$main segment table 2h #0h
                                  154   	$$TABKMX61_STBY_REG$main segment table 2h #0h
                                  155   	$$TABKMX61_TEMP_EN_CNTL$main segment table 2h #0h
                                  156   	$$TABKMX61_TEMP_OUT_H$main segment table 2h #0h
                                  157   	$$TABKMX61_TEMP_OUT_L$main segment table 2h #0h
                                  158   	$$TABKMX61_WHO_AM_I$main segment table 2h #0h
                                  159   	$$TABKMX61_WUFC$main segment table 2h #0h
                                  160   	$$TABKMX61_WUFTH$main segment table 2h #0h
                                  161   	$$TABKMX61_XOUT_HPF_H$main segment table 2h #0h
                                  162   	$$TABKMX61_XOUT_HPF_L$main segment table 2h #0h
                                  163   	$$TABKMX61_YOUT_HPF_H$main segment table 2h #0h
                                  164   	$$TABKMX61_YOUT_HPF_L$main segment table 2h #0h
                                  165   	$$TABKMX61_ZOUT_HPF_H$main segment table 2h #0h
                                  166   	$$TABKMX61_ZOUT_HPF_L$main segment table 2h #0h
                                  167   	$$TABKX022_ATH$main segment table 2h #0h
                                  168   	$$TABKX022_BUF_CLEAR$main segment table 2h #0h
                                  169   	$$TABKX022_BUF_CNTL1$main segment table 2h #0h
                                  170   	$$TABKX022_BUF_CNTL2$main segment table 2h #0h
                                  171   	$$TABKX022_BUF_READ$main segment table 2h #0h
                                  172   	$$TABKX022_BUF_STATUS_1$main segment table 2h #0h
                                  173   	$$TABKX022_BUF_STATUS_2$main segment table 2h #0h
                                  174   	$$TABKX022_CNTL1$main segment table 2h #0h
                                  175   	$$TABKX022_CNTL2$main segment table 2h #0h
                                  176   	$$TABKX022_CNTL3$main segment table 2h #0h
                                  177   	$$TABKX022_COTR$main segment table 2h #0h
                                  178   	$$TABKX022_FTD$main segment table 2h #0h
                                  179   	$$TABKX022_HYST_SET$main segment table 2h #0h
                                  180   	$$TABKX022_I2C_ADDR$main segment table 2h #0h
                                  181   	$$TABKX022_INC1$main segment table 2h #0h
                                  182   	$$TABKX022_INC2$main segment table 2h #0h
                                  183   	$$TABKX022_INC3$main segment table 2h #0h
                                  184   	$$TABKX022_INC4$main segment table 2h #0h
                                  185   	$$TABKX022_INC5$main segment table 2h #0h
                                  186   	$$TABKX022_INC6$main segment table 2h #0h
                                  187   	$$TABKX022_INS1$main segment table 2h #0h
                                  188   	$$TABKX022_INS2$main segment table 2h #0h
                                  189   	$$TABKX022_INS3$main segment table 2h #0h
                                  190   	$$TABKX022_INT_REL$main segment table 2h #0h
                                  191   	$$TABKX022_LP_CNTL$main segment table 2h #0h
                                  192   	$$TABKX022_ODCNTL$main segment table 2h #0h
                                  193   	$$TABKX022_SELF_TEST$main segment table 2h #0h
                                  194   	$$TABKX022_STAT$main segment table 2h #0h
                                  195   	$$TABKX022_STD$main segment table 2h #0h
                                  196   	$$TABKX022_TDTC$main segment table 2h #0h
                                  197   	$$TABKX022_TDTRC$main segment table 2h #0h
                                  198   	$$TABKX022_TILT_ANGLE_HL$main segment table 2h #0h
                                  199   	$$TABKX022_TILT_ANGLE_LL$main segment table 2h #0h
                                  200   	$$TABKX022_TILT_TIMER$main segment table 2h #0h
                                  201   	$$TABKX022_TLT$main segment table 2h #0h
                                  202   	$$TABKX022_TSCP$main segment table 2h #0h
                                  203   	$$TABKX022_TSPP$main segment table 2h #0h
                                  204   	$$TABKX022_TTH$main segment table 2h #0h
                                  205   	$$TABKX022_TTL$main segment table 2h #0h
                                  206   	$$TABKX022_TWS$main segment table 2h #0h
                                  207   	$$TABKX022_WHO_AM_I$main segment table 2h #0h
                                  208   	$$TABKX022_WUFC$main segment table 2h #0h
                                  209   	$$TABKX022_XHPH$main segment table 2h #0h
                                  210   	$$TABKX022_XHPL$main segment table 2h #0h
                                  211   	$$TABKX022_XOUTH$main segment table 2h #0h
                                  212   	$$TABKX022_XOUTL$main segment table 2h #0h
                                  213   	$$TABKX022_YHPH$main segment table 2h #0h
                                  214   	$$TABKX022_YHPL$main segment table 2h #0h
                                  215   	$$TABKX022_YOUTH$main segment table 2h #0h
                                  216   	$$TABKX022_YOUTL$main segment table 2h #0h
                                  217   	$$TABKX022_ZHPH$main segment table 2h #0h
                                  218   	$$TABKX022_ZHPL$main segment table 2h #0h
                                  219   	$$TABKX022_ZOUTH$main segment table 2h #0h
                                  220   	$$TABKX022_ZOUTL$main segment table 2h #0h
                                  221   	$$TAB_uartSetParam$main segment table 2h #0h
                                  222   	$$_funcI2CFin$main segment code 2h #0h
                                  223   	$$_funcUartFin$main segment code 2h #0h
                                  224   	$$_intADC$main segment code 2h #0h
                                  225   	$$_intI2c$main segment code 2h #0h
                                  226   	$$_intUart$main segment code 2h #0h
                                  227   	$$main$main segment code 2h #0h
                                  228   	$$main_clrWDT$main segment code 2h #0h
                                  229   	$$main_reqNotHalt$main segment code 2h #0h
                                  230   	$$write$main segment code 2h #0h
                                  231   	$$NTABmain$main segment table 2h #0h
                                  232   	$$NTABADC_Read$main segment table 2h #0h
                                  233   	$$NTABSensorInitialization$main segment table 2h #0h
                                  234   	STACKSEG 0100h
                                  235   CVERSION 3.31.4
                                  236   CGLOBAL 01H 03H 0000H "Init_Hall_Effect_Sensors_1" 08H 02H 0D6H 00H 80H 00H 00H 00H 07H
                                  237   CGLOBAL 01H 03H 0000H "Init_Hall_Effect_Sensors_2" 08H 02H 0D5H 00H 80H 00H 00H 00H 07H
                                  238   CGLOBAL 01H 03H 0000H "MainOp_Hall_Effect_Sensors_1" 08H 02H 0C8H 00H 81H 0aH 00H 00H 07H
                                  239   CGLOBAL 01H 03H 0000H "MainOp_Hall_Effect_Sensors_2" 08H 02H 0C7H 00H 81H 06H 00H 00H 07H
                                  240   CGLOBAL 01H 03H 0000H "NOPms" 08H 02H 0C4H 00H 81H 0aH 00H 00H 07H
                                  241   CGLOBAL 01H 03H 0000H "MainOp_Temperature_Sensor_20" 08H 02H 0D1H 00H 81H 14H 00H 00H 07H
                                  242   CGLOBAL 01H 03H 0000H "MainOp_Temperature_Sensor_21" 08H 02H 0D2H 00H 81H 14H 00H 00H 07H
                                  243   CGLOBAL 01H 03H 0000H "MainOp_Temperature_Sensor_22" 08H 02H 0D3H 00H 81H 14H 00H 00H 07H
                                  244   CGLOBAL 01H 03H 0000H "MainOp_Temperature_Sensor_23" 08H 02H 0D4H 00H 81H 14H 00H 00H 07H
                                  245   CGLOBAL 01H 03H 0000H "main_clrWDT" 08H 02H 0B3H 00H 80H 00H 00H 00H 07H
                                  246   CSGLOBAL 03H 0000H "_funcUartFin" 08H 02H 0BEH 00H 81H 02H 00H 00H 07H
                                  247   CGLOBAL 01H 03H 0000H "main_reqNotHalt" 08H 02H 0C0H 00H 80H 00H 00H 00H 07H
                                  248   CGLOBAL 01H 03H 0000H "MainOp_UV_Sensor_10" 08H 02H 0CEH 00H 81H 14H 00H 00H 07H
                                  249   CGLOBAL 01H 03H 0000H "DeviceSelection" 08H 02H 0C5H 00H 80H 00H 00H 00H 07H
                                  250   CGLOBAL 01H 03H 0000H "Init_KX022" 08H 02H 0DDH 00H 81H 08H 00H 00H 07H
                                  251   CSGLOBAL 03H 0000H "Initialization" 08H 02H 0B4H 00H 81H 04H 00H 00H 07H
                                  252   CGLOBAL 01H 03H 0000H "MainOp_KMX61" 08H 02H 0D0H 00H 81H 22H 00H 00H 07H
                                  253   CGLOBAL 01H 03H 0000H "Init_Temperature_Sensor_20" 08H 02H 0DFH 00H 80H 00H 00H 00H 07H
                                  254   CGLOBAL 01H 03H 0000H "Init_Temperature_Sensor_21" 08H 02H 0E0H 00H 80H 00H 00H 00H 07H
                                  255   CGLOBAL 01H 03H 0000H "Init_Temperature_Sensor_22" 08H 02H 0E1H 00H 80H 00H 00H 00H 07H
                                  256   CGLOBAL 01H 03H 0000H "main" 08H 02H 0E3H 00H 80H 02H 00H 00H 01H
                                  257   CGLOBAL 01H 03H 0000H "Init_Temperature_Sensor_23" 08H 02H 0E2H 00H 80H 00H 00H 00H 07H
                                  258   CGLOBAL 01H 03H 0000H "Init_UV_Sensor_10" 08H 02H 0DCH 00H 80H 00H 00H 00H 07H
                                  259   CSGLOBAL 03H 0000H "_intUart" 08H 02H 0C1H 00H 80H 00H 00H 00H 07H
                                  260   CGLOBAL 01H 03H 0000H "SensorInitialization" 08H 02H 0C6H 00H 81H 02H 00H 00H 07H
                                  261   CGLOBAL 01H 03H 0000H "I2C_Write" 08H 02H 0BDH 00H 83H 10H 00H 00H 07H
                                  262   CGLOBAL 01H 03H 0000H "PortD_Low" 08H 02H 0B9H 00H 80H 00H 00H 00H 07H
                                  263   CSGLOBAL 03H 0000H "_intI2c" 08H 02H 0C2H 00H 81H 02H 00H 00H 07H
                                  264   CGLOBAL 01H 03H 0000H "write" 08H 02H 0BAH 00H 83H 08H 00H 00H 01H
                                  265   CSGLOBAL 03H 0000H "SetOSC" 08H 02H 0B5H 00H 80H 00H 00H 00H 07H
                                  266   CGLOBAL 01H 03H 0000H "PortC_Low" 08H 02H 0B8H 00H 80H 00H 00H 00H 07H
                                  267   CSGLOBAL 03H 0000H "_intADC" 08H 02H 0C3H 00H 80H 00H 00H 00H 07H
                                  268   CGLOBAL 01H 03H 0000H "PortB_Low" 08H 02H 0B7H 00H 80H 00H 00H 00H 07H
                                  269   CGLOBAL 01H 03H 0000H "I2C_Read" 08H 02H 0BCH 00H 83H 10H 00H 00H 07H
                                  270   CGLOBAL 01H 03H 0000H "ADC_Read" 08H 02H 0BBH 00H 81H 04H 00H 00H 01H
                                  271   CGLOBAL 01H 03H 0000H "MainOp_KX022" 08H 02H 0CFH 00H 81H 22H 00H 00H 07H
                                  272   CGLOBAL 01H 03H 0000H "Init_Ambient_Light_Sensor_5" 08H 02H 0D7H 00H 80H 00H 00H 00H 07H
                                  273   CGLOBAL 01H 03H 0000H "Init_Ambient_Light_Sensor_6" 08H 02H 0D8H 00H 81H 08H 00H 00H 07H
                                  274   CGLOBAL 01H 03H 0000H "Init_Ambient_Light_Sensor_7" 08H 02H 0D9H 00H 83H 0cH 00H 00H 07H
                                  275   CGLOBAL 01H 03H 0000H "Init_Ambient_Light_Sensor_8" 08H 02H 0DAH 00H 81H 08H 00H 00H 07H
                                  276   CGLOBAL 01H 03H 0000H "Init_Ambient_Light_Sensor_9" 08H 02H 0DBH 00H 81H 08H 00H 00H 07H
                                  277   CGLOBAL 01H 03H 0000H "PortA_Low" 08H 02H 0B6H 00H 80H 00H 00H 00H 07H
                                  278   CSGLOBAL 03H 0000H "_funcI2CFin" 08H 02H 0BFH 00H 81H 02H 00H 00H 07H
                                  279   CGLOBAL 01H 03H 0000H "Init_KMX61" 08H 02H 0DEH 00H 81H 08H 00H 00H 07H
                                  280   CGLOBAL 01H 03H 0000H "MainOp_Ambient_Light_Sensor_8" 08H 02H 0CCH 00H 81H 0aH 00H 00H 07H
                                  281   CGLOBAL 01H 03H 0000H "MainOp_Ambient_Light_Sensor_9" 08H 02H 0CDH 00H 81H 08H 00H 00H 07H
                                  282   CGLOBAL 01H 03H 0000H "MainOp_Ambient_Light_Sensor_5" 08H 02H 0C9H 00H 81H 0aH 00H 00H 07H
                                  283   CGLOBAL 01H 03H 0000H "MainOp_Ambient_Light_Sensor_6" 08H 02H 0CAH 00H 81H 0aH 00H 00H 07H
                                  284   CGLOBAL 01H 03H 0000H "MainOp_Ambient_Light_Sensor_7" 08H 02H 0CBH 00H 81H 0eH 00H 00H 07H
                                  285   CSTRUCTTAG 0000H 0000H 0005H 000CH 00000016H "_Notag"
                                  286   CSTRUCTMEM 42H 00000002H 00000000H "_Mode" 02H 00H 08H
                                  287   CSTRUCTMEM 43H 00000002H 00000002H "_Handle" 02H 00H 08H
                                  288   CSTRUCTMEM 42H 00000002H 00000004H "_Buf" 04H 03H 00H 00H 00H
                                  289   CSTRUCTMEM 42H 00000002H 00000006H "_Bend" 04H 03H 00H 00H 00H
                                  290   CSTRUCTMEM 42H 00000002H 00000008H "_Next" 04H 03H 00H 00H 00H
                                  291   CSTRUCTMEM 42H 00000002H 0000000AH "_Rend" 04H 03H 00H 00H 00H
                                  292   CSTRUCTMEM 42H 00000002H 0000000CH "_Rsave" 04H 03H 00H 00H 00H
                                  293   CSTRUCTMEM 42H 00000002H 0000000EH "_Wend" 04H 03H 00H 00H 00H
                                  294   CSTRUCTMEM 42H 00000002H 00000010H "_Back" 05H 01H 02H 00H 00H 00H
                                  295   CSTRUCTMEM 42H 00000001H 00000012H "_Cbuf" 02H 00H 00H
                                  296   CSTRUCTMEM 42H 00000001H 00000013H "_Nback" 02H 00H 00H
                                  297   CSTRUCTMEM 43H 00000002H 00000014H "_Tmpnam" 04H 03H 00H 00H 00H
                                  298   CSTRUCTTAG 0000H 0000H 0004H 0001H 00000004H "_Notag"
                                  299   CSTRUCTMEM 42H 00000004H 00000000H "_Off" 02H 00H 02H
                                  300   CSTRUCTTAG 0000H 0000H 0003H 0006H 0000000AH "_Notag"
                                  301   CSTRUCTMEM 42H 00000004H 00000000H "br" 02H 00H 02H
                                  302   CSTRUCTMEM 42H 00000001H 00000004H "lg" 02H 00H 00H
                                  303   CSTRUCTMEM 42H 00000001H 00000005H "pt" 02H 00H 00H
                                  304   CSTRUCTMEM 42H 00000001H 00000006H "stp" 02H 00H 00H
                                  305   CSTRUCTMEM 42H 00000001H 00000007H "neg" 02H 00H 00H
                                  306   CSTRUCTMEM 42H 00000001H 00000008H "dir" 02H 00H 00H
                                  307   CSTRUCTTAG 0000H 0000H 0002H 0002H 00000008H "_Notag"
                                  308   CSTRUCTMEM 43H 00000004H 00000000H "quot" 02H 00H 02H
                                  309   CSTRUCTMEM 43H 00000004H 00000004H "rem" 02H 00H 02H
                                  310   CSTRUCTTAG 0000H 0000H 0001H 0002H 00000004H "_Notag"
                                  311   CSTRUCTMEM 43H 00000002H 00000000H "quot" 02H 00H 01H
                                  312   CSTRUCTMEM 43H 00000002H 00000002H "rem" 02H 00H 01H
                                  313   CSTRUCTTAG 0000H 0000H 0000H 0008H 00000001H "_Notag"
                                  314   CSTRUCTMEM 52H 00000001H 00000000H "b0" 02H 00H 00H
                                  315   CSTRUCTMEM 52H 00000001H 00000001H "b1" 02H 00H 00H
                                  316   CSTRUCTMEM 52H 00000001H 00000002H "b2" 02H 00H 00H
                                  317   CSTRUCTMEM 52H 00000001H 00000003H "b3" 02H 00H 00H
                                  318   CSTRUCTMEM 52H 00000001H 00000004H "b4" 02H 00H 00H
                                  319   CSTRUCTMEM 52H 00000001H 00000005H "b5" 02H 00H 00H
                                  320   CSTRUCTMEM 52H 00000001H 00000006H "b6" 02H 00H 00H
                                  321   CSTRUCTMEM 52H 00000001H 00000007H "b7" 02H 00H 00H
                                  322   CUNIONTAG 0000H 0000H 0006H 0006H 00000006H "_Notag"
                                  323   CUNIONMEM 42H 00000001H "_uchar" 02H 00H 00H
                                  324   CUNIONMEM 42H 00000006H "_ucharArr" 05H 01H 06H 00H 00H 00H
                                  325   CUNIONMEM 42H 00000002H "_uint" 02H 00H 01H
                                  326   CUNIONMEM 42H 00000006H "_uintArr" 05H 01H 03H 00H 00H 01H
                                  327   CUNIONMEM 43H 00000006H "_intArr" 05H 01H 03H 00H 00H 01H
                                  328   CUNIONMEM 43H 00000004H "_float" 02H 00H 03H
                                  329   CTYPEDEF 0000H 0000H 43H "_Ptrdifft" 02H 00H 01H
                                  330   CTYPEDEF 0000H 0000H 42H "_Sizet" 02H 00H 01H
                                  331   CTYPEDEF 0000H 0000H 43H "tUartSetParam" 04H 00H 05H 03H 00H
                                  332   CTYPEDEF 0000H 0000H 42H "size_t" 02H 00H 01H
                                  333   CTYPEDEF 0000H 0000H 43H "cbfUart" 0AH 03H 00H 02H 2EH 00H 00H 00H 00H 00H 07H
                                  334   CTYPEDEF 0000H 0000H 43H "fpos_t" 04H 00H 05H 04H 00H
                                  335   CTYPEDEF 0000H 0000H 43H "cbfI2c" 0AH 03H 00H 02H 43H 00H 00H 00H 00H 00H 07H
                                  336   CTYPEDEF 0000H 0000H 03H "_Cmpfun_nf" 08H 02H 01H 00H 00H 00H 00H 00H 01H
                                  337   CTYPEDEF 0000H 0000H 03H "_Cmpfun_nn" 08H 02H 00H 00H 00H 00H 00H 00H 01H
                                  338   CTYPEDEF 0000H 0000H 03H "_Cmpfun_ff" 08H 02H 03H 00H 00H 00H 00H 00H 01H
                                  339   CTYPEDEF 0000H 0000H 03H "_Cmpfun_fn" 08H 02H 02H 00H 00H 00H 00H 00H 01H
                                  340   CTYPEDEF 0000H 0000H 43H "FILE" 04H 00H 05H 05H 00H
                                  341   CTYPEDEF 0000H 0000H 43H "div_t" 04H 00H 05H 01H 00H
                                  342   CTYPEDEF 0000H 0000H 43H "ldiv_t" 04H 00H 05H 02H 00H
                                  343   CTYPEDEF 0000H 0000H 43H "_BYTE_FIELD" 04H 00H 05H 00H 00H
                                  344   CGLOBAL 01H 00H 0001H "KX022_SELF_TEST" 02H 00H 00H
                                  345   CGLOBAL 00H 42H 0001H "_flgUartFin" 02H 00H 00H
                                  346   CGLOBAL 01H 00H 0001H "KMX61_WUFC" 02H 00H 00H
                                  347   CGLOBAL 01H 00H 0001H "BH1780GLI_REG_PART_ID" 02H 00H 00H
                                  348   CGLOBAL 01H 00H 0001H "BH1730FVC_CMD_RESET_INT_OUT" 02H 00H 00H
                                  349   CGLOBAL 01H 00H 0001H "KX022_INT_REL" 02H 00H 00H
                                  350   CGLOBAL 01H 00H 0001H "BH1780GLI_REG_DATALOW" 02H 00H 00H
                                  351   CGLOBAL 01H 00H 0001H "BH1721FVC_CONT_A_RES_MOD" 02H 00H 00H
                                  352   CGLOBAL 01H 00H 0001H "BH1710FVC_CONT_H_RES_MOD" 02H 00H 00H
                                  353   CGLOBAL 01H 00H 0001H "BH1721FVC_CONT_H_RES_MOD" 02H 00H 00H
                                  354   CGLOBAL 01H 00H 0001H "BH1730FVC_REG_THHHIGH" 02H 00H 00H
                                  355   CGLOBAL 01H 00H 0001H "BH1780GLI_REG_DATAHIGH" 02H 00H 00H
                                  356   CGLOBAL 00H 43H 0006H "uniRawSensorOut" 04H 00H 06H 06H 00H
                                  357   CGLOBAL 01H 00H 0001H "KMX61_BTSC" 02H 00H 00H
                                  358   CGLOBAL 01H 00H 0001H "KMX61_ODCNTL" 02H 00H 00H
                                  359   CGLOBAL 01H 00H 0001H "KMX61_COTR" 02H 00H 00H
                                  360   CGLOBAL 01H 00H 0001H "KX022_STAT" 02H 00H 00H
                                  361   CGLOBAL 01H 00H 0001H "KMX61_STATUS_REG" 02H 00H 00H
                                  362   CGLOBAL 01H 00H 0001H "BH1730FVC_REG_INTERRUPT" 02H 00H 00H
                                  363   CGLOBAL 01H 00H 0001H "KX022_XOUTL" 02H 00H 00H
                                  364   CGLOBAL 01H 00H 0001H "KX022_XOUTH" 02H 00H 00H
                                  365   CGLOBAL 01H 00H 0001H "KX022_BUF_READ" 02H 00H 00H
                                  366   CGLOBAL 01H 00H 0001H "KMX61_WUFTH" 02H 00H 00H
                                  367   CGLOBAL 01H 00H 0001H "KMX61_STBY_REG" 02H 00H 00H
                                  368   CGLOBAL 01H 00H 0001H "BH1710FVC_CONT_M_RES_MOD" 02H 00H 00H
                                  369   CGLOBAL 01H 00H 0001H "KX022_YHPL" 02H 00H 00H
                                  370   CGLOBAL 01H 00H 0001H "KX022_YHPH" 02H 00H 00H
                                  371   CGLOBAL 01H 00H 0001H "KX022_I2C_ADDR" 02H 00H 00H
                                  372   CGLOBAL 01H 00H 0001H "KMX61_INC1" 02H 00H 00H
                                  373   CGLOBAL 01H 00H 0001H "KMX61_INC2" 02H 00H 00H
                                  374   CGLOBAL 01H 00H 0001H "KMX61_INC3" 02H 00H 00H
                                  375   CGLOBAL 01H 00H 0001H "KX022_XHPL" 02H 00H 00H
                                  376   CGLOBAL 01H 00H 0001H "KX022_XHPH" 02H 00H 00H
                                  377   CGLOBAL 01H 00H 0001H "BH17xxFVC_PWR_DOWN" 02H 00H 00H
                                  378   CGLOBAL 01H 00H 0001H "KMX61_ACCEL_YOUT_H" 02H 00H 00H
                                  379   CGLOBAL 01H 00H 0001H "BH1710FVC_CONT_L_RES_MOD" 02H 00H 00H
                                  380   CGLOBAL 01H 00H 0001H "KMX61_ACCEL_YOUT_L" 02H 00H 00H
                                  381   CGLOBAL 01H 00H 0001H "BH1721FVC_CONT_L_RES_MOD" 02H 00H 00H
                                  382   CGLOBAL 01H 00H 0001H "KMX61_INS1" 02H 00H 00H
                                  383   CGLOBAL 01H 00H 0001H "KMX61_INS2" 02H 00H 00H
                                  384   CGLOBAL 01H 00H 0001H "KX022_TDTC" 02H 00H 00H
                                  385   CGLOBAL 01H 00H 0001H "BH1780GLI_REG_MFG_ID" 02H 00H 00H
                                  386   CGLOBAL 01H 00H 0001H "KX022_ZHPL" 02H 00H 00H
                                  387   CGLOBAL 01H 00H 0001H "KX022_ZHPH" 02H 00H 00H
                                  388   CGLOBAL 01H 00H 0001H "KX022_TDTRC" 02H 00H 00H
                                  389   CGLOBAL 01H 00H 0001H "KMX61_MAG_YOUT_H" 02H 00H 00H
                                  390   CGLOBAL 01H 00H 0001H "KMX61_MAG_YOUT_L" 02H 00H 00H
                                  391   CGLOBAL 01H 00H 0001H "KX022_TILT_ANGLE_HL" 02H 00H 00H
                                  392   CGLOBAL 01H 00H 0001H "KX022_TILT_ANGLE_LL" 02H 00H 00H
                                  393   CGLOBAL 01H 00H 0001H "KMX61_BUF_THRESH_H" 02H 00H 00H
                                  394   CGLOBAL 01H 00H 0001H "KMX61_BUF_THRESH_L" 02H 00H 00H
                                  395   CGLOBAL 01H 00H 0001H "BH1730FVC_CMD_STOP_MIM" 02H 00H 00H
                                  396   CGLOBAL 01H 00H 0001H "KX022_ODCNTL" 02H 00H 00H
                                  397   CGLOBAL 01H 00H 0001H "KMX61_BUF_CLEAR" 02H 00H 00H
                                  398   CSGLOBAL 01H 000AH "_uartSetParam" 04H 00H 05H 03H 00H
                                  399   CGLOBAL 01H 00H 0001H "KX022_BUF_STATUS_1" 02H 00H 00H
                                  400   CGLOBAL 01H 00H 0001H "KX022_BUF_STATUS_2" 02H 00H 00H
                                  401   CGLOBAL 01H 00H 0001H "KX022_WHO_AM_I" 02H 00H 00H
                                  402   CGLOBAL 01H 00H 0001H "BH1730FVC_REG_DATA1HIGH" 02H 00H 00H
                                  403   CGLOBAL 01H 00H 0001H "KX022_ZOUTL" 02H 00H 00H
                                  404   CGLOBAL 01H 00H 0001H "KX022_ZOUTH" 02H 00H 00H
                                  405   CGLOBAL 01H 00H 0001H "KX022_TSCP" 02H 00H 00H
                                  406   CSGLOBAL 42H 0001H "SensorPlatformSelection" 02H 00H 00H
                                  407   CGLOBAL 01H 00H 0001H "KX022_TSPP" 02H 00H 00H
                                  408   CGLOBAL 01H 00H 0001H "BH1730FVC_REG_TIMING" 02H 00H 00H
                                  409   CGLOBAL 01H 00H 0001H "KMX61_BTH" 02H 00H 00H
                                  410   CGLOBAL 01H 00H 0001H "BH1730FVC_REG_ID" 02H 00H 00H
                                  411   CGLOBAL 01H 00H 0001H "KMX61_TEMP_EN_CNTL" 02H 00H 00H
                                  412   CGLOBAL 01H 00H 0001H "KMX61_CNTL1" 02H 00H 00H
                                  413   CGLOBAL 01H 00H 0001H "KMX61_CNTL2" 02H 00H 00H
                                  414   CGLOBAL 01H 00H 0001H "KMX61_XOUT_HPF_L" 02H 00H 00H
                                  415   CGLOBAL 01H 00H 0001H "KMX61_XOUT_HPF_H" 02H 00H 00H
                                  416   CGLOBAL 01H 00H 0001H "KX022_BUF_CLEAR" 02H 00H 00H
                                  417   CGLOBAL 01H 00H 0001H "BH1710FVC_RESET" 02H 00H 00H
                                  418   CGLOBAL 01H 00H 0001H "BH1730FVC_REG_CONTROL" 02H 00H 00H
                                  419   CGLOBAL 01H 00H 0001H "KMX61_INL" 02H 00H 00H
                                  420   CGLOBAL 01H 00H 0001H "KX022_WUFC" 02H 00H 00H
                                  421   CGLOBAL 01H 00H 0001H "BH1730FVC_REG_DATA0HIGH" 02H 00H 00H
                                  422   CGLOBAL 01H 00H 0001H "KX022_YOUTL" 02H 00H 00H
                                  423   CGLOBAL 01H 00H 0001H "KX022_YOUTH" 02H 00H 00H
                                  424   CGLOBAL 01H 00H 0001H "BH17xxFVC_PWR_ON" 02H 00H 00H
                                  425   CGLOBAL 01H 00H 0001H "BH1710FVC_ONET_L_RES_MOD" 02H 00H 00H
                                  426   CGLOBAL 01H 00H 0001H "KMX61_ZOUT_HPF_L" 02H 00H 00H
                                  427   CGLOBAL 01H 00H 0001H "KX022_LP_CNTL" 02H 00H 00H
                                  428   CGLOBAL 01H 00H 0001H "BH1730FVC_REG_THLHIGH" 02H 00H 00H
                                  429   CGLOBAL 01H 00H 0001H "KMX61_ZOUT_HPF_H" 02H 00H 00H
                                  430   CGLOBAL 01H 00H 0001H "KMX61_YOUT_HPF_L" 02H 00H 00H
                                  431   CGLOBAL 01H 00H 0001H "BH1730FVC_CMD_START_MIM" 02H 00H 00H
                                  432   CGLOBAL 01H 00H 0001H "KMX61_YOUT_HPF_H" 02H 00H 00H
                                  433   CGLOBAL 01H 00H 0001H "KX022_ATH" 02H 00H 00H
                                  434   CGLOBAL 01H 00H 0001H "KMX61_SN_1" 02H 00H 00H
                                  435   CGLOBAL 01H 00H 0001H "KMX61_SN_2" 02H 00H 00H
                                  436   CGLOBAL 01H 00H 0001H "KMX61_SN_3" 02H 00H 00H
                                  437   CGLOBAL 01H 00H 0001H "KMX61_SN_4" 02H 00H 00H
                                  438   CGLOBAL 01H 00H 0001H "BH1780GLI_REG_CONTROL" 02H 00H 00H
                                  439   CGLOBAL 00H 42H 0001H "_flgI2CFin" 02H 00H 00H
                                  440   CGLOBAL 01H 00H 0001H "KX022_COTR" 02H 00H 00H
                                  441   CGLOBAL 01H 00H 0001H "KX022_FTD" 02H 00H 00H
                                  442   CGLOBAL 01H 00H 0001H "KX022_BUF_CNTL1" 02H 00H 00H
                                  443   CGLOBAL 01H 00H 0001H "KX022_BUF_CNTL2" 02H 00H 00H
                                  444   CGLOBAL 01H 00H 0001H "KMX61_I2C_ADDR" 02H 00H 00H
                                  445   CGLOBAL 01H 00H 0001H "KMX61_BUF_READ" 02H 00H 00H
                                  446   CGLOBAL 01H 00H 0001H "BH17xxFVC_ADDR_1" 02H 00H 00H
                                  447   CGLOBAL 01H 00H 0001H "BH17xxFVC_ADDR_2" 02H 00H 00H
                                  448   CGLOBAL 01H 00H 0001H "BH1730FVC_REG_THHLOW" 02H 00H 00H
                                  449   CGLOBAL 01H 00H 0001H "BH1710FVC_ONET_M_RES_MOD" 02H 00H 00H
                                  450   CGLOBAL 01H 00H 0001H "KX022_CNTL1" 02H 00H 00H
                                  451   CGLOBAL 01H 00H 0001H "KX022_CNTL2" 02H 00H 00H
                                  452   CGLOBAL 01H 00H 0001H "KX022_CNTL3" 02H 00H 00H
                                  453   CGLOBAL 01H 00H 0001H "KMX61_TEMP_OUT_H" 02H 00H 00H
                                  454   CGLOBAL 01H 00H 0001H "KMX61_TEMP_OUT_L" 02H 00H 00H
                                  455   CGLOBAL 00H 42H 0001H "_reqNotHalt" 02H 00H 00H
                                  456   CGLOBAL 01H 00H 0001H "KX022_STD" 02H 00H 00H
                                  457   CGLOBAL 01H 00H 0001H "KMX61_ACCEL_XOUT_H" 02H 00H 00H
                                  458   CGLOBAL 01H 00H 0001H "KMX61_ACCEL_ZOUT_H" 02H 00H 00H
                                  459   CGLOBAL 01H 00H 0001H "KMX61_ACCEL_XOUT_L" 02H 00H 00H
                                  460   CGLOBAL 01H 00H 0001H "KMX61_ACCEL_ZOUT_L" 02H 00H 00H
                                  461   CGLOBAL 00H 43H 000CH "flSensorOut" 05H 01H 03H 00H 00H 03H
                                  462   CGLOBAL 01H 00H 0001H "BH1710FVC_ONET_H_RES_MOD" 02H 00H 00H
                                  463   CGLOBAL 01H 00H 0001H "KX022_INC1" 02H 00H 00H
                                  464   CGLOBAL 01H 00H 0001H "KX022_INC2" 02H 00H 00H
                                  465   CGLOBAL 01H 00H 0001H "KX022_INC3" 02H 00H 00H
                                  466   CGLOBAL 01H 00H 0001H "KX022_INC4" 02H 00H 00H
                                  467   CGLOBAL 01H 00H 0001H "KX022_INC5" 02H 00H 00H
                                  468   CGLOBAL 01H 00H 0001H "BH1730FVC_REG_GAIN" 02H 00H 00H
                                  469   CGLOBAL 01H 00H 0001H "KX022_INC6" 02H 00H 00H
                                  470   CGLOBAL 01H 00H 0001H "KX022_TLT" 02H 00H 00H
                                  471   CGLOBAL 01H 00H 0001H "KMX61_BUF_CTRL1" 02H 00H 00H
                                  472   CGLOBAL 01H 00H 0001H "KMX61_BUF_CTRL2" 02H 00H 00H
                                  473   CGLOBAL 01H 00H 0001H "BH1730FVC_CMD_SW_RESET" 02H 00H 00H
                                  474   CGLOBAL 01H 00H 0001H "KX022_TTH" 02H 00H 00H
                                  475   CGLOBAL 01H 00H 0001H "KX022_TTL" 02H 00H 00H
                                  476   CGLOBAL 01H 00H 0001H "KX022_INS1" 02H 00H 00H
                                  477   CGLOBAL 01H 00H 0001H "KX022_INS2" 02H 00H 00H
                                  478   CGLOBAL 01H 00H 0001H "KX022_INS3" 02H 00H 00H
                                  479   CGLOBAL 01H 00H 0001H "KX022_TWS" 02H 00H 00H
                                  480   CGLOBAL 01H 00H 0001H "KMX61_BUF_STATUS_L" 02H 00H 00H
                                  481   CGLOBAL 01H 00H 0001H "BH1730FVC_REG_DATA0LOW" 02H 00H 00H
                                  482   CGLOBAL 01H 00H 0001H "KMX61_BUF_STATUS_H" 02H 00H 00H
                                  483   CGLOBAL 01H 00H 0001H "KMX61_MAG_XOUT_H" 02H 00H 00H
                                  484   CGLOBAL 01H 00H 0001H "KMX61_MAG_ZOUT_H" 02H 00H 00H
                                  485   CGLOBAL 01H 00H 0001H "KMX61_MAG_XOUT_L" 02H 00H 00H
                                  486   CGLOBAL 01H 00H 0001H "KMX61_MAG_ZOUT_L" 02H 00H 00H
                                  487   CGLOBAL 01H 00H 0001H "KMX61_SELF_TEST" 02H 00H 00H
                                  488   CSGLOBAL 42H 0001H "SensorIntializationFlag" 02H 00H 00H
                                  489   CGLOBAL 01H 00H 0001H "BH1730FVC_REG_THLLOW" 02H 00H 00H
                                  490   CGLOBAL 01H 00H 0001H "KX022_HYST_SET" 02H 00H 00H
                                  491   CGLOBAL 01H 00H 0001H "KMX61_WHO_AM_I" 02H 00H 00H
                                  492   CGLOBAL 00H 42H 0001H "_flgADCFin" 02H 00H 00H
                                  493   CGLOBAL 01H 00H 0001H "KX022_TILT_TIMER" 02H 00H 00H
                                  494   CGLOBAL 01H 00H 0001H "BH1730FVC_REG_DATA1LOW" 02H 00H 00H
                                  495   CGLOBAL 01H 00H 0001H "KMX61_BUF_STATUS_REG" 02H 00H 00H
                                  496   CFILE 0001H 0000085AH "main\\ML610112.H"
                                  497   CFILE 0002H 000000D8H "main\\stdlib.h"
                                  498   CFILE 0003H 0000007AH "main\\yvals.h"
                                  499   CFILE 0004H 0000006BH "uart\\uart.h"
                                  500   CFILE 0005H 00000027H "common\\common.h"
                                  501   CFILE 0006H 00000057H "irq\\irq.h"
                                  502   CFILE 0007H 00000023H "main\\mcu.h"
                                  503   CFILE 0008H 00000045H "i2c\\i2c.h"
                                  504   CFILE 0009H 00000046H "tbc\\tbc.h"
                                  505   CFILE 000AH 000001B8H "timer\\timer.h"
                                  506   CFILE 000BH 000000EEH "main\\stdio.h"
                                  507   CFILE 0000H 0000078DH "main\\main.c"
                                  508   
  --------------------------      509   	rseg $$main$main
                                  510   CFUNCTION 227
                                  511   
00:0000                           512   _main	:
                                  513   CBLOCK 227 1 425
                                  514   
                                  515   ;;{ 	
                                  516   CLINEA 0000H 0001H 01A9H 0001H 0003H
                                  517   CBLOCK 227 2 425
                                  518   
                                  519   ;;	Initialization(); //Ports, UART, Timers, Oscillator, Comparators, etc.
                                  520   CLINEA 0000H 0001H 01AAH 0002H 0047H
00:0000 01-F0'00-00'              521   	bl	_Initialization
                                  522   
                                  523   ;;	PRINTF(WelcomeString);
                                  524   CLINEA 0000H 0001H 01ACH 0002H 0017H
00:0004 FE 00                     525   	mov	r0,	#0feh
00:0006 00 01                     526   	mov	r1,	#00h
00:0008 5E-F0                     527   	push	er0
00:000A 00'02                     528   	mov	r2,	#BYTE1 OFFSET $$S30
00:000C 00'03                     529   	mov	r3,	#BYTE2 OFFSET $$S30
00:000E 00 E0                     530   	mov	er0,	#0 
00:0010 01-F0'00-00'              531   	bl	_write
00:0014 02 E1                     532   	add	sp,	#2 
                                  533   
                                  534   ;;	SensorIntializationFlag = 1;
                                  535   CLINEA 0000H 0001H 01AFH 0002H 001DH
00:0016 01 00                     536   	mov	r0,	#01h
00:0018 11-90 00-00'              537   	st	r0,	NEAR _SensorIntializationFlag
                                  538   
                                  539   ;;	SensorPlatformSelection = DebugSensor;
                                  540   CLINEA 0000H 0001H 01B0H 0002H 0027H
00:001C 10 00                     541   	mov	r0,	#010h
00:001E 11-90 00-00'              542   	st	r0,	NEAR _SensorPlatformSelection
                                  543   
                                  544   ;;MainLoop:
                                  545   CLINEA 0000H 0001H 01B3H 0001H 0009H
                                  546   CLABEL 001FH "MainLoop"
00:0022                           547   _$L31 :
                                  548   
                                  549   ;;	main_clrWDT();
                                  550   CLINEA 0000H 0001H 01B4H 0002H 000FH
00:0022 01-F0'00-00'              551   	bl	_main_clrWDT
                                  552   
                                  553   ;;	if(SensorIntializationFlag==1){	//Holds the SW Statement for Initializing Sensors
                                  554   CLINEA 0000H 0001H 01BAH 0002H 0052H
00:0026 10-90 00-00'              555   	l	r0,	NEAR _SensorIntializationFlag
00:002A 01 70                     556   	cmp	r0,	#01h
00:002C 05 C8                     557   	bne	_$L32
                                  558   CBLOCK 227 3 442
                                  559   
                                  560   ;;		SensorInitialization();
                                  561   CLINEA 0000H 0001H 01BBH 0003H 0019H
00:002E 01-F0'00-00'              562   	bl	_SensorInitialization
                                  563   
                                  564   ;;		SensorIntializationFlag = 0;
                                  565   CLINEA 0000H 0001H 01BCH 0003H 001EH
00:0032 00 00                     566   	mov	r0,	#00h
00:0034 11-90 00-00'              567   	st	r0,	NEAR _SensorIntializationFlag
                                  568   CBLOCKEND 227 3 445
                                  569   
                                  570   ;;	}
                                  571   CLINEA 0000H 0000H 01BDH 0002H 0002H
00:0038                           572   _$L32 :
                                  573   
                                  574   ;;	switch(SensorPlatformSelection){
                                  575   CLINEA 0000H 0001H 01BFH 0002H 0021H
00:0038 10-90 00-00'              576   	l	r0,	NEAR _SensorPlatformSelection
00:003C 00 01                     577   	mov	r1,	#00h
                                  578   CBLOCK 227 4 447
00:003E 17 70                     579   	cmp	r0,	#017h
00:0040 00 51                     580   	cmpc	r1,	#00h
00:0042 36 C2                     581   	bgt	_$L38
00:0044 01 70                     582   	cmp	r0,	#01h
00:0046 00 51                     583   	cmpc	r1,	#00h
00:0048 33 C1                     584   	blt	_$L38
00:004A FF E0                     585   	add	er0,	#-1
00:004C 1B-91                     586   	sllc	r1,	#01h
00:004E 1A-90                     587   	sll	r0,	#01h
00:0050 08-A0 00-00'              588   	l	er0,	NEAR _$M1[er0]
00:0054 02-F0                     589   	b	er0
                                  590   
                                  591   ;;	}
00:0056                           592   _$L37 :
                                  593   
                                  594   ;;	HLT = 1;	//Wait time here depends on the WDT timing
                                  595   CLINEA 0000H 0001H 01F0H 0002H 0034H
00:0056 80-A0 09-F0               596   	sb	0f009h.0
                                  597   
                                  598   ;;	goto MainLoop;
                                  599   CLINEA 0000H 0001H 01F1H 0002H 000FH
00:005A E3 CE                     600   	bal	_$L31
                                  601   CBLOCKEND 227 2 498
                                  602   
                                  603   ;;		case 1:
                                  604   CLINEA 0000H 0001H 01C0H 0003H 0009H
00:005C                           605   _$S39 :
                                  606   
                                  607   ;;			MainOp_Hall_Effect_Sensors_1(); // Refer to function description for list of sensors
                                  608   CLINEA 0000H 0001H 01C1H 0004H 0057H
00:005C 01-F0'00-00'              609   	bl	_MainOp_Hall_Effect_Sensors_1
                                  610   
                                  611   ;;			break;
                                  612   CLINEA 0000H 0001H 01C2H 0004H 0009H
00:0060 FA CE                     613   	bal	_$L37
                                  614   
                                  615   ;;		case 2:
                                  616   CLINEA 0000H 0001H 01C3H 0003H 0009H
00:0062                           617   _$S40 :
                                  618   
                                  619   ;;			MainOp_Hall_Effect_Sensors_2(); // Refer to function description for list of sensors 
                                  620   CLINEA 0000H 0001H 01C4H 0004H 0058H
00:0062 01-F0'00-00'              621   	bl	_MainOp_Hall_Effect_Sensors_2
                                  622   
                                  623   ;;			break;
                                  624   CLINEA 0000H 0001H 01C5H 0004H 0009H
00:0066 F7 CE                     625   	bal	_$L37
                                  626   
                                  627   ;;		case 5: 
                                  628   CLINEA 0000H 0001H 01C6H 0003H 000AH
00:0068                           629   _$S41 :
                                  630   
                                  631   ;;			MainOp_Ambient_Light_Sensor_5(); // Refer to function description for list of sensors
                                  632   CLINEA 0000H 0001H 01C7H 0004H 0058H
00:0068 01-F0'00-00'              633   	bl	_MainOp_Ambient_Light_Sensor_5
                                  634   
                                  635   ;;			break;
                                  636   CLINEA 0000H 0001H 01C8H 0004H 0009H
00:006C F4 CE                     637   	bal	_$L37
                                  638   
                                  639   ;;		case 6:
                                  640   CLINEA 0000H 0001H 01C9H 0003H 0009H
00:006E                           641   _$S42 :
                                  642   
                                  643   ;;			MainOp_Ambient_Light_Sensor_6(); // Refer to function description for list of sensors 
                                  644   CLINEA 0000H 0001H 01CAH 0004H 0059H
00:006E 01-F0'00-00'              645   	bl	_MainOp_Ambient_Light_Sensor_6
                                  646   
                                  647   ;;			break;
                                  648   CLINEA 0000H 0001H 01CBH 0004H 0009H
00:0072 F1 CE                     649   	bal	_$L37
                                  650   
                                  651   ;;		case 7:
                                  652   CLINEA 0000H 0001H 01CCH 0003H 0009H
00:0074                           653   _$S43 :
                                  654   
                                  655   ;;			MainOp_Ambient_Light_Sensor_7(); // Refer to function description for list of sensors 
                                  656   CLINEA 0000H 0001H 01CDH 0004H 0059H
00:0074 01-F0'00-00'              657   	bl	_MainOp_Ambient_Light_Sensor_7
                                  658   
                                  659   ;;			break;
                                  660   CLINEA 0000H 0001H 01CEH 0004H 0009H
00:0078 EE CE                     661   	bal	_$L37
                                  662   
                                  663   ;;		case 8:
                                  664   CLINEA 0000H 0001H 01CFH 0003H 0009H
00:007A                           665   _$S44 :
                                  666   
                                  667   ;;			MainOp_Ambient_Light_Sensor_8(); // Refer to function description for list of sensors 
                                  668   CLINEA 0000H 0001H 01D0H 0004H 0059H
00:007A 01-F0'00-00'              669   	bl	_MainOp_Ambient_Light_Sensor_8
                                  670   
                                  671   ;;			break;
                                  672   CLINEA 0000H 0001H 01D1H 0004H 0009H
00:007E EB CE                     673   	bal	_$L37
                                  674   
                                  675   ;;		case 9:
                                  676   CLINEA 0000H 0001H 01D2H 0003H 0009H
00:0080                           677   _$S45 :
                                  678   
                                  679   ;;			MainOp_Ambient_Light_Sensor_9(); // Refer to function description for list of sensors 
                                  680   CLINEA 0000H 0001H 01D3H 0004H 0059H
00:0080 01-F0'00-00'              681   	bl	_MainOp_Ambient_Light_Sensor_9
                                  682   
                                  683   ;;			break;
                                  684   CLINEA 0000H 0001H 01D4H 0004H 0009H
00:0084 E8 CE                     685   	bal	_$L37
                                  686   
                                  687   ;;		case 10:
                                  688   CLINEA 0000H 0001H 01D5H 0003H 000AH
00:0086                           689   _$S46 :
                                  690   
                                  691   ;;			MainOp_UV_Sensor_10(); // Refer to function description for list of sensors 
                                  692   CLINEA 0000H 0001H 01D6H 0004H 004FH
00:0086 01-F0'00-00'              693   	bl	_MainOp_UV_Sensor_10
                                  694   
                                  695   ;;			break;
                                  696   CLINEA 0000H 0001H 01D7H 0004H 0009H
00:008A E5 CE                     697   	bal	_$L37
                                  698   
                                  699   ;;		case 15:
                                  700   CLINEA 0000H 0001H 01D8H 0003H 000AH
00:008C                           701   _$S47 :
                                  702   
                                  703   ;;			MainOp_KX022(); // Refer to function description for list of sensors 
                                  704   CLINEA 0000H 0001H 01D9H 0004H 0048H
00:008C 01-F0'00-00'              705   	bl	_MainOp_KX022
                                  706   
                                  707   ;;			break;
                                  708   CLINEA 0000H 0001H 01DAH 0004H 0009H
00:0090 E2 CE                     709   	bal	_$L37
                                  710   
                                  711   ;;		case 16:
                                  712   CLINEA 0000H 0001H 01DBH 0003H 000AH
00:0092                           713   _$S48 :
                                  714   
                                  715   ;;			MainOp_KMX61(); // Refer to function description for list of sensors 
                                  716   CLINEA 0000H 0001H 01DCH 0004H 0048H
00:0092 01-F0'00-00'              717   	bl	_MainOp_KMX61
                                  718   
                                  719   ;;			break;
                                  720   CLINEA 0000H 0001H 01DDH 0004H 0009H
00:0096 DF CE                     721   	bal	_$L37
                                  722   
                                  723   ;;		case 20:
                                  724   CLINEA 0000H 0001H 01DEH 0003H 000AH
00:0098                           725   _$S49 :
                                  726   
                                  727   ;;			MainOp_Temperature_Sensor_20(); // Refer to function description for list of sensors 
                                  728   CLINEA 0000H 0001H 01DFH 0004H 0058H
00:0098 01-F0'00-00'              729   	bl	_MainOp_Temperature_Sensor_20
                                  730   
                                  731   ;;			break;
                                  732   CLINEA 0000H 0001H 01E0H 0004H 0009H
00:009C DC CE                     733   	bal	_$L37
                                  734   
                                  735   ;;		case 21:
                                  736   CLINEA 0000H 0001H 01E1H 0003H 000AH
00:009E                           737   _$S50 :
                                  738   
                                  739   ;;			MainOp_Temperature_Sensor_21(); // Refer to function description for list of sensors
                                  740   CLINEA 0000H 0001H 01E2H 0004H 0057H
00:009E 01-F0'00-00'              741   	bl	_MainOp_Temperature_Sensor_21
                                  742   
                                  743   ;;			break;
                                  744   CLINEA 0000H 0001H 01E3H 0004H 0009H
00:00A2 D9 CE                     745   	bal	_$L37
                                  746   
                                  747   ;;		case 22:
                                  748   CLINEA 0000H 0001H 01E4H 0003H 000AH
00:00A4                           749   _$S51 :
                                  750   
                                  751   ;;			MainOp_Temperature_Sensor_22(); // Refer to function description for list of sensors 
                                  752   CLINEA 0000H 0001H 01E5H 0004H 0058H
00:00A4 01-F0'00-00'              753   	bl	_MainOp_Temperature_Sensor_22
                                  754   
                                  755   ;;			break;
                                  756   CLINEA 0000H 0001H 01E6H 0004H 0009H
00:00A8 D6 CE                     757   	bal	_$L37
                                  758   
                                  759   ;;		case 23:
                                  760   CLINEA 0000H 0001H 01E7H 0003H 000AH
00:00AA                           761   _$S52 :
                                  762   
                                  763   ;;			MainOp_Temperature_Sensor_23(); // Refer to function description for list of sensors
                                  764   CLINEA 0000H 0001H 01E8H 0004H 0057H
00:00AA 01-F0'00-00'              765   	bl	_MainOp_Temperature_Sensor_23
                                  766   
                                  767   ;;			break; 
                                  768   CLINEA 0000H 0001H 01E9H 0004H 000AH
00:00AE D3 CE                     769   	bal	_$L37
                                  770   
                                  771   ;;		default:
                                  772   CLINEA 0000H 0001H 01EAH 0003H 000AH
00:00B0                           773   _$L38 :
                                  774   
                                  775   ;;			PRINTF("\033[2K\rNo device connected.");
                                  776   CLINEA 0000H 0001H 01EBH 0004H 002BH
00:00B0 1A E0                     777   	mov	er0,	#26
00:00B2 5E-F0                     778   	push	er0
00:00B4 00'02                     779   	mov	r2,	#BYTE1 OFFSET $$S53
00:00B6 00'03                     780   	mov	r3,	#BYTE2 OFFSET $$S53
00:00B8 00 E0                     781   	mov	er0,	#0 
00:00BA 01-F0'00-00'              782   	bl	_write
00:00BE 02 E1                     783   	add	sp,	#2 
                                  784   
                                  785   ;;			LEDOUT = 0x0;
                                  786   CLINEA 0000H 0001H 01ECH 0004H 0010H
00:00C0 00 00                     787   	mov	r0,	#00h
00:00C2 11-90 60-F2               788   	st	r0,	0f260h
                                  789   
                                  790   ;;			break;
                                  791   CLINEA 0000H 0001H 01EDH 0004H 0009H
00:00C6 C7 CE                     792   	bal	_$L37
                                  793   CBLOCKEND 227 4 494
                                  794   CBLOCKEND 227 1 498
                                  795   CFUNCTIONEND 227
                                  796   
                                  797   
  --------------------------      798   	rseg $$Initialization$main
                                  799   CFUNCTION 180
                                  800   
00:0000                           801   _Initialization	:
                                  802   CBLOCK 180 1 510
                                  803   
                                  804   ;;static void Initialization(void){
                                  805   CLINEA 0000H 0001H 01FEH 0001H 0021H
00:0000 CE-F8                     806   	push	lr
                                  807   CBLOCK 180 2 510
                                  808   CRET 0000H
                                  809   
                                  810   ;;	DSIO0 = 1; // 0=> Enables Synchronous Serial Port 0 (initial value).
                                  811   CLINEA 0000H 0001H 0202H 0002H 0045H
00:0002 80-A0 2A-F0               812   	sb	0f02ah.0
                                  813   
                                  814   ;;	DUA0  = 0; // 0=> Enables the operation of UART0 (initial value).
                                  815   CLINEA 0000H 0001H 0203H 0002H 0042H
00:0006 A2-A0 2A-F0               816   	rb	0f02ah.2
                                  817   
                                  818   ;;	DUA1  = 1; // 0=> Enables Uart1 (initial value). 
                                  819   CLINEA 0000H 0001H 0204H 0002H 0032H
00:000A B0-A0 2A-F0               820   	sb	0f02ah.3
                                  821   
                                  822   ;;	DI2C1 = 1; // 0=> Enables I2C bus Interface (Slave) (initial value).
                                  823   CLINEA 0000H 0001H 0205H 0002H 0045H
00:000E E0-A0 2A-F0               824   	sb	0f02ah.6
                                  825   
                                  826   ;;	DI2C0 = 0; // 0=> Enables I2C bus Interface (Master) (initial value).	
                                  827   CLINEA 0000H 0001H 0206H 0002H 0047H
00:0012 F2-A0 2A-F0               828   	rb	0f02ah.7
                                  829   
                                  830   ;;	BLKCON4 = 0x00; // 0=> Enables SA-ADC
                                  831   CLINEA 0000H 0001H 0208H 0002H 0026H
00:0016 00 00                     832   	mov	r0,	#00h
00:0018 11-90 2C-F0               833   	st	r0,	0f02ch
                                  834   
                                  835   ;;	BLKCON6 = 0x00; // (1=disables; 0=enables) the operation of Timers 8, 9, A, E, F.
                                  836   CLINEA 0000H 0001H 0209H 0002H 0052H
00:001C 11-90 2E-F0               837   	st	r0,	0f02eh
                                  838   
                                  839   ;;	BLKCON7 = 0x0F; // (1=disables; 0=enables) the operation of PWM (PWMC, PWMD, PWME, PWMF
                                  840   CLINEA 0000H 0001H 020AH 0002H 0058H
00:0020 0F 00                     841   	mov	r0,	#0fh
00:0022 11-90 2F-F0               842   	st	r0,	0f02fh
                                  843   
                                  844   ;;	PortA_Low();	//Initialize all 3 Ports of Port A to GPIO-Low
                                  845   CLINEA 0000H 0001H 020DH 0002H 003CH
00:0026 01-F0'00-00'              846   	bl	_PortA_Low
                                  847   
                                  848   ;;	PortB_Low();	//Initialize all 8 Ports of Port B to GPIO-Low
                                  849   CLINEA 0000H 0001H 020EH 0002H 003CH
00:002A 01-F0'00-00'              850   	bl	_PortB_Low
                                  851   
                                  852   ;;	PortC_Low();	//Initialize all 8 Ports of Port C to GPIO-Low
                                  853   CLINEA 0000H 0001H 020FH 0002H 003CH
00:002E 01-F0'00-00'              854   	bl	_PortC_Low
                                  855   
                                  856   ;;	PortD_Low();	//Initialize all 6 Ports of Port D to input GPIO
                                  857   CLINEA 0000H 0001H 0210H 0002H 003EH
00:0032 01-F0'00-00'              858   	bl	_PortD_Low
                                  859   
                                  860   ;;    SetOSC();
                                  861   CLINEA 0000H 0001H 0213H 0005H 000DH
00:0036 01-F0'00-00'              862   	bl	_SetOSC
                                  863   
                                  864   ;;	PA0DIR = 1;
                                  865   CLINEA 0000H 0001H 0216H 0002H 000CH
00:003A 80-A0 51-F2               866   	sb	0f251h.0
                                  867   
                                  868   ;;	PA1DIR = 1;		//GPIO Input
                                  869   CLINEA 0000H 0001H 0217H 0002H 001AH
00:003E 90-A0 51-F2               870   	sb	0f251h.1
                                  871   
                                  872   ;;	SACH0 = 1;		//This enables the ADC Channel 0 from A0 Pin
                                  873   CLINEA 0000H 0001H 0218H 0002H 0039H
00:0042 80-A0 F2-F2               874   	sb	0f2f2h.0
                                  875   
                                  876   ;;	SACH1 = 1;		//This enables the ADC Channel 1 from A1 Pin
                                  877   CLINEA 0000H 0001H 0219H 0002H 0039H
00:0046 90-A0 F2-F2               878   	sb	0f2f2h.1
                                  879   
                                  880   ;;	SALP = 0;		//Single Read or Continuous Read... Single = 0, Consecutive = 1
                                  881   CLINEA 0000H 0001H 021AH 0002H 004BH
00:004A 82-A0 F0-F2               882   	rb	0f2f0h.0
                                  883   
                                  884   ;;	irq_di();	// Disable Interrupts
                                  885   CLINEA 0000H 0001H 021EH 0002H 0020H
00:004E 01-F0'00-00'              886   	bl	_irq_di
                                  887   
                                  888   ;;	irq_init();	// Initialize Interrupts (All Off and NO Requests)
                                  889   CLINEA 0000H 0001H 021FH 0002H 003FH
00:0052 01-F0'00-00'              890   	bl	_irq_init
                                  891   
                                  892   ;;	IE0 = IE1 = IE2 = IE3 = IE4 = IE5 = IE6 = IE7 = 0;
                                  893   CLINEA 0000H 0001H 0222H 0002H 0033H
00:0056 00 00                     894   	mov	r0,	#00h
00:0058 11-90 17-F0               895   	st	r0,	0f017h
00:005C 11-90 16-F0               896   	st	r0,	0f016h
00:0060 11-90 15-F0               897   	st	r0,	0f015h
00:0064 11-90 14-F0               898   	st	r0,	0f014h
00:0068 11-90 13-F0               899   	st	r0,	0f013h
00:006C 11-90 12-F0               900   	st	r0,	0f012h
00:0070 11-90 11-F0               901   	st	r0,	0f011h
00:0074 11-90 10-F0               902   	st	r0,	0f010h
                                  903   
                                  904   ;;	IRQ0 = IRQ1 = IRQ2 = IRQ3 = IRQ4 = IRQ5 = IRQ6 = IRQ7 = 0;
                                  905   CLINEA 0000H 0001H 0224H 0002H 003BH
00:0078 11-90 1F-F0               906   	st	r0,	0f01fh
00:007C 11-90 1E-F0               907   	st	r0,	0f01eh
00:0080 11-90 1D-F0               908   	st	r0,	0f01dh
00:0084 11-90 1C-F0               909   	st	r0,	0f01ch
00:0088 11-90 1B-F0               910   	st	r0,	0f01bh
00:008C 11-90 1A-F0               911   	st	r0,	0f01ah
00:0090 11-90 19-F0               912   	st	r0,	0f019h
00:0094 11-90 18-F0               913   	st	r0,	0f018h
                                  914   
                                  915   ;;	E2H = 0;	// E2H is the Enable flag for 2Hz TBC Interrupt (1=ENABLED)
                                  916   CLINEA 0000H 0001H 0226H 0002H 0045H
00:0098 B2-A0 17-F0               917   	rb	0f017h.3
                                  918   
                                  919   ;;	irq_setHdr((unsigned char)IRQ_NO_UA0INT, _intUart);
                                  920   CLINEA 0000H 0001H 0228H 0002H 0034H
00:009C 00'02                     921   	mov	r2,	#BYTE1 OFFSET __intUart
00:009E 00'03                     922   	mov	r3,	#BYTE2 OFFSET __intUart
00:00A0 0F 00                     923   	mov	r0,	#0fh
00:00A2 01-F0'00-00'              924   	bl	_irq_setHdr
                                  925   
                                  926   ;;	EUA0 = 1; 	// EUA0 is the enable flag for the UART0 interrupt (1=ENABLED)
                                  927   CLINEA 0000H 0001H 0229H 0002H 004AH
00:00A6 80-A0 14-F0               928   	sb	0f014h.0
                                  929   
                                  930   ;;	irq_setHdr((unsigned char)IRQ_NO_I2CMINT, _intI2c);
                                  931   CLINEA 0000H 0001H 022BH 0002H 0034H
00:00AA 00'02                     932   	mov	r2,	#BYTE1 OFFSET __intI2c
00:00AC 00'03                     933   	mov	r3,	#BYTE2 OFFSET __intI2c
00:00AE 0C 00                     934   	mov	r0,	#0ch
00:00B0 01-F0'00-00'              935   	bl	_irq_setHdr
                                  936   
                                  937   ;;	EI2CM = 1;
                                  938   CLINEA 0000H 0001H 022CH 0002H 000BH
00:00B4 F0-A0 12-F0               939   	sb	0f012h.7
                                  940   
                                  941   ;;	QI2CM = 0;
                                  942   CLINEA 0000H 0001H 022DH 0002H 000BH
00:00B8 F2-A0 1A-F0               943   	rb	0f01ah.7
                                  944   
                                  945   ;;	irq_setHdr((unsigned char)IRQ_NO_SADINT, _intADC);
                                  946   CLINEA 0000H 0001H 0230H 0002H 0033H
00:00BC 00'02                     947   	mov	r2,	#BYTE1 OFFSET __intADC
00:00BE 00'03                     948   	mov	r3,	#BYTE2 OFFSET __intADC
00:00C0 0A 00                     949   	mov	r0,	#0ah
00:00C2 01-F0'00-00'              950   	bl	_irq_setHdr
                                  951   
                                  952   ;;	ESAD = 1;
                                  953   CLINEA 0000H 0001H 0231H 0002H 000AH
00:00C6 A0-A0 12-F0               954   	sb	0f012h.2
                                  955   
                                  956   ;;	QSAD = 0;
                                  957   CLINEA 0000H 0001H 0232H 0002H 000AH
00:00CA A2-A0 1A-F0               958   	rb	0f01ah.2
                                  959   
                                  960   ;;	irq_ei(); // Enable Interrupts
                                  961   CLINEA 0000H 0001H 023EH 0002H 001FH
00:00CE 01-F0'00-00'              962   	bl	_irq_ei
                                  963   
                                  964   ;;	WDTMOD = 0x01; 	
                                  965   CLINEA 0000H 0001H 024AH 0002H 0011H
00:00D2 01 00                     966   	mov	r0,	#01h
00:00D4 11-90 0F-F0               967   	st	r0,	0f00fh
                                  968   
                                  969   ;;	main_clrWDT(); 	// Clear WDT
                                  970   CLINEA 0000H 0001H 024BH 0002H 001DH
00:00D8 01-F0'00-00'              971   	bl	_main_clrWDT
                                  972   
                                  973   ;;	i2c_init(I2C_MOD_FST, (unsigned short)HSCLK_KHZ, I2C_SYN_OFF);
                                  974   CLINEA 0000H 0001H 0251H 0002H 003FH
00:00DC 00 00                     975   	mov	r0,	#00h
00:00DE 4E-F0                     976   	push	r0
00:00E0 40 02                     977   	mov	r2,	#040h
00:00E2 1F 03                     978   	mov	r3,	#01fh
00:00E4 01 00                     979   	mov	r0,	#01h
00:00E6 01-F0'00-00'              980   	bl	_i2c_init
00:00EA 02 E1                     981   	add	sp,	#2 
                                  982   
                                  983   ;;			   &_uartSetParam );				/* Param... 	 */
                                  984   CLINEA 0000H 0001H 0256H 0007H 002BH
00:00EC 00'00                     985   	mov	r0,	#BYTE1 OFFSET __uartSetParam
00:00EE 00'01                     986   	mov	r1,	#BYTE2 OFFSET __uartSetParam
00:00F0 5E-F0                     987   	push	er0
00:00F2 40 02                     988   	mov	r2,	#040h
00:00F4 1F 03                     989   	mov	r3,	#01fh
00:00F6 02 00                     990   	mov	r0,	#02h
00:00F8 01-F0'00-00'              991   	bl	_uart_init
00:00FC 02 E1                     992   	add	sp,	#2 
                                  993   
                                  994   ;;	uart_PortSet();
                                  995   CLINEA 0000H 0001H 0257H 0002H 0010H
00:00FE 01-F0'00-00'              996   	bl	_uart_PortSet
                                  997   CBLOCKEND 180 2 603
                                  998   
                                  999   ;;}//End Initialization
                                 1000   CLINEA 0000H 0001H 025BH 0001H 0015H
00:0102 8E-F2                    1001   	pop	pc
                                 1002   CBLOCKEND 180 1 603
                                 1003   CFUNCTIONEND 180
                                 1004   
                                 1005   
  --------------------------     1006   	rseg $$write$main
                                 1007   CFUNCTION 186
                                 1008   
00:0000                          1009   _write	:
                                 1010   CBLOCK 186 1 617
                                 1011   
                                 1012   ;;{
                                 1013   CLINEA 0000H 0001H 0269H 0001H 0001H
00:0000 CE-F8                    1014   	push	lr
00:0002 5E-FE                    1015   	push	fp
00:0004 1A-AE                    1016   	mov	fp,	sp
00:0006 5E-FA                    1017   	push	er10
00:0008 25-FA                    1018   	mov	er10,	er2
                                 1019   CBLOCK 186 2 617
                                 1020   CRET 0004H
                                 1021   CARGUMENT 47H 0002H 0000H "handle" 02H 00H 01H
                                 1022   CARGUMENT 46H 0002H 0029H "buffer" 04H 03H 00H 00H 00H
                                 1023   CARGUMENT 42H 0002H 0004H "len" 02H 00H 01H
                                 1024   
                                 1025   ;;	_flgUartFin = 0; 
                                 1026   CLINEA 0000H 0001H 026AH 0002H 0012H
00:000A 00 00                    1027   	mov	r0,	#00h
00:000C 11-90 00-00'             1028   	st	r0,	NEAR __flgUartFin
                                 1029   
                                 1030   ;;	uart_stop();
                                 1031   CLINEA 0000H 0001H 026BH 0002H 000DH
00:0010 01-F0'00-00'             1032   	bl	_uart_stop
                                 1033   
                                 1034   ;;	uart_startSend(buffer, len, _funcUartFin); 
                                 1035   CLINEA 0000H 0001H 026CH 0002H 002CH
00:0014 00'00                    1036   	mov	r0,	#BYTE1 OFFSET __funcUartFin
00:0016 00'01                    1037   	mov	r1,	#BYTE2 OFFSET __funcUartFin
00:0018 5E-F0                    1038   	push	er0
00:001A 44 B2                    1039   	l	er2,	4[fp]
00:001C A5-F0                    1040   	mov	er0,	er10
00:001E 01-F0'00-00'             1041   	bl	_uart_startSend
00:0022 02 E1                    1042   	add	sp,	#2 
                                 1043   
                                 1044   ;;	while(_flgUartFin != 1)
                                 1045   CLINEA 0000H 0000H 026DH 0001H 0001H
00:0024 02 CE                    1046   	bal	_$L60
                                 1047   
                                 1048   ;;	while(_flgUartFin != 1)
                                 1049   CLINEA 0000H 0000H 026DH 0002H 0018H
00:0026                          1050   _$L58 :
                                 1051   CBLOCK 186 3 622
                                 1052   
                                 1053   ;;		main_clrWDT();
                                 1054   CLINEA 0000H 0001H 026FH 0003H 0010H
00:0026 01-F0'00-00'             1055   	bl	_main_clrWDT
                                 1056   CBLOCKEND 186 3 624
                                 1057   
                                 1058   ;;	while(_flgUartFin != 1)
                                 1059   CLINEA 0000H 0000H 026DH 0001H 0001H
00:002A                          1060   _$L60 :
00:002A 10-90 00-00'             1061   	l	r0,	NEAR __flgUartFin
00:002E 01 70                    1062   	cmp	r0,	#01h
00:0030 FA C8                    1063   	bne	_$L58
                                 1064   
                                 1065   ;;	return len;
                                 1066   CLINEA 0000H 0001H 0271H 0002H 000CH
00:0032 44 B0                    1067   	l	er0,	4[fp]
                                 1068   CBLOCKEND 186 2 626
                                 1069   
                                 1070   ;;}
                                 1071   CLINEA 0000H 0000H 0272H 0001H 0001H
00:0034 1E-FA                    1072   	pop	er10
00:0036 EA-A1                    1073   	mov	sp,	fp
00:0038 1E-FE                    1074   	pop	fp
00:003A 8E-F2                    1075   	pop	pc
                                 1076   CBLOCKEND 186 1 626
                                 1077   CFUNCTIONEND 186
                                 1078   
                                 1079   
  --------------------------     1080   	rseg $$ADC_Read$main
                                 1081   CFUNCTION 187
                                 1082   
00:0000                          1083   _ADC_Read	:
                                 1084   CBLOCK 187 1 637
                                 1085   
                                 1086   ;;{
                                 1087   CLINEA 0000H 0001H 027DH 0001H 0001H
00:0000 CE-F8                    1088   	push	lr
00:0002 5E-F8                    1089   	push	er8
00:0004 00-88                    1090   	mov	r8,	r0
                                 1091   CBLOCK 187 2 637
                                 1092   CRET 0002H
                                 1093   CARGUMENT 46H 0001H 001CH "idx" 02H 00H 00H
                                 1094   
                                 1095   ;;	_flgADCFin = 0;
                                 1096   CLINEA 0000H 0001H 027EH 0002H 0010H
00:0006 00 00                    1097   	mov	r0,	#00h
00:0008 11-90 00-00'             1098   	st	r0,	NEAR __flgADCFin
                                 1099   
                                 1100   ;;	SADMOD0 = (unsigned char)(1<<idx);
                                 1101   CLINEA 0000H 0001H 027FH 0002H 0023H
00:000C 01 E0                    1102   	mov	er0,	#1 
00:000E 80-82                    1103   	mov	r2,	r8
00:0010                          1104   _$M6 :
00:0010 07 72                    1105   	cmp	r2,	#07h
00:0012 04 C3                    1106   	ble	_$M5
00:0014 7B-91                    1107   	sllc	r1,	#07h
00:0016 7A-90                    1108   	sll	r0,	#07h
00:0018 F9 12                    1109   	add	r2,	#0f9h
00:001A FA C8                    1110   	bne	_$M6
00:001C                          1111   _$M5 :
00:001C 2A-80                    1112   	sll	r0,	r2
00:001E 11-90 F2-F2              1113   	st	r0,	0f2f2h
                                 1114   
                                 1115   ;;	SARUN = 1;
                                 1116   CLINEA 0000H 0001H 0280H 0002H 000BH
00:0022 80-A0 F1-F2              1117   	sb	0f2f1h.0
                                 1118   
                                 1119   ;;	while(_flgADCFin == 0)
                                 1120   CLINEA 0000H 0000H 0281H 0001H 0001H
00:0026 02 CE                    1121   	bal	_$L79
                                 1122   
                                 1123   ;;	while(_flgADCFin == 0)
                                 1124   CLINEA 0000H 0000H 0281H 0002H 0017H
00:0028                          1125   _$L64 :
                                 1126   CBLOCK 187 3 642
                                 1127   
                                 1128   ;;		main_clrWDT();
                                 1129   CLINEA 0000H 0001H 0283H 0003H 0010H
00:0028 01-F0'00-00'             1130   	bl	_main_clrWDT
                                 1131   CBLOCKEND 187 3 644
                                 1132   
                                 1133   ;;	while(_flgADCFin == 0)
                                 1134   CLINEA 0000H 0000H 0281H 0001H 0001H
00:002C                          1135   _$L79 :
00:002C 10-90 00-00'             1136   	l	r0,	NEAR __flgADCFin
00:0030 FB C9                    1137   	beq	_$L64
                                 1138   
                                 1139   ;;	switch(idx)
                                 1140   CLINEA 0000H 0001H 0285H 0002H 000CH
00:0032 80-80                    1141   	mov	r0,	r8
00:0034 00 01                    1142   	mov	r1,	#00h
                                 1143   CBLOCK 187 4 646
00:0036 07 78                    1144   	cmp	r8,	#07h
00:0038 00 51                    1145   	cmpc	r1,	#00h
00:003A 02 C3                    1146   	ble	_$M8
00:003C 00-F0'00-00'             1147   	b	_$L70
00:0040                          1148   _$M8 :
00:0040 1B-91                    1149   	sllc	r1,	#01h
00:0042 1A-90                    1150   	sll	r0,	#01h
00:0044 08-A0 00-00'             1151   	l	er0,	NEAR _$M7[er0]
00:0048 02-F0                    1152   	b	er0
                                 1153   
                                 1154   ;;	}
                                 1155   CBLOCKEND 187 2 657
                                 1156   
                                 1157   ;;}
                                 1158   CLINEA 0000H 0001H 0291H 0001H 0001H
00:004A                          1159   _$L61 :
00:004A 1E-F8                    1160   	pop	er8
00:004C 8E-F2                    1161   	pop	pc
                                 1162   
                                 1163   ;;		case 0:		return (SADR0H<<2|SADR0L>>6);
                                 1164   CLINEA 0000H 0001H 0287H 0003H 0028H
00:004E                          1165   _$S71 :
00:004E 10-90 D1-F2              1166   	l	r0,	0f2d1h
00:0052 00 01                    1167   	mov	r1,	#00h
00:0054 2B-91                    1168   	sllc	r1,	#02h
00:0056 2A-90                    1169   	sll	r0,	#02h
00:0058 10-92 D0-F2              1170   	l	r2,	0f2d0h
00:005C 00 03                    1171   	mov	r3,	#00h
00:005E 6D-92                    1172   	srlc	r2,	#06h
00:0060 6E-93                    1173   	sra	r3,	#06h
00:0062 03-82                    1174   	or	r2,	r0
00:0064 13-83                    1175   	or	r3,	r1
00:0066 25-F0                    1176   	mov	er0,	er2
00:0068 F0 CE                    1177   	bal	_$L61
                                 1178   
                                 1179   ;;		case 1:		return (SADR1H<<2|SADR1L>>6);
                                 1180   CLINEA 0000H 0001H 0288H 0003H 0028H
00:006A                          1181   _$S72 :
00:006A 10-90 D3-F2              1182   	l	r0,	0f2d3h
00:006E 00 01                    1183   	mov	r1,	#00h
00:0070 2B-91                    1184   	sllc	r1,	#02h
00:0072 2A-90                    1185   	sll	r0,	#02h
00:0074 10-92 D2-F2              1186   	l	r2,	0f2d2h
00:0078 00 03                    1187   	mov	r3,	#00h
00:007A 6D-92                    1188   	srlc	r2,	#06h
00:007C 6E-93                    1189   	sra	r3,	#06h
00:007E 03-82                    1190   	or	r2,	r0
00:0080 13-83                    1191   	or	r3,	r1
00:0082 25-F0                    1192   	mov	er0,	er2
00:0084 E2 CE                    1193   	bal	_$L61
                                 1194   
                                 1195   ;;		case 2:		return (SADR2H<<2|SADR2L>>6);
                                 1196   CLINEA 0000H 0001H 0289H 0003H 0028H
00:0086                          1197   _$S73 :
00:0086 10-90 D5-F2              1198   	l	r0,	0f2d5h
00:008A 00 01                    1199   	mov	r1,	#00h
00:008C 2B-91                    1200   	sllc	r1,	#02h
00:008E 2A-90                    1201   	sll	r0,	#02h
00:0090 10-92 D4-F2              1202   	l	r2,	0f2d4h
00:0094 00 03                    1203   	mov	r3,	#00h
00:0096 6D-92                    1204   	srlc	r2,	#06h
00:0098 6E-93                    1205   	sra	r3,	#06h
00:009A 03-82                    1206   	or	r2,	r0
00:009C 13-83                    1207   	or	r3,	r1
00:009E 25-F0                    1208   	mov	er0,	er2
00:00A0 D4 CE                    1209   	bal	_$L61
                                 1210   
                                 1211   ;;		case 3:		return (SADR3H<<2|SADR3L>>6);
                                 1212   CLINEA 0000H 0001H 028AH 0003H 0028H
00:00A2                          1213   _$S74 :
00:00A2 10-90 D7-F2              1214   	l	r0,	0f2d7h
00:00A6 00 01                    1215   	mov	r1,	#00h
00:00A8 2B-91                    1216   	sllc	r1,	#02h
00:00AA 2A-90                    1217   	sll	r0,	#02h
00:00AC 10-92 D6-F2              1218   	l	r2,	0f2d6h
00:00B0 00 03                    1219   	mov	r3,	#00h
00:00B2 6D-92                    1220   	srlc	r2,	#06h
00:00B4 6E-93                    1221   	sra	r3,	#06h
00:00B6 03-82                    1222   	or	r2,	r0
00:00B8 13-83                    1223   	or	r3,	r1
00:00BA 25-F0                    1224   	mov	er0,	er2
00:00BC C6 CE                    1225   	bal	_$L61
                                 1226   
                                 1227   ;;		case 4:		return (SADR4H<<2|SADR4L>>6);
                                 1228   CLINEA 0000H 0001H 028BH 0003H 0028H
00:00BE                          1229   _$S75 :
00:00BE 10-90 D9-F2              1230   	l	r0,	0f2d9h
00:00C2 00 01                    1231   	mov	r1,	#00h
00:00C4 2B-91                    1232   	sllc	r1,	#02h
00:00C6 2A-90                    1233   	sll	r0,	#02h
00:00C8 10-92 D8-F2              1234   	l	r2,	0f2d8h
00:00CC 00 03                    1235   	mov	r3,	#00h
00:00CE 6D-92                    1236   	srlc	r2,	#06h
00:00D0 6E-93                    1237   	sra	r3,	#06h
00:00D2 03-82                    1238   	or	r2,	r0
00:00D4 13-83                    1239   	or	r3,	r1
00:00D6 25-F0                    1240   	mov	er0,	er2
00:00D8 00-F0'00-00'             1241   	b	_$L61
                                 1242   
                                 1243   ;;		case 5:		return (SADR5H<<2|SADR5L>>6);
                                 1244   CLINEA 0000H 0001H 028CH 0003H 0028H
00:00DC                          1245   _$S76 :
00:00DC 10-90 DB-F2              1246   	l	r0,	0f2dbh
00:00E0 00 01                    1247   	mov	r1,	#00h
00:00E2 2B-91                    1248   	sllc	r1,	#02h
00:00E4 2A-90                    1249   	sll	r0,	#02h
00:00E6 10-92 DA-F2              1250   	l	r2,	0f2dah
00:00EA 00 03                    1251   	mov	r3,	#00h
00:00EC 6D-92                    1252   	srlc	r2,	#06h
00:00EE 6E-93                    1253   	sra	r3,	#06h
00:00F0 03-82                    1254   	or	r2,	r0
00:00F2 13-83                    1255   	or	r3,	r1
00:00F4 25-F0                    1256   	mov	er0,	er2
00:00F6 00-F0'00-00'             1257   	b	_$L61
                                 1258   
                                 1259   ;;		case 6:		return (SADR6H<<2|SADR6L>>6);
                                 1260   CLINEA 0000H 0001H 028DH 0003H 0028H
00:00FA                          1261   _$S77 :
00:00FA 10-90 DD-F2              1262   	l	r0,	0f2ddh
00:00FE 00 01                    1263   	mov	r1,	#00h
00:0100 2B-91                    1264   	sllc	r1,	#02h
00:0102 2A-90                    1265   	sll	r0,	#02h
00:0104 10-92 DC-F2              1266   	l	r2,	0f2dch
00:0108 00 03                    1267   	mov	r3,	#00h
00:010A 6D-92                    1268   	srlc	r2,	#06h
00:010C 6E-93                    1269   	sra	r3,	#06h
00:010E 03-82                    1270   	or	r2,	r0
00:0110 13-83                    1271   	or	r3,	r1
00:0112 25-F0                    1272   	mov	er0,	er2
00:0114 00-F0'00-00'             1273   	b	_$L61
                                 1274   
                                 1275   ;;		case 7:		return (SADR7H<<2|SADR7L>>6);
                                 1276   CLINEA 0000H 0001H 028EH 0003H 0028H
00:0118                          1277   _$S78 :
00:0118 10-90 DF-F2              1278   	l	r0,	0f2dfh
00:011C 00 01                    1279   	mov	r1,	#00h
00:011E 2B-91                    1280   	sllc	r1,	#02h
00:0120 2A-90                    1281   	sll	r0,	#02h
00:0122 10-92 DE-F2              1282   	l	r2,	0f2deh
00:0126 00 03                    1283   	mov	r3,	#00h
00:0128 6D-92                    1284   	srlc	r2,	#06h
00:012A 6E-93                    1285   	sra	r3,	#06h
00:012C 03-82                    1286   	or	r2,	r0
00:012E 13-83                    1287   	or	r3,	r1
00:0130 25-F0                    1288   	mov	er0,	er2
00:0132 00-F0'00-00'             1289   	b	_$L61
                                 1290   
                                 1291   ;;		default:	return 0;
                                 1292   CLINEA 0000H 0001H 028FH 0003H 0014H
00:0136                          1293   _$L70 :
00:0136 00 E0                    1294   	mov	er0,	#0 
00:0138 00-F0'00-00'             1295   	b	_$L61
                                 1296   CBLOCKEND 187 4 656
                                 1297   CBLOCKEND 187 1 657
                                 1298   CFUNCTIONEND 187
                                 1299   
                                 1300   
  --------------------------     1301   	rseg $$I2C_Read$main
                                 1302   CFUNCTION 188
                                 1303   
00:0000                          1304   _I2C_Read	:
                                 1305   CBLOCK 188 1 672
                                 1306   
                                 1307   ;;{
                                 1308   CLINEA 0000H 0001H 02A0H 0001H 0001H
00:0000 CE-F8                    1309   	push	lr
00:0002 5E-FE                    1310   	push	fp
00:0004 1A-AE                    1311   	mov	fp,	sp
00:0006 6E-F8                    1312   	push	xr8
00:0008 25-FA                    1313   	mov	er10,	er2
00:000A 00-88                    1314   	mov	r8,	r0
                                 1315   CBLOCK 188 2 672
                                 1316   CRET 0006H
                                 1317   CARGUMENT 46H 0001H 001CH "slave_address" 02H 00H 00H
                                 1318   CARGUMENT 46H 0002H 0029H "reg_address" 04H 03H 00H 00H 00H
                                 1319   CARGUMENT 42H 0001H 0004H "reg_address_size" 02H 00H 00H
                                 1320   CARGUMENT 42H 0002H 0006H "buffer" 04H 03H 00H 00H 00H
                                 1321   CARGUMENT 42H 0001H 0008H "size" 02H 00H 00H
                                 1322   
                                 1323   ;;	_flgI2CFin = 0;
                                 1324   CLINEA 0000H 0001H 02A1H 0002H 0010H
00:000C 00 00                    1325   	mov	r0,	#00h
00:000E 11-90 00-00'             1326   	st	r0,	NEAR __flgI2CFin
                                 1327   
                                 1328   ;;	i2c_stop();	
                                 1329   CLINEA 0000H 0001H 02A2H 0002H 000DH
00:0012 01-F0'00-00'             1330   	bl	_i2c_stop
                                 1331   
                                 1332   ;;	i2c_startReceive(slave_address, reg_address, reg_address_size, buffer, size, (cbfI2c)_funcI2CFin);
                                 1333   CLINEA 0000H 0001H 02A3H 0002H 0063H
00:0016 00'00                    1334   	mov	r0,	#BYTE1 OFFSET __funcI2CFin
00:0018 00'01                    1335   	mov	r1,	#BYTE2 OFFSET __funcI2CFin
00:001A 5E-F0                    1336   	push	er0
00:001C 48 D0                    1337   	l	r0,	8[fp]
00:001E 00 01                    1338   	mov	r1,	#00h
00:0020 5E-F0                    1339   	push	er0
00:0022 46 B0                    1340   	l	er0,	6[fp]
00:0024 5E-F0                    1341   	push	er0
00:0026 44 D0                    1342   	l	r0,	4[fp]
00:0028 00 01                    1343   	mov	r1,	#00h
00:002A 5E-F0                    1344   	push	er0
00:002C A5-F2                    1345   	mov	er2,	er10
00:002E 80-80                    1346   	mov	r0,	r8
00:0030 01-F0'00-00'             1347   	bl	_i2c_startReceive
00:0034 08 E1                    1348   	add	sp,	#8 
                                 1349   
                                 1350   ;;	while(_flgI2CFin != 1)
                                 1351   CLINEA 0000H 0000H 02A4H 0001H 0001H
00:0036 02 CE                    1352   	bal	_$L85
                                 1353   
                                 1354   ;;	while(_flgI2CFin != 1)
                                 1355   CLINEA 0000H 0000H 02A4H 0002H 0017H
00:0038                          1356   _$L83 :
                                 1357   CBLOCK 188 3 677
                                 1358   
                                 1359   ;;		main_clrWDT();
                                 1360   CLINEA 0000H 0001H 02A6H 0003H 0010H
00:0038 01-F0'00-00'             1361   	bl	_main_clrWDT
                                 1362   CBLOCKEND 188 3 679
                                 1363   
                                 1364   ;;	while(_flgI2CFin != 1)
                                 1365   CLINEA 0000H 0000H 02A4H 0001H 0001H
00:003C                          1366   _$L85 :
00:003C 10-90 00-00'             1367   	l	r0,	NEAR __flgI2CFin
00:0040 01 70                    1368   	cmp	r0,	#01h
00:0042 FA C8                    1369   	bne	_$L83
                                 1370   CBLOCKEND 188 2 680
                                 1371   
                                 1372   ;;}
                                 1373   CLINEA 0000H 0001H 02A8H 0001H 0001H
00:0044 2E-F8                    1374   	pop	xr8
00:0046 EA-A1                    1375   	mov	sp,	fp
00:0048 1E-FE                    1376   	pop	fp
00:004A 8E-F2                    1377   	pop	pc
                                 1378   CBLOCKEND 188 1 680
                                 1379   CFUNCTIONEND 188
                                 1380   
                                 1381   
  --------------------------     1382   	rseg $$I2C_Write$main
                                 1383   CFUNCTION 189
                                 1384   
00:0000                          1385   _I2C_Write	:
                                 1386   CBLOCK 189 1 695
                                 1387   
                                 1388   ;;{
                                 1389   CLINEA 0000H 0001H 02B7H 0001H 0001H
00:0000 CE-F8                    1390   	push	lr
00:0002 5E-FE                    1391   	push	fp
00:0004 1A-AE                    1392   	mov	fp,	sp
00:0006 6E-F8                    1393   	push	xr8
00:0008 25-FA                    1394   	mov	er10,	er2
00:000A 00-88                    1395   	mov	r8,	r0
                                 1396   CBLOCK 189 2 695
                                 1397   CRET 0006H
                                 1398   CARGUMENT 46H 0001H 001CH "slave_address" 02H 00H 00H
                                 1399   CARGUMENT 46H 0002H 0029H "reg_address" 04H 03H 00H 00H 00H
                                 1400   CARGUMENT 42H 0001H 0004H "reg_address_size" 02H 00H 00H
                                 1401   CARGUMENT 42H 0002H 0006H "buffer" 04H 03H 00H 00H 00H
                                 1402   CARGUMENT 42H 0001H 0008H "size" 02H 00H 00H
                                 1403   
                                 1404   ;;	_flgI2CFin = 0;
                                 1405   CLINEA 0000H 0001H 02B8H 0002H 0010H
00:000C 00 00                    1406   	mov	r0,	#00h
00:000E 11-90 00-00'             1407   	st	r0,	NEAR __flgI2CFin
                                 1408   
                                 1409   ;;	i2c_stop();	
                                 1410   CLINEA 0000H 0001H 02B9H 0002H 000DH
00:0012 01-F0'00-00'             1411   	bl	_i2c_stop
                                 1412   
                                 1413   ;;	i2c_startSend(slave_address, reg_address, reg_address_size, buffer, size, (cbfI2c)_funcI2CFin);
                                 1414   CLINEA 0000H 0001H 02BAH 0002H 0060H
00:0016 00'00                    1415   	mov	r0,	#BYTE1 OFFSET __funcI2CFin
00:0018 00'01                    1416   	mov	r1,	#BYTE2 OFFSET __funcI2CFin
00:001A 5E-F0                    1417   	push	er0
00:001C 48 D0                    1418   	l	r0,	8[fp]
00:001E 00 01                    1419   	mov	r1,	#00h
00:0020 5E-F0                    1420   	push	er0
00:0022 46 B0                    1421   	l	er0,	6[fp]
00:0024 5E-F0                    1422   	push	er0
00:0026 44 D0                    1423   	l	r0,	4[fp]
00:0028 00 01                    1424   	mov	r1,	#00h
00:002A 5E-F0                    1425   	push	er0
00:002C A5-F2                    1426   	mov	er2,	er10
00:002E 80-80                    1427   	mov	r0,	r8
00:0030 01-F0'00-00'             1428   	bl	_i2c_startSend
00:0034 08 E1                    1429   	add	sp,	#8 
                                 1430   
                                 1431   ;;	while(_flgI2CFin != 1)
                                 1432   CLINEA 0000H 0000H 02BBH 0001H 0001H
00:0036 02 CE                    1433   	bal	_$L91
                                 1434   
                                 1435   ;;	while(_flgI2CFin != 1)
                                 1436   CLINEA 0000H 0000H 02BBH 0002H 0017H
00:0038                          1437   _$L89 :
                                 1438   CBLOCK 189 3 700
                                 1439   
                                 1440   ;;		main_clrWDT();
                                 1441   CLINEA 0000H 0001H 02BDH 0003H 0010H
00:0038 01-F0'00-00'             1442   	bl	_main_clrWDT
                                 1443   CBLOCKEND 189 3 702
                                 1444   
                                 1445   ;;	while(_flgI2CFin != 1)
                                 1446   CLINEA 0000H 0000H 02BBH 0001H 0001H
00:003C                          1447   _$L91 :
00:003C 10-90 00-00'             1448   	l	r0,	NEAR __flgI2CFin
00:0040 01 70                    1449   	cmp	r0,	#01h
00:0042 FA C8                    1450   	bne	_$L89
                                 1451   CBLOCKEND 189 2 703
                                 1452   
                                 1453   ;;}
                                 1454   CLINEA 0000H 0001H 02BFH 0001H 0001H
00:0044 2E-F8                    1455   	pop	xr8
00:0046 EA-A1                    1456   	mov	sp,	fp
00:0048 1E-FE                    1457   	pop	fp
00:004A 8E-F2                    1458   	pop	pc
                                 1459   CBLOCKEND 189 1 703
                                 1460   CFUNCTIONEND 189
                                 1461   
                                 1462   
  --------------------------     1463   	rseg $$DeviceSelection$main
                                 1464   CFUNCTION 197
                                 1465   
00:0000                          1466   _DeviceSelection	:
                                 1467   CBLOCK 197 1 715
                                 1468   
                                 1469   ;;{  
                                 1470   CLINEA 0000H 0001H 02CBH 0001H 0003H
                                 1471   CBLOCK 197 2 715
                                 1472   
                                 1473   ;;	if(PDD!=SensorPlatformSelection)
                                 1474   CLINEA 0000H 0001H 02D8H 0002H 0021H
00:0000 10-90 68-F2              1475   	l	r0,	0f268h
00:0004 10-91 00-00'             1476   	l	r1,	NEAR _SensorPlatformSelection
00:0008 17-80                    1477   	cmp	r0,	r1
00:000A 07 C9                    1478   	beq	_$L93
                                 1479   CBLOCK 197 3 729
                                 1480   
                                 1481   ;;		SensorIntializationFlag = 1;
                                 1482   CLINEA 0000H 0001H 02DAH 0003H 001EH
00:000C 01 00                    1483   	mov	r0,	#01h
00:000E 11-90 00-00'             1484   	st	r0,	NEAR _SensorIntializationFlag
                                 1485   
                                 1486   ;;		SensorPlatformSelection = PDD;
                                 1487   CLINEA 0000H 0001H 02DBH 0003H 0020H
00:0012 10-90 68-F2              1488   	l	r0,	0f268h
00:0016 11-90 00-00'             1489   	st	r0,	NEAR _SensorPlatformSelection
                                 1490   CBLOCKEND 197 3 732
                                 1491   
                                 1492   ;;	}
                                 1493   CLINEA 0000H 0000H 02DCH 0002H 0002H
00:001A                          1494   _$L93 :
                                 1495   CBLOCKEND 197 2 733
                                 1496   
                                 1497   ;;}
                                 1498   CLINEA 0000H 0001H 02DDH 0001H 0001H
00:001A 1F-FE                    1499   	rt
                                 1500   CBLOCKEND 197 1 733
                                 1501   CFUNCTIONEND 197
                                 1502   
                                 1503   
  --------------------------     1504   	rseg $$SensorInitialization$main
                                 1505   CFUNCTION 198
                                 1506   
00:0000                          1507   _SensorInitialization	:
                                 1508   CBLOCK 198 1 743
                                 1509   
                                 1510   ;;{  
                                 1511   CLINEA 0000H 0001H 02E7H 0001H 0003H
00:0000 CE-F8                    1512   	push	lr
                                 1513   CBLOCK 198 2 743
                                 1514   CRET 0000H
                                 1515   
                                 1516   ;;	switch(SensorPlatformSelection){
                                 1517   CLINEA 0000H 0001H 02E8H 0002H 0021H
00:0002 10-90 00-00'             1518   	l	r0,	NEAR _SensorPlatformSelection
00:0006 00 01                    1519   	mov	r1,	#00h
                                 1520   CBLOCK 198 3 744
00:0008 17 70                    1521   	cmp	r0,	#017h
00:000A 00 51                    1522   	cmpc	r1,	#00h
00:000C 09 C2                    1523   	bgt	_$L99
00:000E 01 70                    1524   	cmp	r0,	#01h
00:0010 00 51                    1525   	cmpc	r1,	#00h
00:0012 06 C1                    1526   	blt	_$L99
00:0014 FF E0                    1527   	add	er0,	#-1
00:0016 1B-91                    1528   	sllc	r1,	#01h
00:0018 1A-90                    1529   	sll	r0,	#01h
00:001A 08-A0 00-00'             1530   	l	er0,	NEAR _$M13[er0]
00:001E 02-F0                    1531   	b	er0
                                 1532   
                                 1533   ;;	} 	 
00:0020                          1534   _$L99 :
                                 1535   CBLOCKEND 198 2 790
                                 1536   
                                 1537   ;;}
                                 1538   CLINEA 0000H 0001H 0316H 0001H 0001H
00:0020 8E-F2                    1539   	pop	pc
                                 1540   
                                 1541   ;;		case 1:
                                 1542   CLINEA 0000H 0001H 02E9H 0003H 0009H
00:0022                          1543   _$S101 :
                                 1544   
                                 1545   ;;			Init_Hall_Effect_Sensors_1(); // Refer to function description for list of sensors
                                 1546   CLINEA 0000H 0001H 02EAH 0004H 0055H
00:0022 01-F0'00-00'             1547   	bl	_Init_Hall_Effect_Sensors_1
                                 1548   
                                 1549   ;;			break;
                                 1550   CLINEA 0000H 0001H 02EBH 0004H 0009H
00:0026 FC CE                    1551   	bal	_$L99
                                 1552   
                                 1553   ;;		case 2:
                                 1554   CLINEA 0000H 0001H 02ECH 0003H 0009H
00:0028                          1555   _$S102 :
                                 1556   
                                 1557   ;;			Init_Hall_Effect_Sensors_2(); // Refer to function description for list of sensors 
                                 1558   CLINEA 0000H 0001H 02EDH 0004H 0056H
00:0028 01-F0'00-00'             1559   	bl	_Init_Hall_Effect_Sensors_2
                                 1560   
                                 1561   ;;			break;
                                 1562   CLINEA 0000H 0001H 02EEH 0004H 0009H
00:002C F9 CE                    1563   	bal	_$L99
                                 1564   
                                 1565   ;;		case 5: 
                                 1566   CLINEA 0000H 0001H 02EFH 0003H 000AH
00:002E                          1567   _$S103 :
                                 1568   
                                 1569   ;;			Init_Ambient_Light_Sensor_5(); // Refer to function description for list of sensors
                                 1570   CLINEA 0000H 0001H 02F0H 0004H 0056H
00:002E 01-F0'00-00'             1571   	bl	_Init_Ambient_Light_Sensor_5
                                 1572   
                                 1573   ;;			break;
                                 1574   CLINEA 0000H 0001H 02F1H 0004H 0009H
00:0032 F6 CE                    1575   	bal	_$L99
                                 1576   
                                 1577   ;;		case 6:
                                 1578   CLINEA 0000H 0001H 02F2H 0003H 0009H
00:0034                          1579   _$S104 :
                                 1580   
                                 1581   ;;			Init_Ambient_Light_Sensor_6(); // Refer to function description for list of sensors 
                                 1582   CLINEA 0000H 0001H 02F3H 0004H 0057H
00:0034 01-F0'00-00'             1583   	bl	_Init_Ambient_Light_Sensor_6
                                 1584   
                                 1585   ;;			break;
                                 1586   CLINEA 0000H 0001H 02F4H 0004H 0009H
00:0038 F3 CE                    1587   	bal	_$L99
                                 1588   
                                 1589   ;;		case 7:
                                 1590   CLINEA 0000H 0001H 02F5H 0003H 0009H
00:003A                          1591   _$S105 :
                                 1592   
                                 1593   ;;			Init_Ambient_Light_Sensor_7(); // Refer to function description for list of sensors 
                                 1594   CLINEA 0000H 0001H 02F6H 0004H 0057H
00:003A 01-F0'00-00'             1595   	bl	_Init_Ambient_Light_Sensor_7
                                 1596   
                                 1597   ;;			break;
                                 1598   CLINEA 0000H 0001H 02F7H 0004H 0009H
00:003E F0 CE                    1599   	bal	_$L99
                                 1600   
                                 1601   ;;		case 8:
                                 1602   CLINEA 0000H 0001H 02F8H 0003H 0009H
00:0040                          1603   _$S106 :
                                 1604   
                                 1605   ;;			Init_Ambient_Light_Sensor_8(); // Refer to function description for list of sensors 
                                 1606   CLINEA 0000H 0001H 02F9H 0004H 0057H
00:0040 01-F0'00-00'             1607   	bl	_Init_Ambient_Light_Sensor_8
                                 1608   
                                 1609   ;;			break;
                                 1610   CLINEA 0000H 0001H 02FAH 0004H 0009H
00:0044 ED CE                    1611   	bal	_$L99
                                 1612   
                                 1613   ;;		case 9:
                                 1614   CLINEA 0000H 0001H 02FBH 0003H 0009H
00:0046                          1615   _$S107 :
                                 1616   
                                 1617   ;;			Init_Ambient_Light_Sensor_9(); // Refer to function description for list of sensors 
                                 1618   CLINEA 0000H 0001H 02FCH 0004H 0057H
00:0046 01-F0'00-00'             1619   	bl	_Init_Ambient_Light_Sensor_9
                                 1620   
                                 1621   ;;			break;
                                 1622   CLINEA 0000H 0001H 02FDH 0004H 0009H
00:004A EA CE                    1623   	bal	_$L99
                                 1624   
                                 1625   ;;		case 10:
                                 1626   CLINEA 0000H 0001H 02FEH 0003H 000AH
00:004C                          1627   _$S108 :
                                 1628   
                                 1629   ;;			Init_UV_Sensor_10(); // Refer to function description for list of sensors 
                                 1630   CLINEA 0000H 0001H 02FFH 0004H 004DH
00:004C 01-F0'00-00'             1631   	bl	_Init_UV_Sensor_10
                                 1632   
                                 1633   ;;			break;
                                 1634   CLINEA 0000H 0001H 0300H 0004H 0009H
00:0050 E7 CE                    1635   	bal	_$L99
                                 1636   
                                 1637   ;;		case 15:
                                 1638   CLINEA 0000H 0001H 0301H 0003H 000AH
00:0052                          1639   _$S109 :
                                 1640   
                                 1641   ;;			Init_KX022(); // Refer to function description for list of sensors 
                                 1642   CLINEA 0000H 0001H 0302H 0004H 0046H
00:0052 01-F0'00-00'             1643   	bl	_Init_KX022
                                 1644   
                                 1645   ;;			break;
                                 1646   CLINEA 0000H 0001H 0303H 0004H 0009H
00:0056 E4 CE                    1647   	bal	_$L99
                                 1648   
                                 1649   ;;		case 16:
                                 1650   CLINEA 0000H 0001H 0304H 0003H 000AH
00:0058                          1651   _$S110 :
                                 1652   
                                 1653   ;;			Init_KMX61(); // Refer to function description for list of sensors 
                                 1654   CLINEA 0000H 0001H 0305H 0004H 0046H
00:0058 01-F0'00-00'             1655   	bl	_Init_KMX61
                                 1656   
                                 1657   ;;			break;
                                 1658   CLINEA 0000H 0001H 0306H 0004H 0009H
00:005C E1 CE                    1659   	bal	_$L99
                                 1660   
                                 1661   ;;		case 20:
                                 1662   CLINEA 0000H 0001H 0307H 0003H 000AH
00:005E                          1663   _$S111 :
                                 1664   
                                 1665   ;;			Init_Temperature_Sensor_20(); // Refer to function description for list of sensors 
                                 1666   CLINEA 0000H 0001H 0308H 0004H 0056H
00:005E 01-F0'00-00'             1667   	bl	_Init_Temperature_Sensor_20
                                 1668   
                                 1669   ;;			break;
                                 1670   CLINEA 0000H 0001H 0309H 0004H 0009H
00:0062 DE CE                    1671   	bal	_$L99
                                 1672   
                                 1673   ;;		case 21:
                                 1674   CLINEA 0000H 0001H 030AH 0003H 000AH
00:0064                          1675   _$S112 :
                                 1676   
                                 1677   ;;			Init_Temperature_Sensor_21(); // Refer to function description for list of sensors
                                 1678   CLINEA 0000H 0001H 030BH 0004H 0055H
00:0064 01-F0'00-00'             1679   	bl	_Init_Temperature_Sensor_21
                                 1680   
                                 1681   ;;			break;
                                 1682   CLINEA 0000H 0001H 030CH 0004H 0009H
00:0068 DB CE                    1683   	bal	_$L99
                                 1684   
                                 1685   ;;		case 22:
                                 1686   CLINEA 0000H 0001H 030DH 0003H 000AH
00:006A                          1687   _$S113 :
                                 1688   
                                 1689   ;;			Init_Temperature_Sensor_22(); // Refer to function description for list of sensors 
                                 1690   CLINEA 0000H 0001H 030EH 0004H 0056H
00:006A 01-F0'00-00'             1691   	bl	_Init_Temperature_Sensor_22
                                 1692   
                                 1693   ;;			break;
                                 1694   CLINEA 0000H 0001H 030FH 0004H 0009H
00:006E D8 CE                    1695   	bal	_$L99
                                 1696   
                                 1697   ;;		case 23:
                                 1698   CLINEA 0000H 0001H 0310H 0003H 000AH
00:0070                          1699   _$S114 :
                                 1700   
                                 1701   ;;			Init_Temperature_Sensor_23(); // Refer to function description for list of sensors
                                 1702   CLINEA 0000H 0001H 0311H 0004H 0055H
00:0070 01-F0'00-00'             1703   	bl	_Init_Temperature_Sensor_23
                                 1704   
                                 1705   ;;			break; 
                                 1706   CLINEA 0000H 0001H 0312H 0004H 000AH
00:0074 D5 CE                    1707   	bal	_$L99
                                 1708   
                                 1709   ;;		default:
                                 1710   CLINEA 0000H 0001H 0313H 0003H 000AH
00:0076                          1711   _$L100 :
                                 1712   
                                 1713   ;;			break;
                                 1714   CLINEA 0000H 0001H 0314H 0004H 0009H
00:0076 D4 CE                    1715   	bal	_$L99
                                 1716   CBLOCKEND 198 3 789
                                 1717   CBLOCKEND 198 1 790
                                 1718   CFUNCTIONEND 198
                                 1719   
                                 1720   
  --------------------------     1721   	rseg $$MainOp_Hall_Effect_Sensors_1$main
                                 1722   CFUNCTION 200
                                 1723   
00:0000                          1724   _MainOp_Hall_Effect_Sensors_1	:
                                 1725   CBLOCK 200 1 803
                                 1726   
                                 1727   ;;{
                                 1728   CLINEA 0000H 0001H 0323H 0001H 0001H
00:0000 CE-F8                    1729   	push	lr
                                 1730   CBLOCK 200 2 803
                                 1731   CRET 0000H
                                 1732   
                                 1733   ;;	if(SENINTF_HDR1_GPIO0(D)==1 && SENINTF_HDR1_GPIO1(D)==1)
                                 1734   CLINEA 0000H 0001H 0324H 0002H 0039H
00:0002 A1-A0 58-F2              1735   	tb	0f258h.2
00:0006 0E C9                    1736   	beq	_$L116
00:0008 B1-A0 58-F2              1737   	tb	0f258h.3
00:000C 0B C9                    1738   	beq	_$L116
                                 1739   CBLOCK 200 3 805
                                 1740   
                                 1741   ;;		LEDOUT = 0x0;	// Turn off all LEDs
                                 1742   CLINEA 0000H 0001H 0326H 0003H 0024H
00:000E 00 00                    1743   	mov	r0,	#00h
00:0010 11-90 60-F2              1744   	st	r0,	0f260h
                                 1745   
                                 1746   ;;		PRINTF("\033[2K\rBU52004GUL> Hall  No Mag Fields Detected.");
                                 1747   CLINEA 0000H 0001H 0327H 0003H 0042H
00:0014 32 E0                    1748   	mov	er0,	#50
00:0016 5E-F0                    1749   	push	er0
00:0018 00'02                    1750   	mov	r2,	#BYTE1 OFFSET $$S123
00:001A 00'03                    1751   	mov	r3,	#BYTE2 OFFSET $$S123
00:001C 00 E0                    1752   	mov	er0,	#0 
00:001E 01-F0'00-00'             1753   	bl	_write
                                 1754   
                                 1755   ;;	else if(SENINTF_HDR1_GPIO0(D)==1 && SENINTF_HDR1_GPIO1(D)==0)
                                 1756   CLINEA 0000H 0001H 0329H 0002H 003EH
00:0022 2C CE                    1757   	bal	_$L142
00:0024                          1758   _$L116 :
00:0024 A1-A0 58-F2              1759   	tb	0f258h.2
00:0028 0E C9                    1760   	beq	_$L125
00:002A B1-A0 58-F2              1761   	tb	0f258h.3
00:002E 0B C8                    1762   	bne	_$L125
                                 1763   CBLOCK 200 4 810
                                 1764   
                                 1765   ;;		LEDOUT = 0x02;	// Turn on LED1
                                 1766   CLINEA 0000H 0001H 032BH 0003H 0020H
00:0030 02 00                    1767   	mov	r0,	#02h
00:0032 11-90 60-F2              1768   	st	r0,	0f260h
                                 1769   
                                 1770   ;;		PRINTF("\033[2K\rBU52004GUL> Hall  North Mag Field Detected.");
                                 1771   CLINEA 0000H 0001H 032CH 0003H 0044H
00:0036 34 E0                    1772   	mov	er0,	#52
00:0038 5E-F0                    1773   	push	er0
00:003A 00'02                    1774   	mov	r2,	#BYTE1 OFFSET $$S132
00:003C 00'03                    1775   	mov	r3,	#BYTE2 OFFSET $$S132
00:003E 00 E0                    1776   	mov	er0,	#0 
00:0040 01-F0'00-00'             1777   	bl	_write
                                 1778   
                                 1779   ;;	else if(SENINTF_HDR1_GPIO0(D)==0 && SENINTF_HDR1_GPIO1(D)==1)
                                 1780   CLINEA 0000H 0001H 032EH 0002H 003EH
00:0044 1B CE                    1781   	bal	_$L142
00:0046                          1782   _$L125 :
00:0046 A1-A0 58-F2              1783   	tb	0f258h.2
00:004A 0E C8                    1784   	bne	_$L134
00:004C B1-A0 58-F2              1785   	tb	0f258h.3
00:0050 0B C9                    1786   	beq	_$L134
                                 1787   CBLOCK 200 5 815
                                 1788   
                                 1789   ;;		LEDOUT = 0x80;	// Turn on LED7
                                 1790   CLINEA 0000H 0001H 0330H 0003H 0020H
00:0052 80 00                    1791   	mov	r0,	#080h
00:0054 11-90 60-F2              1792   	st	r0,	0f260h
                                 1793   
                                 1794   ;;		PRINTF("\033[2K\rBU52004GUL> Hall  South Mag Field Detected.");
                                 1795   CLINEA 0000H 0001H 0331H 0003H 0044H
00:0058 34 E0                    1796   	mov	er0,	#52
00:005A 5E-F0                    1797   	push	er0
00:005C 00'02                    1798   	mov	r2,	#BYTE1 OFFSET $$S141
00:005E 00'03                    1799   	mov	r3,	#BYTE2 OFFSET $$S141
00:0060 00 E0                    1800   	mov	er0,	#0 
00:0062 01-F0'00-00'             1801   	bl	_write
                                 1802   CBLOCKEND 200 5 818
                                 1803   
                                 1804   ;;	else
                                 1805   CLINEA 0000H 0001H 0333H 0002H 0005H
00:0066 0A CE                    1806   	bal	_$L142
00:0068                          1807   _$L134 :
                                 1808   CBLOCK 200 6 820
                                 1809   
                                 1810   ;;		LEDOUT = 0x82;	// Turn on LED7 and LED1
                                 1811   CLINEA 0000H 0001H 0335H 0003H 0029H
00:0068 82 00                    1812   	mov	r0,	#082h
00:006A 11-90 60-F2              1813   	st	r0,	0f260h
                                 1814   
                                 1815   ;;		PRINTF("\033[2K\rBU52004GUL> Hall  Both Mag Fields Detected.");
                                 1816   CLINEA 0000H 0001H 0336H 0003H 0044H
00:006E 34 E0                    1817   	mov	er0,	#52
00:0070 5E-F0                    1818   	push	er0
00:0072 00'02                    1819   	mov	r2,	#BYTE1 OFFSET $$S143
00:0074 00'03                    1820   	mov	r3,	#BYTE2 OFFSET $$S143
00:0076 00 E0                    1821   	mov	er0,	#0 
00:0078 01-F0'00-00'             1822   	bl	_write
                                 1823   CBLOCKEND 200 6 823
                                 1824   
                                 1825   ;;	}
                                 1826   CLINEA 0000H 0000H 0337H 0002H 0002H
00:007C                          1827   _$L142 :
00:007C 02 E1                    1828   	add	sp,	#2 
                                 1829   CBLOCKEND 200 4 824
                                 1830   CBLOCKEND 200 3 824
                                 1831   CBLOCKEND 200 2 824
                                 1832   
                                 1833   ;;}
                                 1834   CLINEA 0000H 0001H 0338H 0001H 0001H
00:007E 8E-F2                    1835   	pop	pc
                                 1836   CBLOCKEND 200 1 824
                                 1837   CFUNCTIONEND 200
                                 1838   
                                 1839   
  --------------------------     1840   	rseg $$MainOp_Hall_Effect_Sensors_2$main
                                 1841   CFUNCTION 199
                                 1842   
00:0000                          1843   _MainOp_Hall_Effect_Sensors_2	:
                                 1844   CBLOCK 199 1 837
                                 1845   
                                 1846   ;;{
                                 1847   CLINEA 0000H 0001H 0345H 0001H 0001H
00:0000 CE-F8                    1848   	push	lr
                                 1849   CBLOCK 199 2 837
                                 1850   CRET 0000H
                                 1851   
                                 1852   ;;	if(SENINTF_HDR1_GPIO0(D)==0)
                                 1853   CLINEA 0000H 0001H 0346H 0002H 001DH
00:0002 A1-A0 58-F2              1854   	tb	0f258h.2
00:0006 0B C8                    1855   	bne	_$L145
                                 1856   CBLOCK 199 3 839
                                 1857   
                                 1858   ;;		LEDOUT = 0x80;	// Turn on LED7
                                 1859   CLINEA 0000H 0001H 0348H 0003H 0020H
00:0008 80 00                    1860   	mov	r0,	#080h
00:000A 11-90 60-F2              1861   	st	r0,	0f260h
                                 1862   
                                 1863   ;;		PRINTF("\033[2K\rBU52011HFV> Hall  Mag Field Detected.");
                                 1864   CLINEA 0000H 0001H 0349H 0003H 003EH
00:000E 2E E0                    1865   	mov	er0,	#46
00:0010 5E-F0                    1866   	push	er0
00:0012 00'02                    1867   	mov	r2,	#BYTE1 OFFSET $$S147
00:0014 00'03                    1868   	mov	r3,	#BYTE2 OFFSET $$S147
00:0016 00 E0                    1869   	mov	er0,	#0 
00:0018 01-F0'00-00'             1870   	bl	_write
                                 1871   CBLOCKEND 199 3 842
                                 1872   
                                 1873   ;;	else
                                 1874   CLINEA 0000H 0001H 034BH 0002H 0005H
00:001C 0A CE                    1875   	bal	_$L148
00:001E                          1876   _$L145 :
                                 1877   CBLOCK 199 4 844
                                 1878   
                                 1879   ;;		LEDOUT = 0x0;	// Turn off all LEDs
                                 1880   CLINEA 0000H 0001H 034DH 0003H 0024H
00:001E 00 00                    1881   	mov	r0,	#00h
00:0020 11-90 60-F2              1882   	st	r0,	0f260h
                                 1883   
                                 1884   ;;		PRINTF("\033[2K\rBU52011HFV> Hall  No Mag Fields Detected.");
                                 1885   CLINEA 0000H 0001H 034EH 0003H 0042H
00:0024 32 E0                    1886   	mov	er0,	#50
00:0026 5E-F0                    1887   	push	er0
00:0028 00'02                    1888   	mov	r2,	#BYTE1 OFFSET $$S149
00:002A 00'03                    1889   	mov	r3,	#BYTE2 OFFSET $$S149
00:002C 00 E0                    1890   	mov	er0,	#0 
00:002E 01-F0'00-00'             1891   	bl	_write
                                 1892   CBLOCKEND 199 4 847
                                 1893   
                                 1894   ;;	}
                                 1895   CLINEA 0000H 0000H 034FH 0002H 0002H
00:0032                          1896   _$L148 :
00:0032 02 E1                    1897   	add	sp,	#2 
                                 1898   CBLOCKEND 199 2 848
                                 1899   
                                 1900   ;;}
                                 1901   CLINEA 0000H 0001H 0350H 0001H 0001H
00:0034 8E-F2                    1902   	pop	pc
                                 1903   CBLOCKEND 199 1 848
                                 1904   CFUNCTIONEND 199
                                 1905   
                                 1906   
  --------------------------     1907   	rseg $$MainOp_Ambient_Light_Sensor_5$main
                                 1908   CFUNCTION 201
                                 1909   
00:0000                          1910   _MainOp_Ambient_Light_Sensor_5	:
                                 1911   CBLOCK 201 1 861
                                 1912   
                                 1913   ;;{	
                                 1914   CLINEA 0000H 0001H 035DH 0001H 0002H
00:0000 CE-F8                    1915   	push	lr
                                 1916   CBLOCK 201 2 861
                                 1917   CRET 0000H
                                 1918   
                                 1919   ;;	uniRawSensorOut._uint = ADC_Read(0);
                                 1920   CLINEA 0000H 0000H 035EH 0002H 0025H
00:0002 00 00                    1921   	mov	r0,	#00h
00:0004 01-F0'00-00'             1922   	bl	_ADC_Read
00:0008 13-90 00-00'             1923   	st	er0,	NEAR _uniRawSensorOut
                                 1924   
                                 1925   ;;	flSensorOut[0] = uniRawSensorOut._uint*3.3f/1023;
                                 1926   CLINEA 0000H 0001H 0360H 0002H 0032H
00:000C 00 E2                    1927   	mov	er2,	#0 
00:000E 6E-F0                    1928   	push	xr0
00:0010 01-F0'00-00'             1929   	bl	__fuldu8sw
00:0014 33 00                    1930   	mov	r0,	#033h
00:0016 33 01                    1931   	mov	r1,	#033h
00:0018 53 02                    1932   	mov	r2,	#053h
00:001A 40 03                    1933   	mov	r3,	#040h
00:001C 6E-F0                    1934   	push	xr0
00:001E 01-F0'00-00'             1935   	bl	__fmulu8sw
00:0022 04 E1                    1936   	add	sp,	#4 
00:0024 00 00                    1937   	mov	r0,	#00h
00:0026 C0 01                    1938   	mov	r1,	#0c0h
00:0028 7F 02                    1939   	mov	r2,	#07fh
00:002A 44 03                    1940   	mov	r3,	#044h
00:002C 6E-F0                    1941   	push	xr0
00:002E 01-F0'00-00'             1942   	bl	__fdivu8sw
00:0032 04 E1                    1943   	add	sp,	#4 
00:0034 2E-F0                    1944   	pop	xr0
00:0036 13-90 00-00'             1945   	st	er0,	NEAR _flSensorOut
00:003A 13-92 00-00'             1946   	st	er2,	NEAR _flSensorOut+02h
                                 1947   
                                 1948   ;;	switch(SENINTF_HDR1_GPIO1(D)<<1|SENINTF_HDR1_GPIO0(D))
                                 1949   CLINEA 0000H 0001H 0365H 0002H 0037H
00:003E 10-90 58-F2              1950   	l	r0,	0f258h
00:0042 3C-90                    1951   	srl	r0,	#03h
00:0044 01 20                    1952   	and	r0,	#01h
00:0046 00 01                    1953   	mov	r1,	#00h
00:0048 05-F2                    1954   	mov	er2,	er0
00:004A 1B-93                    1955   	sllc	r3,	#01h
00:004C 1A-92                    1956   	sll	r2,	#01h
00:004E 10-90 58-F2              1957   	l	r0,	0f258h
00:0052 2C-90                    1958   	srl	r0,	#02h
00:0054 01 20                    1959   	and	r0,	#01h
00:0056 23-80                    1960   	or	r0,	r2
00:0058 33-81                    1961   	or	r1,	r3
00:005A 05-F2                    1962   	mov	er2,	er0
                                 1963   CBLOCK 201 3 870
00:005C 00 71                    1964   	cmp	r1,	#00h
00:005E 0A C8                    1965   	bne	_$L159
00:0060 20-80                    1966   	mov	r0,	r2
00:0062 08 C9                    1967   	beq	_$L159
                                 1968   
                                 1969   ;;	switch(SENINTF_HDR1_GPIO1(D)<<1|SENINTF_HDR1_GPIO0(D))
                                 1970   CLINEA 0000H 0000H 0365H 0002H 0037H
00:0064 01 72                    1971   	cmp	r2,	#01h
00:0066 20 C9                    1972   	beq	_$L156
                                 1973   
                                 1974   ;;	switch(SENINTF_HDR1_GPIO1(D)<<1|SENINTF_HDR1_GPIO0(D))
                                 1975   CLINEA 0000H 0000H 0365H 0002H 0037H
00:0068 02 72                    1976   	cmp	r2,	#02h
00:006A 31 C9                    1977   	beq	_$L157
                                 1978   
                                 1979   ;;	switch(SENINTF_HDR1_GPIO1(D)<<1|SENINTF_HDR1_GPIO0(D))
                                 1980   CLINEA 0000H 0000H 0365H 0002H 0037H
00:006C 03 72                    1981   	cmp	r2,	#03h
00:006E 02 C8                    1982   	bne	_$M17
00:0070 00-F0'00-00'             1983   	b	_$L158
00:0074                          1984   _$M17 :
                                 1985   
                                 1986   ;;		case 0:	// Shutdown
                                 1987   CLINEA 0000H 0001H 0370H 0003H 0015H
00:0074                          1988   _$L159 :
                                 1989   
                                 1990   ;;			flSensorOut[0] = 0;
                                 1991   CLINEA 0000H 0001H 0372H 0004H 0016H
00:0074 00 E0                    1992   	mov	er0,	#0 
00:0076 13-90 00-00'             1993   	st	er0,	NEAR _flSensorOut
00:007A 13-90 00-00'             1994   	st	er0,	NEAR _flSensorOut+02h
                                 1995   CBLOCKEND 201 3 884
                                 1996   
                                 1997   ;;	}
                                 1998   CLINEA 0000H 0000H 0374H 0002H 0002H
00:007E                          1999   _$L154 :
                                 2000   
                                 2001   ;;	LEDOUT = (unsigned char)(uniRawSensorOut._uint>>2);
                                 2002   CLINEA 0000H 0001H 0376H 0002H 0034H
00:007E 12-90 00-00'             2003   	l	er0,	NEAR _uniRawSensorOut
00:0082 2D-90                    2004   	srlc	r0,	#02h
00:0084 11-90 60-F2              2005   	st	r0,	0f260h
                                 2006   
                                 2007   ;;	printf("\033[2K\rBH1620FVC> Ambient Light = %lu[lx]", (unsigned long)flSensorOut[0]);
                                 2008   CLINEA 0000H 0001H 0377H 0002H 0056H
00:0088 12-90 00-00'             2009   	l	er0,	NEAR _flSensorOut
00:008C 12-92 00-00'             2010   	l	er2,	NEAR _flSensorOut+02h
00:0090 6E-F0                    2011   	push	xr0
00:0092 01-F0'00-00'             2012   	bl	__ftolu8sw
00:0096 2E-F0                    2013   	pop	xr0
00:0098 6E-F0                    2014   	push	xr0
00:009A 00'00                    2015   	mov	r0,	#BYTE1 OFFSET $$S160
00:009C 00'01                    2016   	mov	r1,	#BYTE2 OFFSET $$S160
00:009E 5E-F0                    2017   	push	er0
00:00A0 01-F0'00-00'             2018   	bl	_printf_n
00:00A4 06 E1                    2019   	add	sp,	#6 
                                 2020   CBLOCKEND 201 2 888
                                 2021   
                                 2022   ;;}
                                 2023   CLINEA 0000H 0001H 0378H 0001H 0001H
00:00A6 8E-F2                    2024   	pop	pc
                                 2025   
                                 2026   ;;		case 1: // H-Gain mode
                                 2027   CLINEA 0000H 0001H 0367H 0003H 0018H
00:00A8                          2028   _$L156 :
                                 2029   
                                 2030   ;;			flSensorOut[0] = flSensorOut[0]/(0.57e-6f*5.6e3f);
                                 2031   CLINEA 0000H 0001H 0368H 0004H 0035H
00:00A8 12-90 00-00'             2032   	l	er0,	NEAR _flSensorOut
00:00AC 12-92 00-00'             2033   	l	er2,	NEAR _flSensorOut+02h
00:00B0 6E-F0                    2034   	push	xr0
00:00B2 E0 00                    2035   	mov	r0,	#0e0h
00:00B4 30 01                    2036   	mov	r1,	#030h
00:00B6 51 02                    2037   	mov	r2,	#051h
00:00B8 3B 03                    2038   	mov	r3,	#03bh
00:00BA 6E-F0                    2039   	push	xr0
00:00BC 01-F0'00-00'             2040   	bl	__fdivu8sw
00:00C0 04 E1                    2041   	add	sp,	#4 
00:00C2 2E-F0                    2042   	pop	xr0
00:00C4 13-90 00-00'             2043   	st	er0,	NEAR _flSensorOut
00:00C8 13-92 00-00'             2044   	st	er2,	NEAR _flSensorOut+02h
                                 2045   
                                 2046   ;;			break;
                                 2047   CLINEA 0000H 0001H 0369H 0004H 0009H
00:00CC D8 CE                    2048   	bal	_$L154
                                 2049   
                                 2050   ;;		case 2: // M-Gain mode
                                 2051   CLINEA 0000H 0001H 036AH 0003H 0018H
00:00CE                          2052   _$L157 :
                                 2053   
                                 2054   ;;			flSensorOut[0] = flSensorOut[0]/(0.057e-6f*5.6e3f);
                                 2055   CLINEA 0000H 0001H 036BH 0004H 0036H
00:00CE 12-90 00-00'             2056   	l	er0,	NEAR _flSensorOut
00:00D2 12-92 00-00'             2057   	l	er2,	NEAR _flSensorOut+02h
00:00D6 6E-F0                    2058   	push	xr0
00:00D8 4D 00                    2059   	mov	r0,	#04dh
00:00DA 5A 01                    2060   	mov	r1,	#05ah
00:00DC A7 02                    2061   	mov	r2,	#0a7h
00:00DE 39 03                    2062   	mov	r3,	#039h
00:00E0 6E-F0                    2063   	push	xr0
00:00E2 01-F0'00-00'             2064   	bl	__fdivu8sw
00:00E6 04 E1                    2065   	add	sp,	#4 
00:00E8 2E-F0                    2066   	pop	xr0
00:00EA 13-90 00-00'             2067   	st	er0,	NEAR _flSensorOut
00:00EE 13-92 00-00'             2068   	st	er2,	NEAR _flSensorOut+02h
                                 2069   
                                 2070   ;;			break;
                                 2071   CLINEA 0000H 0001H 036CH 0004H 0009H
00:00F2 C5 CE                    2072   	bal	_$L154
                                 2073   
                                 2074   ;;		case 3: // L-Gain mode
                                 2075   CLINEA 0000H 0001H 036DH 0003H 0018H
00:00F4                          2076   _$L158 :
                                 2077   
                                 2078   ;;			flSensorOut[0] = flSensorOut[0]/(0.0057e-6f*5.6e3f);
                                 2079   CLINEA 0000H 0001H 036EH 0004H 0037H
00:00F4 12-90 00-00'             2080   	l	er0,	NEAR _flSensorOut
00:00F8 12-92 00-00'             2081   	l	er2,	NEAR _flSensorOut+02h
00:00FC 6E-F0                    2082   	push	xr0
00:00FE D7 00                    2083   	mov	r0,	#0d7h
00:0100 E1 01                    2084   	mov	r1,	#0e1h
00:0102 05 02                    2085   	mov	r2,	#05h
00:0104 38 03                    2086   	mov	r3,	#038h
00:0106 6E-F0                    2087   	push	xr0
00:0108 01-F0'00-00'             2088   	bl	__fdivu8sw
00:010C 04 E1                    2089   	add	sp,	#4 
00:010E 2E-F0                    2090   	pop	xr0
00:0110 13-90 00-00'             2091   	st	er0,	NEAR _flSensorOut
00:0114 13-92 00-00'             2092   	st	er2,	NEAR _flSensorOut+02h
                                 2093   
                                 2094   ;;			break;
                                 2095   CLINEA 0000H 0001H 036FH 0004H 0009H
00:0118 00-F0'00-00'             2096   	b	_$L154
                                 2097   CBLOCKEND 201 1 888
                                 2098   CFUNCTIONEND 201
                                 2099   
                                 2100   
  --------------------------     2101   	rseg $$MainOp_Ambient_Light_Sensor_6$main
                                 2102   CFUNCTION 202
                                 2103   
00:0000                          2104   _MainOp_Ambient_Light_Sensor_6	:
                                 2105   CBLOCK 202 1 901
                                 2106   
                                 2107   ;;{
                                 2108   CLINEA 0000H 0001H 0385H 0001H 0001H
00:0000 CE-F8                    2109   	push	lr
                                 2110   CBLOCK 202 2 901
                                 2111   CRET 0000H
                                 2112   
                                 2113   ;;	I2C_Read(BH17xxFVC_ADDR_1, NULL, 0, uniRawSensorOut._ucharArr, 2);
                                 2114   CLINEA 0000H 0001H 038BH 0002H 0043H
00:0002 02 00                    2115   	mov	r0,	#02h
00:0004 4E-F0                    2116   	push	r0
00:0006 00'00                    2117   	mov	r0,	#BYTE1 OFFSET _uniRawSensorOut
00:0008 00'01                    2118   	mov	r1,	#BYTE2 OFFSET _uniRawSensorOut
00:000A 5E-F0                    2119   	push	er0
00:000C 00 00                    2120   	mov	r0,	#00h
00:000E 4E-F0                    2121   	push	r0
00:0010 00 E2                    2122   	mov	er2,	#0 
00:0012 23 00                    2123   	mov	r0,	#023h
00:0014 01-F0'00-00'             2124   	bl	_I2C_Read
00:0018 06 E1                    2125   	add	sp,	#6 
                                 2126   
                                 2127   ;;	flSensorOut[0] = (uniRawSensorOut._ucharArr[0]<<8|uniRawSensorOut._ucharArr[1])/1.2f;
                                 2128   CLINEA 0000H 0001H 038FH 0002H 0056H
00:001A 10-90 00-00'             2129   	l	r0,	NEAR _uniRawSensorOut
00:001E 00 01                    2130   	mov	r1,	#00h
00:0020 00-83                    2131   	mov	r3,	r0
00:0022 10-90 00-00'             2132   	l	r0,	NEAR _uniRawSensorOut+01h
00:0026 33-81                    2133   	or	r1,	r3
00:0028 10-82                    2134   	mov	r2,	r1
00:002A 2F-83                    2135   	extbw	er2
00:002C 30-82                    2136   	mov	r2,	r3
00:002E 6E-F0                    2137   	push	xr0
00:0030 01-F0'00-00'             2138   	bl	__fildu8sw
00:0034 9A 00                    2139   	mov	r0,	#09ah
00:0036 99 01                    2140   	mov	r1,	#099h
00:0038 99 02                    2141   	mov	r2,	#099h
00:003A 3F 03                    2142   	mov	r3,	#03fh
00:003C 6E-F0                    2143   	push	xr0
00:003E 01-F0'00-00'             2144   	bl	__fdivu8sw
00:0042 04 E1                    2145   	add	sp,	#4 
00:0044 2E-F0                    2146   	pop	xr0
00:0046 13-90 00-00'             2147   	st	er0,	NEAR _flSensorOut
00:004A 13-92 00-00'             2148   	st	er2,	NEAR _flSensorOut+02h
                                 2149   
                                 2150   ;;	LEDOUT = uniRawSensorOut._ucharArr[0];
                                 2151   CLINEA 0000H 0001H 0391H 0002H 0027H
00:004E 10-90 00-00'             2152   	l	r0,	NEAR _uniRawSensorOut
00:0052 11-90 60-F2              2153   	st	r0,	0f260h
                                 2154   
                                 2155   ;;	printf("\033[2K\rBH1710FVC> Ambient Light = %lu[lx]", (unsigned long)flSensorOut[0]);
                                 2156   CLINEA 0000H 0001H 0392H 0002H 0056H
00:0056 12-90 00-00'             2157   	l	er0,	NEAR _flSensorOut
00:005A 6E-F0                    2158   	push	xr0
00:005C 01-F0'00-00'             2159   	bl	__ftolu8sw
00:0060 2E-F0                    2160   	pop	xr0
00:0062 6E-F0                    2161   	push	xr0
00:0064 00'00                    2162   	mov	r0,	#BYTE1 OFFSET $$S162
00:0066 00'01                    2163   	mov	r1,	#BYTE2 OFFSET $$S162
00:0068 5E-F0                    2164   	push	er0
00:006A 01-F0'00-00'             2165   	bl	_printf_n
00:006E 06 E1                    2166   	add	sp,	#6 
                                 2167   CBLOCKEND 202 2 915
                                 2168   
                                 2169   ;;}
                                 2170   CLINEA 0000H 0001H 0393H 0001H 0001H
00:0070 8E-F2                    2171   	pop	pc
                                 2172   CBLOCKEND 202 1 915
                                 2173   CFUNCTIONEND 202
                                 2174   
                                 2175   
  --------------------------     2176   	rseg $$MainOp_Ambient_Light_Sensor_7$main
                                 2177   CFUNCTION 203
                                 2178   
00:0000                          2179   _MainOp_Ambient_Light_Sensor_7	:
                                 2180   CBLOCK 203 1 928
                                 2181   
                                 2182   ;;{
                                 2183   CLINEA 0000H 0001H 03A0H 0001H 0001H
00:0000 CE-F8                    2184   	push	lr
00:0002 6E-F4                    2185   	push	xr4
                                 2186   CBLOCK 203 2 928
                                 2187   CRET 0004H
                                 2188   
                                 2189   ;;	I2C_Read(BH17xxFVC_ADDR_2, NULL, 0, uniRawSensorOut._ucharArr, 4);
                                 2190   CLINEA 0000H 0001H 03A6H 0002H 0043H
00:0004 04 00                    2191   	mov	r0,	#04h
00:0006 4E-F0                    2192   	push	r0
00:0008 00'00                    2193   	mov	r0,	#BYTE1 OFFSET _uniRawSensorOut
00:000A 00'01                    2194   	mov	r1,	#BYTE2 OFFSET _uniRawSensorOut
00:000C 5E-F0                    2195   	push	er0
00:000E 00 00                    2196   	mov	r0,	#00h
00:0010 4E-F0                    2197   	push	r0
00:0012 00 E2                    2198   	mov	er2,	#0 
00:0014 29 00                    2199   	mov	r0,	#029h
00:0016 01-F0'00-00'             2200   	bl	_I2C_Read
00:001A 06 E1                    2201   	add	sp,	#6 
                                 2202   
                                 2203   ;;	flSensorOut[0] = (float)uniRawSensorOut._uintArr[1]/uniRawSensorOut._uintArr[0];
                                 2204   CLINEA 0000H 0001H 03ADH 0002H 0051H
00:001C 12-90 00-00'             2205   	l	er0,	NEAR _uniRawSensorOut+02h
00:0020 00 E2                    2206   	mov	er2,	#0 
00:0022 6E-F0                    2207   	push	xr0
00:0024 01-F0'00-00'             2208   	bl	__fuldu8sw
00:0028 2E-F0                    2209   	pop	xr0
00:002A 12-94 00-00'             2210   	l	er4,	NEAR _uniRawSensorOut
00:002E 00 E6                    2211   	mov	er6,	#0 
00:0030 6E-F4                    2212   	push	xr4
00:0032 01-F0'00-00'             2213   	bl	__fuldu8sw
00:0036 2E-F4                    2214   	pop	xr4
00:0038 6E-F0                    2215   	push	xr0
00:003A 6E-F4                    2216   	push	xr4
00:003C 01-F0'00-00'             2217   	bl	__fdivu8sw
00:0040 04 E1                    2218   	add	sp,	#4 
00:0042 2E-F0                    2219   	pop	xr0
00:0044 13-90 00-00'             2220   	st	er0,	NEAR _flSensorOut
00:0048 13-92 00-00'             2221   	st	er2,	NEAR _flSensorOut+02h
                                 2222   
                                 2223   ;;	if(flSensorOut[0]<0.26f)
                                 2224   CLINEA 0000H 0001H 03AEH 0002H 0019H
00:004C 6E-F0                    2225   	push	xr0
00:004E B8 00                    2226   	mov	r0,	#0b8h
00:0050 1E 01                    2227   	mov	r1,	#01eh
00:0052 85 02                    2228   	mov	r2,	#085h
00:0054 3E 03                    2229   	mov	r3,	#03eh
00:0056 6E-F0                    2230   	push	xr0
00:0058 01-F0'00-00'             2231   	bl	__fcmpu8sw
00:005C 08 E1                    2232   	add	sp,	#8 
00:005E 0B-A0                    2233   	mov	psw,	r0
00:0060 36 C0                    2234   	bge	_$L164
                                 2235   
                                 2236   ;;		flSensorOut[0] = (1.290f*uniRawSensorOut._uintArr[0]-2.733f*uniRawSensorOut._uintArr[1])/1*100/218;
                                 2237   CLINEA 0000H 0001H 03AFH 0003H 0065H
00:0062 12-90 00-00'             2238   	l	er0,	NEAR _uniRawSensorOut
00:0066 00 E2                    2239   	mov	er2,	#0 
00:0068 6E-F0                    2240   	push	xr0
00:006A 01-F0'00-00'             2241   	bl	__fuldu8sw
00:006E B8 00                    2242   	mov	r0,	#0b8h
00:0070 1E 01                    2243   	mov	r1,	#01eh
00:0072 A5 02                    2244   	mov	r2,	#0a5h
00:0074 3F 03                    2245   	mov	r3,	#03fh
00:0076 6E-F0                    2246   	push	xr0
00:0078 01-F0'00-00'             2247   	bl	__fmulu8sw
00:007C 04 E1                    2248   	add	sp,	#4 
00:007E 2E-F4                    2249   	pop	xr4
00:0080 12-90 00-00'             2250   	l	er0,	NEAR _uniRawSensorOut+02h
00:0084 00 E2                    2251   	mov	er2,	#0 
00:0086 6E-F0                    2252   	push	xr0
00:0088 01-F0'00-00'             2253   	bl	__fuldu8sw
00:008C 79 00                    2254   	mov	r0,	#079h
00:008E E9 01                    2255   	mov	r1,	#0e9h
00:0090 2E 02                    2256   	mov	r2,	#02eh
00:0092 40 03                    2257   	mov	r3,	#040h
00:0094 6E-F0                    2258   	push	xr0
00:0096 01-F0'00-00'             2259   	bl	__fmulu8sw
00:009A 04 E1                    2260   	add	sp,	#4 
00:009C 2E-F0                    2261   	pop	xr0
00:009E 7E-F0                    2262   	push	qr0
00:00A0 01-F0'00-00'             2263   	bl	__fsubu8sw
00:00A4 04 E1                    2264   	add	sp,	#4 
00:00A6 00 E0                    2265   	mov	er0,	#0 
00:00A8 C8 02                    2266   	mov	r2,	#0c8h
00:00AA 42 03                    2267   	mov	r3,	#042h
00:00AC 6E-F0                    2268   	push	xr0
00:00AE 01-F0'00-00'             2269   	bl	__fmulu8sw
00:00B2 04 E1                    2270   	add	sp,	#4 
00:00B4 5A 02                    2271   	mov	r2,	#05ah
00:00B6 43 03                    2272   	mov	r3,	#043h
00:00B8 6E-F0                    2273   	push	xr0
00:00BA 01-F0'00-00'             2274   	bl	__fdivu8sw
00:00BE 04 E1                    2275   	add	sp,	#4 
00:00C0 2E-F0                    2276   	pop	xr0
00:00C2 13-90 00-00'             2277   	st	er0,	NEAR _flSensorOut
00:00C6 13-92 00-00'             2278   	st	er2,	NEAR _flSensorOut+02h
                                 2279   
                                 2280   ;;	else if(flSensorOut[0]<0.55f)
                                 2281   CLINEA 0000H 0001H 03B0H 0002H 001EH
00:00CA 00-F0'00-00'             2282   	b	_$L175
00:00CE                          2283   _$L164 :
00:00CE 12-90 00-00'             2284   	l	er0,	NEAR _flSensorOut
00:00D2 12-92 00-00'             2285   	l	er2,	NEAR _flSensorOut+02h
00:00D6 6E-F0                    2286   	push	xr0
00:00D8 CD 00                    2287   	mov	r0,	#0cdh
00:00DA CC 01                    2288   	mov	r1,	#0cch
00:00DC 0C 02                    2289   	mov	r2,	#0ch
00:00DE 3F 03                    2290   	mov	r3,	#03fh
00:00E0 6E-F0                    2291   	push	xr0
00:00E2 01-F0'00-00'             2292   	bl	__fcmpu8sw
00:00E6 08 E1                    2293   	add	sp,	#8 
00:00E8 0B-A0                    2294   	mov	psw,	r0
00:00EA 36 C0                    2295   	bge	_$L167
                                 2296   
                                 2297   ;;		flSensorOut[0] = (0.795f*uniRawSensorOut._uintArr[0]-0.859f*uniRawSensorOut._uintArr[1])/1*100/218;
                                 2298   CLINEA 0000H 0001H 03B1H 0003H 0065H
00:00EC 12-90 00-00'             2299   	l	er0,	NEAR _uniRawSensorOut
00:00F0 00 E2                    2300   	mov	er2,	#0 
00:00F2 6E-F0                    2301   	push	xr0
00:00F4 01-F0'00-00'             2302   	bl	__fuldu8sw
00:00F8 1F 00                    2303   	mov	r0,	#01fh
00:00FA 85 01                    2304   	mov	r1,	#085h
00:00FC 4B 02                    2305   	mov	r2,	#04bh
00:00FE 3F 03                    2306   	mov	r3,	#03fh
00:0100 6E-F0                    2307   	push	xr0
00:0102 01-F0'00-00'             2308   	bl	__fmulu8sw
00:0106 04 E1                    2309   	add	sp,	#4 
00:0108 2E-F4                    2310   	pop	xr4
00:010A 12-90 00-00'             2311   	l	er0,	NEAR _uniRawSensorOut+02h
00:010E 00 E2                    2312   	mov	er2,	#0 
00:0110 6E-F0                    2313   	push	xr0
00:0112 01-F0'00-00'             2314   	bl	__fuldu8sw
00:0116 6D 00                    2315   	mov	r0,	#06dh
00:0118 E7 01                    2316   	mov	r1,	#0e7h
00:011A 5B 02                    2317   	mov	r2,	#05bh
00:011C 3F 03                    2318   	mov	r3,	#03fh
00:011E 6E-F0                    2319   	push	xr0
00:0120 01-F0'00-00'             2320   	bl	__fmulu8sw
00:0124 04 E1                    2321   	add	sp,	#4 
00:0126 2E-F0                    2322   	pop	xr0
00:0128 7E-F0                    2323   	push	qr0
00:012A 01-F0'00-00'             2324   	bl	__fsubu8sw
00:012E 04 E1                    2325   	add	sp,	#4 
00:0130 00 E0                    2326   	mov	er0,	#0 
00:0132 C8 02                    2327   	mov	r2,	#0c8h
00:0134 42 03                    2328   	mov	r3,	#042h
00:0136 6E-F0                    2329   	push	xr0
00:0138 01-F0'00-00'             2330   	bl	__fmulu8sw
00:013C 04 E1                    2331   	add	sp,	#4 
00:013E 5A 02                    2332   	mov	r2,	#05ah
00:0140 43 03                    2333   	mov	r3,	#043h
00:0142 6E-F0                    2334   	push	xr0
00:0144 01-F0'00-00'             2335   	bl	__fdivu8sw
00:0148 04 E1                    2336   	add	sp,	#4 
00:014A 2E-F0                    2337   	pop	xr0
00:014C 13-90 00-00'             2338   	st	er0,	NEAR _flSensorOut
00:0150 13-92 00-00'             2339   	st	er2,	NEAR _flSensorOut+02h
                                 2340   
                                 2341   ;;	else if(flSensorOut[0]<1.09f)
                                 2342   CLINEA 0000H 0001H 03B2H 0002H 001EH
00:0154 00-F0'00-00'             2343   	b	_$L175
00:0158                          2344   _$L167 :
00:0158 12-90 00-00'             2345   	l	er0,	NEAR _flSensorOut
00:015C 12-92 00-00'             2346   	l	er2,	NEAR _flSensorOut+02h
00:0160 6E-F0                    2347   	push	xr0
00:0162 1F 00                    2348   	mov	r0,	#01fh
00:0164 85 01                    2349   	mov	r1,	#085h
00:0166 8B 02                    2350   	mov	r2,	#08bh
00:0168 3F 03                    2351   	mov	r3,	#03fh
00:016A 6E-F0                    2352   	push	xr0
00:016C 01-F0'00-00'             2353   	bl	__fcmpu8sw
00:0170 08 E1                    2354   	add	sp,	#8 
00:0172 0B-A0                    2355   	mov	psw,	r0
00:0174 36 C0                    2356   	bge	_$L170
                                 2357   
                                 2358   ;;		flSensorOut[0] = (0.510f*uniRawSensorOut._uintArr[0]-0.345f*uniRawSensorOut._uintArr[1])/1*100/218;
                                 2359   CLINEA 0000H 0001H 03B3H 0003H 0065H
00:0176 12-90 00-00'             2360   	l	er0,	NEAR _uniRawSensorOut
00:017A 00 E2                    2361   	mov	er2,	#0 
00:017C 6E-F0                    2362   	push	xr0
00:017E 01-F0'00-00'             2363   	bl	__fuldu8sw
00:0182 5C 00                    2364   	mov	r0,	#05ch
00:0184 8F 01                    2365   	mov	r1,	#08fh
00:0186 02 02                    2366   	mov	r2,	#02h
00:0188 3F 03                    2367   	mov	r3,	#03fh
00:018A 6E-F0                    2368   	push	xr0
00:018C 01-F0'00-00'             2369   	bl	__fmulu8sw
00:0190 04 E1                    2370   	add	sp,	#4 
00:0192 2E-F4                    2371   	pop	xr4
00:0194 12-90 00-00'             2372   	l	er0,	NEAR _uniRawSensorOut+02h
00:0198 00 E2                    2373   	mov	er2,	#0 
00:019A 6E-F0                    2374   	push	xr0
00:019C 01-F0'00-00'             2375   	bl	__fuldu8sw
00:01A0 D7 00                    2376   	mov	r0,	#0d7h
00:01A2 A3 01                    2377   	mov	r1,	#0a3h
00:01A4 B0 02                    2378   	mov	r2,	#0b0h
00:01A6 3E 03                    2379   	mov	r3,	#03eh
00:01A8 6E-F0                    2380   	push	xr0
00:01AA 01-F0'00-00'             2381   	bl	__fmulu8sw
00:01AE 04 E1                    2382   	add	sp,	#4 
00:01B0 2E-F0                    2383   	pop	xr0
00:01B2 7E-F0                    2384   	push	qr0
00:01B4 01-F0'00-00'             2385   	bl	__fsubu8sw
00:01B8 04 E1                    2386   	add	sp,	#4 
00:01BA 00 E0                    2387   	mov	er0,	#0 
00:01BC C8 02                    2388   	mov	r2,	#0c8h
00:01BE 42 03                    2389   	mov	r3,	#042h
00:01C0 6E-F0                    2390   	push	xr0
00:01C2 01-F0'00-00'             2391   	bl	__fmulu8sw
00:01C6 04 E1                    2392   	add	sp,	#4 
00:01C8 5A 02                    2393   	mov	r2,	#05ah
00:01CA 43 03                    2394   	mov	r3,	#043h
00:01CC 6E-F0                    2395   	push	xr0
00:01CE 01-F0'00-00'             2396   	bl	__fdivu8sw
00:01D2 04 E1                    2397   	add	sp,	#4 
00:01D4 2E-F0                    2398   	pop	xr0
00:01D6 13-90 00-00'             2399   	st	er0,	NEAR _flSensorOut
00:01DA 13-92 00-00'             2400   	st	er2,	NEAR _flSensorOut+02h
                                 2401   
                                 2402   ;;	else if(flSensorOut[0]<2.13f)
                                 2403   CLINEA 0000H 0001H 03B4H 0002H 001EH
00:01DE 00-F0'00-00'             2404   	b	_$L175
00:01E2                          2405   _$L170 :
00:01E2 12-90 00-00'             2406   	l	er0,	NEAR _flSensorOut
00:01E6 12-92 00-00'             2407   	l	er2,	NEAR _flSensorOut+02h
00:01EA 6E-F0                    2408   	push	xr0
00:01EC EC 00                    2409   	mov	r0,	#0ech
00:01EE 51 01                    2410   	mov	r1,	#051h
00:01F0 08 02                    2411   	mov	r2,	#08h
00:01F2 40 03                    2412   	mov	r3,	#040h
00:01F4 6E-F0                    2413   	push	xr0
00:01F6 01-F0'00-00'             2414   	bl	__fcmpu8sw
00:01FA 08 E1                    2415   	add	sp,	#8 
00:01FC 0B-A0                    2416   	mov	psw,	r0
00:01FE 35 C0                    2417   	bge	_$L173
                                 2418   
                                 2419   ;;		flSensorOut[0] = (0.276f*uniRawSensorOut._uintArr[0]-0.130f*uniRawSensorOut._uintArr[1])/1*100/218;
                                 2420   CLINEA 0000H 0001H 03B5H 0003H 0065H
00:0200 12-90 00-00'             2421   	l	er0,	NEAR _uniRawSensorOut
00:0204 00 E2                    2422   	mov	er2,	#0 
00:0206 6E-F0                    2423   	push	xr0
00:0208 01-F0'00-00'             2424   	bl	__fuldu8sw
00:020C DF 00                    2425   	mov	r0,	#0dfh
00:020E 4F 01                    2426   	mov	r1,	#04fh
00:0210 8D 02                    2427   	mov	r2,	#08dh
00:0212 3E 03                    2428   	mov	r3,	#03eh
00:0214 6E-F0                    2429   	push	xr0
00:0216 01-F0'00-00'             2430   	bl	__fmulu8sw
00:021A 04 E1                    2431   	add	sp,	#4 
00:021C 2E-F4                    2432   	pop	xr4
00:021E 12-90 00-00'             2433   	l	er0,	NEAR _uniRawSensorOut+02h
00:0222 00 E2                    2434   	mov	er2,	#0 
00:0224 6E-F0                    2435   	push	xr0
00:0226 01-F0'00-00'             2436   	bl	__fuldu8sw
00:022A B8 00                    2437   	mov	r0,	#0b8h
00:022C 1E 01                    2438   	mov	r1,	#01eh
00:022E 05 02                    2439   	mov	r2,	#05h
00:0230 3E 03                    2440   	mov	r3,	#03eh
00:0232 6E-F0                    2441   	push	xr0
00:0234 01-F0'00-00'             2442   	bl	__fmulu8sw
00:0238 04 E1                    2443   	add	sp,	#4 
00:023A 2E-F0                    2444   	pop	xr0
00:023C 7E-F0                    2445   	push	qr0
00:023E 01-F0'00-00'             2446   	bl	__fsubu8sw
00:0242 04 E1                    2447   	add	sp,	#4 
00:0244 00 E0                    2448   	mov	er0,	#0 
00:0246 C8 02                    2449   	mov	r2,	#0c8h
00:0248 42 03                    2450   	mov	r3,	#042h
00:024A 6E-F0                    2451   	push	xr0
00:024C 01-F0'00-00'             2452   	bl	__fmulu8sw
00:0250 04 E1                    2453   	add	sp,	#4 
00:0252 5A 02                    2454   	mov	r2,	#05ah
00:0254 43 03                    2455   	mov	r3,	#043h
00:0256 6E-F0                    2456   	push	xr0
00:0258 01-F0'00-00'             2457   	bl	__fdivu8sw
00:025C 04 E1                    2458   	add	sp,	#4 
00:025E 2E-F0                    2459   	pop	xr0
00:0260 13-90 00-00'             2460   	st	er0,	NEAR _flSensorOut
00:0264 13-92 00-00'             2461   	st	er2,	NEAR _flSensorOut+02h
                                 2462   
                                 2463   ;;	else
                                 2464   CLINEA 0000H 0001H 03B6H 0002H 0005H
00:0268 05 CE                    2465   	bal	_$L175
00:026A                          2466   _$L173 :
                                 2467   
                                 2468   ;;		flSensorOut[0] = 0;
                                 2469   CLINEA 0000H 0001H 03B7H 0003H 0015H
00:026A 00 E0                    2470   	mov	er0,	#0 
00:026C 13-90 00-00'             2471   	st	er0,	NEAR _flSensorOut
00:0270 13-90 00-00'             2472   	st	er0,	NEAR _flSensorOut+02h
00:0274                          2473   _$L175 :
                                 2474   
                                 2475   ;;	LEDOUT = uniRawSensorOut._ucharArr[1];
                                 2476   CLINEA 0000H 0001H 03B9H 0002H 0027H
00:0274 10-90 00-00'             2477   	l	r0,	NEAR _uniRawSensorOut+01h
00:0278 11-90 60-F2              2478   	st	r0,	0f260h
                                 2479   
                                 2480   ;;	printf("\033[2K\rBH1730FVC> Ambient Light = %lu[lx]", (unsigned long)flSensorOut[0]);
                                 2481   CLINEA 0000H 0001H 03BAH 0002H 0056H
00:027C 12-90 00-00'             2482   	l	er0,	NEAR _flSensorOut
00:0280 12-92 00-00'             2483   	l	er2,	NEAR _flSensorOut+02h
00:0284 6E-F0                    2484   	push	xr0
00:0286 01-F0'00-00'             2485   	bl	__ftolu8sw
00:028A 2E-F0                    2486   	pop	xr0
00:028C 6E-F0                    2487   	push	xr0
00:028E 00'00                    2488   	mov	r0,	#BYTE1 OFFSET $$S176
00:0290 00'01                    2489   	mov	r1,	#BYTE2 OFFSET $$S176
00:0292 5E-F0                    2490   	push	er0
00:0294 01-F0'00-00'             2491   	bl	_printf_n
00:0298 06 E1                    2492   	add	sp,	#6 
                                 2493   CBLOCKEND 203 2 955
                                 2494   
                                 2495   ;;}
                                 2496   CLINEA 0000H 0001H 03BBH 0001H 0001H
00:029A 2E-F4                    2497   	pop	xr4
00:029C 8E-F2                    2498   	pop	pc
                                 2499   CBLOCKEND 203 1 955
                                 2500   CFUNCTIONEND 203
                                 2501   
                                 2502   
  --------------------------     2503   	rseg $$MainOp_Ambient_Light_Sensor_8$main
                                 2504   CFUNCTION 204
                                 2505   
00:0000                          2506   _MainOp_Ambient_Light_Sensor_8	:
                                 2507   CBLOCK 204 1 968
                                 2508   
                                 2509   ;;{	
                                 2510   CLINEA 0000H 0001H 03C8H 0001H 0002H
00:0000 CE-F8                    2511   	push	lr
                                 2512   CBLOCK 204 2 968
                                 2513   CRET 0000H
                                 2514   
                                 2515   ;;	I2C_Read(BH17xxFVC_ADDR_1, NULL, 0, uniRawSensorOut._ucharArr, 2);
                                 2516   CLINEA 0000H 0001H 03CDH 0002H 0043H
00:0002 02 00                    2517   	mov	r0,	#02h
00:0004 4E-F0                    2518   	push	r0
00:0006 00'00                    2519   	mov	r0,	#BYTE1 OFFSET _uniRawSensorOut
00:0008 00'01                    2520   	mov	r1,	#BYTE2 OFFSET _uniRawSensorOut
00:000A 5E-F0                    2521   	push	er0
00:000C 00 00                    2522   	mov	r0,	#00h
00:000E 4E-F0                    2523   	push	r0
00:0010 00 E2                    2524   	mov	er2,	#0 
00:0012 23 00                    2525   	mov	r0,	#023h
00:0014 01-F0'00-00'             2526   	bl	_I2C_Read
00:0018 06 E1                    2527   	add	sp,	#6 
                                 2528   
                                 2529   ;;	flSensorOut[0] = (uniRawSensorOut._ucharArr[0]<<8|uniRawSensorOut._ucharArr[1])/1.2f;
                                 2530   CLINEA 0000H 0001H 03D1H 0002H 0056H
00:001A 10-90 00-00'             2531   	l	r0,	NEAR _uniRawSensorOut
00:001E 00 01                    2532   	mov	r1,	#00h
00:0020 00-83                    2533   	mov	r3,	r0
00:0022 10-90 00-00'             2534   	l	r0,	NEAR _uniRawSensorOut+01h
00:0026 33-81                    2535   	or	r1,	r3
00:0028 10-82                    2536   	mov	r2,	r1
00:002A 2F-83                    2537   	extbw	er2
00:002C 30-82                    2538   	mov	r2,	r3
00:002E 6E-F0                    2539   	push	xr0
00:0030 01-F0'00-00'             2540   	bl	__fildu8sw
00:0034 9A 00                    2541   	mov	r0,	#09ah
00:0036 99 01                    2542   	mov	r1,	#099h
00:0038 99 02                    2543   	mov	r2,	#099h
00:003A 3F 03                    2544   	mov	r3,	#03fh
00:003C 6E-F0                    2545   	push	xr0
00:003E 01-F0'00-00'             2546   	bl	__fdivu8sw
00:0042 04 E1                    2547   	add	sp,	#4 
00:0044 2E-F0                    2548   	pop	xr0
00:0046 13-90 00-00'             2549   	st	er0,	NEAR _flSensorOut
00:004A 13-92 00-00'             2550   	st	er2,	NEAR _flSensorOut+02h
                                 2551   
                                 2552   ;;	LEDOUT = uniRawSensorOut._ucharArr[0];
                                 2553   CLINEA 0000H 0001H 03D3H 0002H 0027H
00:004E 10-90 00-00'             2554   	l	r0,	NEAR _uniRawSensorOut
00:0052 11-90 60-F2              2555   	st	r0,	0f260h
                                 2556   
                                 2557   ;;	printf("\033[2K\rBH1721FVC> Ambient Light = %lu[lx]", (unsigned long)flSensorOut[0]);
                                 2558   CLINEA 0000H 0001H 03D4H 0002H 0056H
00:0056 12-90 00-00'             2559   	l	er0,	NEAR _flSensorOut
00:005A 6E-F0                    2560   	push	xr0
00:005C 01-F0'00-00'             2561   	bl	__ftolu8sw
00:0060 2E-F0                    2562   	pop	xr0
00:0062 6E-F0                    2563   	push	xr0
00:0064 00'00                    2564   	mov	r0,	#BYTE1 OFFSET $$S178
00:0066 00'01                    2565   	mov	r1,	#BYTE2 OFFSET $$S178
00:0068 5E-F0                    2566   	push	er0
00:006A 01-F0'00-00'             2567   	bl	_printf_n
00:006E 06 E1                    2568   	add	sp,	#6 
                                 2569   CBLOCKEND 204 2 981
                                 2570   
                                 2571   ;;}
                                 2572   CLINEA 0000H 0001H 03D5H 0001H 0001H
00:0070 8E-F2                    2573   	pop	pc
                                 2574   CBLOCKEND 204 1 981
                                 2575   CFUNCTIONEND 204
                                 2576   
                                 2577   
  --------------------------     2578   	rseg $$MainOp_Ambient_Light_Sensor_9$main
                                 2579   CFUNCTION 205
                                 2580   
00:0000                          2581   _MainOp_Ambient_Light_Sensor_9	:
                                 2582   CBLOCK 205 1 994
                                 2583   
                                 2584   ;;{
                                 2585   CLINEA 0000H 0001H 03E2H 0001H 0001H
00:0000 CE-F8                    2586   	push	lr
                                 2587   CBLOCK 205 2 994
                                 2588   CRET 0000H
                                 2589   
                                 2590   ;;	I2C_Read(BH17xxFVC_ADDR_2, NULL, 0, uniRawSensorOut._ucharArr, 2);
                                 2591   CLINEA 0000H 0001H 03E8H 0002H 0043H
00:0002 02 00                    2592   	mov	r0,	#02h
00:0004 4E-F0                    2593   	push	r0
00:0006 00'00                    2594   	mov	r0,	#BYTE1 OFFSET _uniRawSensorOut
00:0008 00'01                    2595   	mov	r1,	#BYTE2 OFFSET _uniRawSensorOut
00:000A 5E-F0                    2596   	push	er0
00:000C 00 00                    2597   	mov	r0,	#00h
00:000E 4E-F0                    2598   	push	r0
00:0010 00 E2                    2599   	mov	er2,	#0 
00:0012 29 00                    2600   	mov	r0,	#029h
00:0014 01-F0'00-00'             2601   	bl	_I2C_Read
00:0018 06 E1                    2602   	add	sp,	#6 
                                 2603   
                                 2604   ;;	flSensorOut[0] = uniRawSensorOut._uint;
                                 2605   CLINEA 0000H 0001H 03ECH 0002H 0028H
00:001A 12-90 00-00'             2606   	l	er0,	NEAR _uniRawSensorOut
00:001E 00 E2                    2607   	mov	er2,	#0 
00:0020 6E-F0                    2608   	push	xr0
00:0022 01-F0'00-00'             2609   	bl	__fuldu8sw
00:0026 2E-F0                    2610   	pop	xr0
00:0028 13-90 00-00'             2611   	st	er0,	NEAR _flSensorOut
00:002C 13-92 00-00'             2612   	st	er2,	NEAR _flSensorOut+02h
                                 2613   
                                 2614   ;;	LEDOUT = uniRawSensorOut._ucharArr[1];
                                 2615   CLINEA 0000H 0001H 03EEH 0002H 0027H
00:0030 10-90 00-00'             2616   	l	r0,	NEAR _uniRawSensorOut+01h
00:0034 11-90 60-F2              2617   	st	r0,	0f260h
                                 2618   
                                 2619   ;;	printf("\033[2K\rBH1780GLI> Ambient Light = %lu[lx]", (unsigned long)flSensorOut[0]);
                                 2620   CLINEA 0000H 0001H 03EFH 0002H 0056H
00:0038 12-90 00-00'             2621   	l	er0,	NEAR _flSensorOut
00:003C 6E-F0                    2622   	push	xr0
00:003E 01-F0'00-00'             2623   	bl	__ftolu8sw
00:0042 2E-F0                    2624   	pop	xr0
00:0044 6E-F0                    2625   	push	xr0
00:0046 00'00                    2626   	mov	r0,	#BYTE1 OFFSET $$S180
00:0048 00'01                    2627   	mov	r1,	#BYTE2 OFFSET $$S180
00:004A 5E-F0                    2628   	push	er0
00:004C 01-F0'00-00'             2629   	bl	_printf_n
00:0050 06 E1                    2630   	add	sp,	#6 
                                 2631   CBLOCKEND 205 2 1008
                                 2632   
                                 2633   ;;}
                                 2634   CLINEA 0000H 0001H 03F0H 0001H 0001H
00:0052 8E-F2                    2635   	pop	pc
                                 2636   CBLOCKEND 205 1 1008
                                 2637   CFUNCTIONEND 205
                                 2638   
                                 2639   
  --------------------------     2640   	rseg $$MainOp_UV_Sensor_10$main
                                 2641   CFUNCTION 206
                                 2642   
00:0000                          2643   _MainOp_UV_Sensor_10	:
                                 2644   CBLOCK 206 1 1021
                                 2645   
                                 2646   ;;{
                                 2647   CLINEA 0000H 0001H 03FDH 0001H 0001H
00:0000 CE-F8                    2648   	push	lr
                                 2649   CBLOCK 206 2 1021
                                 2650   CRET 0000H
                                 2651   
                                 2652   ;;	uniRawSensorOut._uint = ADC_Read(0);
                                 2653   CLINEA 0000H 0000H 03FEH 0002H 0025H
00:0002 00 00                    2654   	mov	r0,	#00h
00:0004 01-F0'00-00'             2655   	bl	_ADC_Read
00:0008 13-90 00-00'             2656   	st	er0,	NEAR _uniRawSensorOut
                                 2657   
                                 2658   ;;	flSensorOut[0] = uniRawSensorOut._uint*3.3f/1023;
                                 2659   CLINEA 0000H 0001H 0400H 0002H 0032H
00:000C 00 E2                    2660   	mov	er2,	#0 
00:000E 6E-F0                    2661   	push	xr0
00:0010 01-F0'00-00'             2662   	bl	__fuldu8sw
00:0014 33 00                    2663   	mov	r0,	#033h
00:0016 33 01                    2664   	mov	r1,	#033h
00:0018 53 02                    2665   	mov	r2,	#053h
00:001A 40 03                    2666   	mov	r3,	#040h
00:001C 6E-F0                    2667   	push	xr0
00:001E 01-F0'00-00'             2668   	bl	__fmulu8sw
00:0022 04 E1                    2669   	add	sp,	#4 
00:0024 00 00                    2670   	mov	r0,	#00h
00:0026 C0 01                    2671   	mov	r1,	#0c0h
00:0028 7F 02                    2672   	mov	r2,	#07fh
00:002A 44 03                    2673   	mov	r3,	#044h
00:002C 6E-F0                    2674   	push	xr0
00:002E 01-F0'00-00'             2675   	bl	__fdivu8sw
00:0032 04 E1                    2676   	add	sp,	#4 
00:0034 2E-F0                    2677   	pop	xr0
00:0036 13-90 00-00'             2678   	st	er0,	NEAR _flSensorOut
00:003A 13-92 00-00'             2679   	st	er2,	NEAR _flSensorOut+02h
                                 2680   
                                 2681   ;;	flSensorOut[1] = Voltage2UVIntensity(flSensorOut[0]);
                                 2682   CLINEA 0000H 0001H 0402H 0002H 0036H
00:003E 6E-F0                    2683   	push	xr0
00:0040 CD 00                    2684   	mov	r0,	#0cdh
00:0042 CC 01                    2685   	mov	r1,	#0cch
00:0044 0C 02                    2686   	mov	r2,	#0ch
00:0046 C0 03                    2687   	mov	r3,	#0c0h
00:0048 6E-F0                    2688   	push	xr0
00:004A 01-F0'00-00'             2689   	bl	__faddu8sw
00:004E 04 E1                    2690   	add	sp,	#4 
00:0050 93 00                    2691   	mov	r0,	#093h
00:0052 18 01                    2692   	mov	r1,	#018h
00:0054 04 02                    2693   	mov	r2,	#04h
00:0056 3E 03                    2694   	mov	r3,	#03eh
00:0058 6E-F0                    2695   	push	xr0
00:005A 01-F0'00-00'             2696   	bl	__fdivu8sw
00:005E 04 E1                    2697   	add	sp,	#4 
00:0060 00 E0                    2698   	mov	er0,	#0 
00:0062 20 02                    2699   	mov	r2,	#020h
00:0064 41 03                    2700   	mov	r3,	#041h
00:0066 6E-F0                    2701   	push	xr0
00:0068 01-F0'00-00'             2702   	bl	__faddu8sw
00:006C 04 E1                    2703   	add	sp,	#4 
00:006E 2E-F0                    2704   	pop	xr0
00:0070 13-90 00-00'             2705   	st	er0,	NEAR _flSensorOut+04h
00:0074 13-92 00-00'             2706   	st	er2,	NEAR _flSensorOut+06h
                                 2707   
                                 2708   ;;	LEDOUT = (unsigned char)(uniRawSensorOut._uint>>2);
                                 2709   CLINEA 0000H 0001H 0404H 0002H 0034H
00:0078 12-90 00-00'             2710   	l	er0,	NEAR _uniRawSensorOut
00:007C 2D-90                    2711   	srlc	r0,	#02h
00:007E 11-90 60-F2              2712   	st	r0,	0f260h
                                 2713   
                                 2714   ;;	printf("\033[2K\rML8511> UV Intensity = %.02f[mW/cm2]. Vsenout = %.02f[V]", flSensorOut[1], flSensorOut[0]);
                                 2715   CLINEA 0000H 0001H 0405H 0002H 006DH
00:0082 12-90 00-00'             2716   	l	er0,	NEAR _flSensorOut
00:0086 12-92 00-00'             2717   	l	er2,	NEAR _flSensorOut+02h
00:008A 6E-F0                    2718   	push	xr0
00:008C FC E1                    2719   	add	sp,	#-4
00:008E 01-F0'00-00'             2720   	bl	__ftodu8sw
00:0092 12-90 00-00'             2721   	l	er0,	NEAR _flSensorOut+04h
00:0096 12-92 00-00'             2722   	l	er2,	NEAR _flSensorOut+06h
00:009A 6E-F0                    2723   	push	xr0
00:009C FC E1                    2724   	add	sp,	#-4
00:009E 01-F0'00-00'             2725   	bl	__ftodu8sw
00:00A2 00'00                    2726   	mov	r0,	#BYTE1 OFFSET $$S182
00:00A4 00'01                    2727   	mov	r1,	#BYTE2 OFFSET $$S182
00:00A6 5E-F0                    2728   	push	er0
00:00A8 01-F0'00-00'             2729   	bl	_printf_n
00:00AC 12 E1                    2730   	add	sp,	#18
                                 2731   CBLOCKEND 206 2 1030
                                 2732   
                                 2733   ;;}
                                 2734   CLINEA 0000H 0001H 0406H 0001H 0001H
00:00AE 8E-F2                    2735   	pop	pc
                                 2736   CBLOCKEND 206 1 1030
                                 2737   CFUNCTIONEND 206
                                 2738   
                                 2739   
  --------------------------     2740   	rseg $$MainOp_KX022$main
                                 2741   CFUNCTION 207
                                 2742   
00:0000                          2743   _MainOp_KX022	:
                                 2744   CBLOCK 207 1 1043
                                 2745   
                                 2746   ;;{
                                 2747   CLINEA 0000H 0001H 0413H 0001H 0001H
00:0000 CE-F8                    2748   	push	lr
                                 2749   CBLOCK 207 2 1043
                                 2750   CRET 0000H
                                 2751   
                                 2752   ;;	I2C_Read(KX022_I2C_ADDR, KX022_XOUTL, 1, uniRawSensorOut._ucharArr, 6);
                                 2753   CLINEA 0000H 0001H 0418H 0002H 0048H
00:0002 06 00                    2754   	mov	r0,	#06h
00:0004 4E-F0                    2755   	push	r0
00:0006 00'00                    2756   	mov	r0,	#BYTE1 OFFSET _uniRawSensorOut
00:0008 00'01                    2757   	mov	r1,	#BYTE2 OFFSET _uniRawSensorOut
00:000A 5E-F0                    2758   	push	er0
00:000C 01 00                    2759   	mov	r0,	#01h
00:000E 4E-F0                    2760   	push	r0
00:0010 06 E2                    2761   	mov	er2,	#6 
00:0012 1E 00                    2762   	mov	r0,	#01eh
00:0014 01-F0'00-00'             2763   	bl	_I2C_Read
00:0018 06 E1                    2764   	add	sp,	#6 
                                 2765   
                                 2766   ;;	flSensorOut[0] = (float)uniRawSensorOut._intArr[0]/16384.0f;	// X
                                 2767   CLINEA 0000H 0001H 041BH 0002H 0042H
00:001A 12-90 00-00'             2768   	l	er0,	NEAR _uniRawSensorOut
00:001E 10-82                    2769   	mov	r2,	r1
00:0020 2F-83                    2770   	extbw	er2
00:0022 30-82                    2771   	mov	r2,	r3
00:0024 6E-F0                    2772   	push	xr0
00:0026 01-F0'00-00'             2773   	bl	__fildu8sw
00:002A 00 E0                    2774   	mov	er0,	#0 
00:002C 80 02                    2775   	mov	r2,	#080h
00:002E 46 03                    2776   	mov	r3,	#046h
00:0030 6E-F0                    2777   	push	xr0
00:0032 01-F0'00-00'             2778   	bl	__fdivu8sw
00:0036 04 E1                    2779   	add	sp,	#4 
00:0038 2E-F0                    2780   	pop	xr0
00:003A 13-90 00-00'             2781   	st	er0,	NEAR _flSensorOut
00:003E 13-92 00-00'             2782   	st	er2,	NEAR _flSensorOut+02h
                                 2783   
                                 2784   ;;	flSensorOut[1] = (float)uniRawSensorOut._intArr[1]/16384.0f;	// Y
                                 2785   CLINEA 0000H 0001H 041CH 0002H 0042H
00:0042 12-90 00-00'             2786   	l	er0,	NEAR _uniRawSensorOut+02h
00:0046 10-82                    2787   	mov	r2,	r1
00:0048 2F-83                    2788   	extbw	er2
00:004A 30-82                    2789   	mov	r2,	r3
00:004C 6E-F0                    2790   	push	xr0
00:004E 01-F0'00-00'             2791   	bl	__fildu8sw
00:0052 00 E0                    2792   	mov	er0,	#0 
00:0054 80 02                    2793   	mov	r2,	#080h
00:0056 46 03                    2794   	mov	r3,	#046h
00:0058 6E-F0                    2795   	push	xr0
00:005A 01-F0'00-00'             2796   	bl	__fdivu8sw
00:005E 04 E1                    2797   	add	sp,	#4 
00:0060 2E-F0                    2798   	pop	xr0
00:0062 13-90 00-00'             2799   	st	er0,	NEAR _flSensorOut+04h
00:0066 13-92 00-00'             2800   	st	er2,	NEAR _flSensorOut+06h
                                 2801   
                                 2802   ;;	flSensorOut[2] = (float)uniRawSensorOut._intArr[2]/16384.0f;	// Y
                                 2803   CLINEA 0000H 0001H 041DH 0002H 0042H
00:006A 12-90 00-00'             2804   	l	er0,	NEAR _uniRawSensorOut+04h
00:006E 10-82                    2805   	mov	r2,	r1
00:0070 2F-83                    2806   	extbw	er2
00:0072 30-82                    2807   	mov	r2,	r3
00:0074 6E-F0                    2808   	push	xr0
00:0076 01-F0'00-00'             2809   	bl	__fildu8sw
00:007A 00 E0                    2810   	mov	er0,	#0 
00:007C 80 02                    2811   	mov	r2,	#080h
00:007E 46 03                    2812   	mov	r3,	#046h
00:0080 6E-F0                    2813   	push	xr0
00:0082 01-F0'00-00'             2814   	bl	__fdivu8sw
00:0086 04 E1                    2815   	add	sp,	#4 
00:0088 2E-F0                    2816   	pop	xr0
00:008A 13-90 00-00'             2817   	st	er0,	NEAR _flSensorOut+08h
00:008E 13-92 00-00'             2818   	st	er2,	NEAR _flSensorOut+0ah
                                 2819   
                                 2820   ;;		uniRawSensorOut._intArr[0], flSensorOut[0], uniRawSensorOut._intArr[1], flSensorOut[1], uniRawSensorOut._intArr[2], flSensorOut[2]);
                                 2821   CLINEA 0000H 0001H 0420H 0003H 0086H
00:0092 6E-F0                    2822   	push	xr0
00:0094 FC E1                    2823   	add	sp,	#-4
00:0096 01-F0'00-00'             2824   	bl	__ftodu8sw
00:009A 12-90 00-00'             2825   	l	er0,	NEAR _uniRawSensorOut+04h
00:009E 5E-F0                    2826   	push	er0
00:00A0 12-90 00-00'             2827   	l	er0,	NEAR _flSensorOut+04h
00:00A4 12-92 00-00'             2828   	l	er2,	NEAR _flSensorOut+06h
00:00A8 6E-F0                    2829   	push	xr0
00:00AA FC E1                    2830   	add	sp,	#-4
00:00AC 01-F0'00-00'             2831   	bl	__ftodu8sw
00:00B0 12-90 00-00'             2832   	l	er0,	NEAR _uniRawSensorOut+02h
00:00B4 5E-F0                    2833   	push	er0
00:00B6 12-90 00-00'             2834   	l	er0,	NEAR _flSensorOut
00:00BA 12-92 00-00'             2835   	l	er2,	NEAR _flSensorOut+02h
00:00BE 6E-F0                    2836   	push	xr0
00:00C0 FC E1                    2837   	add	sp,	#-4
00:00C2 01-F0'00-00'             2838   	bl	__ftodu8sw
00:00C6 12-90 00-00'             2839   	l	er0,	NEAR _uniRawSensorOut
00:00CA 5E-F0                    2840   	push	er0
00:00CC 00'00                    2841   	mov	r0,	#BYTE1 OFFSET $$S184
00:00CE 00'01                    2842   	mov	r1,	#BYTE2 OFFSET $$S184
00:00D0 5E-F0                    2843   	push	er0
00:00D2 01-F0'00-00'             2844   	bl	_printf_n
00:00D6 20 E1                    2845   	add	sp,	#32
                                 2846   CBLOCKEND 207 2 1057
                                 2847   
                                 2848   ;;}
                                 2849   CLINEA 0000H 0001H 0421H 0001H 0001H
00:00D8 8E-F2                    2850   	pop	pc
                                 2851   CBLOCKEND 207 1 1057
                                 2852   CFUNCTIONEND 207
                                 2853   
                                 2854   
  --------------------------     2855   	rseg $$MainOp_KMX61$main
                                 2856   CFUNCTION 208
                                 2857   
00:0000                          2858   _MainOp_KMX61	:
                                 2859   CBLOCK 208 1 1070
                                 2860   
                                 2861   ;;{ 
                                 2862   CLINEA 0000H 0001H 042EH 0001H 0002H
00:0000 CE-F8                    2863   	push	lr
                                 2864   CBLOCK 208 2 1070
                                 2865   CRET 0000H
                                 2866   
                                 2867   ;;	I2C_Read(KMX61_I2C_ADDR, KMX61_ACCEL_XOUT_L, 1, uniRawSensorOut._ucharArr, 6);
                                 2868   CLINEA 0000H 0001H 0430H 0002H 004FH
00:0002 06 00                    2869   	mov	r0,	#06h
00:0004 4E-F0                    2870   	push	r0
00:0006 00'00                    2871   	mov	r0,	#BYTE1 OFFSET _uniRawSensorOut
00:0008 00'01                    2872   	mov	r1,	#BYTE2 OFFSET _uniRawSensorOut
00:000A 5E-F0                    2873   	push	er0
00:000C 01 00                    2874   	mov	r0,	#01h
00:000E 4E-F0                    2875   	push	r0
00:0010 0A E2                    2876   	mov	er2,	#10
00:0012 0E 00                    2877   	mov	r0,	#0eh
00:0014 01-F0'00-00'             2878   	bl	_I2C_Read
00:0018 06 E1                    2879   	add	sp,	#6 
                                 2880   
                                 2881   ;;	flSensorOut[0] = (float)uniRawSensorOut._intArr[0]/256.0f;	// X
                                 2882   CLINEA 0000H 0001H 0432H 0002H 0040H
00:001A 12-90 00-00'             2883   	l	er0,	NEAR _uniRawSensorOut
00:001E 10-82                    2884   	mov	r2,	r1
00:0020 2F-83                    2885   	extbw	er2
00:0022 30-82                    2886   	mov	r2,	r3
00:0024 6E-F0                    2887   	push	xr0
00:0026 01-F0'00-00'             2888   	bl	__fildu8sw
00:002A 00 E0                    2889   	mov	er0,	#0 
00:002C 80 02                    2890   	mov	r2,	#080h
00:002E 43 03                    2891   	mov	r3,	#043h
00:0030 6E-F0                    2892   	push	xr0
00:0032 01-F0'00-00'             2893   	bl	__fdivu8sw
00:0036 04 E1                    2894   	add	sp,	#4 
00:0038 2E-F0                    2895   	pop	xr0
00:003A 13-90 00-00'             2896   	st	er0,	NEAR _flSensorOut
00:003E 13-92 00-00'             2897   	st	er2,	NEAR _flSensorOut+02h
                                 2898   
                                 2899   ;;	flSensorOut[1] = (float)uniRawSensorOut._intArr[1]/256.0f;	// Y
                                 2900   CLINEA 0000H 0001H 0433H 0002H 0040H
00:0042 12-90 00-00'             2901   	l	er0,	NEAR _uniRawSensorOut+02h
00:0046 10-82                    2902   	mov	r2,	r1
00:0048 2F-83                    2903   	extbw	er2
00:004A 30-82                    2904   	mov	r2,	r3
00:004C 6E-F0                    2905   	push	xr0
00:004E 01-F0'00-00'             2906   	bl	__fildu8sw
00:0052 00 E0                    2907   	mov	er0,	#0 
00:0054 80 02                    2908   	mov	r2,	#080h
00:0056 43 03                    2909   	mov	r3,	#043h
00:0058 6E-F0                    2910   	push	xr0
00:005A 01-F0'00-00'             2911   	bl	__fdivu8sw
00:005E 04 E1                    2912   	add	sp,	#4 
00:0060 2E-F0                    2913   	pop	xr0
00:0062 13-90 00-00'             2914   	st	er0,	NEAR _flSensorOut+04h
00:0066 13-92 00-00'             2915   	st	er2,	NEAR _flSensorOut+06h
                                 2916   
                                 2917   ;;	flSensorOut[2] = (float)uniRawSensorOut._intArr[2]/256.0f;	// Y
                                 2918   CLINEA 0000H 0001H 0434H 0002H 0040H
00:006A 12-90 00-00'             2919   	l	er0,	NEAR _uniRawSensorOut+04h
00:006E 10-82                    2920   	mov	r2,	r1
00:0070 2F-83                    2921   	extbw	er2
00:0072 30-82                    2922   	mov	r2,	r3
00:0074 6E-F0                    2923   	push	xr0
00:0076 01-F0'00-00'             2924   	bl	__fildu8sw
00:007A 00 E0                    2925   	mov	er0,	#0 
00:007C 80 02                    2926   	mov	r2,	#080h
00:007E 43 03                    2927   	mov	r3,	#043h
00:0080 6E-F0                    2928   	push	xr0
00:0082 01-F0'00-00'             2929   	bl	__fdivu8sw
00:0086 04 E1                    2930   	add	sp,	#4 
00:0088 2E-F0                    2931   	pop	xr0
00:008A 13-90 00-00'             2932   	st	er0,	NEAR _flSensorOut+08h
00:008E 13-92 00-00'             2933   	st	er2,	NEAR _flSensorOut+0ah
                                 2934   
                                 2935   ;;		uniRawSensorOut._intArr[0], flSensorOut[0], uniRawSensorOut._intArr[1], flSensorOut[1], uniRawSensorOut._intArr[2], flSensorOut[2]);
                                 2936   CLINEA 0000H 0001H 0437H 0003H 0086H
00:0092 6E-F0                    2937   	push	xr0
00:0094 FC E1                    2938   	add	sp,	#-4
00:0096 01-F0'00-00'             2939   	bl	__ftodu8sw
00:009A 12-90 00-00'             2940   	l	er0,	NEAR _uniRawSensorOut+04h
00:009E 5E-F0                    2941   	push	er0
00:00A0 12-90 00-00'             2942   	l	er0,	NEAR _flSensorOut+04h
00:00A4 12-92 00-00'             2943   	l	er2,	NEAR _flSensorOut+06h
00:00A8 6E-F0                    2944   	push	xr0
00:00AA FC E1                    2945   	add	sp,	#-4
00:00AC 01-F0'00-00'             2946   	bl	__ftodu8sw
00:00B0 12-90 00-00'             2947   	l	er0,	NEAR _uniRawSensorOut+02h
00:00B4 5E-F0                    2948   	push	er0
00:00B6 12-90 00-00'             2949   	l	er0,	NEAR _flSensorOut
00:00BA 12-92 00-00'             2950   	l	er2,	NEAR _flSensorOut+02h
00:00BE 6E-F0                    2951   	push	xr0
00:00C0 FC E1                    2952   	add	sp,	#-4
00:00C2 01-F0'00-00'             2953   	bl	__ftodu8sw
00:00C6 12-90 00-00'             2954   	l	er0,	NEAR _uniRawSensorOut
00:00CA 5E-F0                    2955   	push	er0
00:00CC 00'00                    2956   	mov	r0,	#BYTE1 OFFSET $$S186
00:00CE 00'01                    2957   	mov	r1,	#BYTE2 OFFSET $$S186
00:00D0 5E-F0                    2958   	push	er0
00:00D2 01-F0'00-00'             2959   	bl	_printf_n
00:00D6 20 E1                    2960   	add	sp,	#32
                                 2961   
                                 2962   ;;	I2C_Read(KMX61_I2C_ADDR, KMX61_MAG_XOUT_L, 1, uniRawSensorOut._ucharArr, 6);
                                 2963   CLINEA 0000H 0001H 043AH 0002H 004DH
00:00D8 06 00                    2964   	mov	r0,	#06h
00:00DA 4E-F0                    2965   	push	r0
00:00DC 00'00                    2966   	mov	r0,	#BYTE1 OFFSET _uniRawSensorOut
00:00DE 00'01                    2967   	mov	r1,	#BYTE2 OFFSET _uniRawSensorOut
00:00E0 5E-F0                    2968   	push	er0
00:00E2 01 00                    2969   	mov	r0,	#01h
00:00E4 4E-F0                    2970   	push	r0
00:00E6 12 E2                    2971   	mov	er2,	#18
00:00E8 0E 00                    2972   	mov	r0,	#0eh
00:00EA 01-F0'00-00'             2973   	bl	_I2C_Read
00:00EE 06 E1                    2974   	add	sp,	#6 
                                 2975   
                                 2976   ;;	flSensorOut[0] = (float)uniRawSensorOut._intArr[0]*0.146f;	// X
                                 2977   CLINEA 0000H 0001H 043CH 0002H 0040H
00:00F0 12-90 00-00'             2978   	l	er0,	NEAR _uniRawSensorOut
00:00F4 10-82                    2979   	mov	r2,	r1
00:00F6 2F-83                    2980   	extbw	er2
00:00F8 30-82                    2981   	mov	r2,	r3
00:00FA 6E-F0                    2982   	push	xr0
00:00FC 01-F0'00-00'             2983   	bl	__fildu8sw
00:0100 06 00                    2984   	mov	r0,	#06h
00:0102 81 01                    2985   	mov	r1,	#081h
00:0104 15 02                    2986   	mov	r2,	#015h
00:0106 3E 03                    2987   	mov	r3,	#03eh
00:0108 6E-F0                    2988   	push	xr0
00:010A 01-F0'00-00'             2989   	bl	__fmulu8sw
00:010E 04 E1                    2990   	add	sp,	#4 
00:0110 2E-F0                    2991   	pop	xr0
00:0112 13-90 00-00'             2992   	st	er0,	NEAR _flSensorOut
00:0116 13-92 00-00'             2993   	st	er2,	NEAR _flSensorOut+02h
                                 2994   
                                 2995   ;;	flSensorOut[1] = (float)uniRawSensorOut._intArr[1]*0.146f;	// Y
                                 2996   CLINEA 0000H 0001H 043DH 0002H 0040H
00:011A 12-90 00-00'             2997   	l	er0,	NEAR _uniRawSensorOut+02h
00:011E 10-82                    2998   	mov	r2,	r1
00:0120 2F-83                    2999   	extbw	er2
00:0122 30-82                    3000   	mov	r2,	r3
00:0124 6E-F0                    3001   	push	xr0
00:0126 01-F0'00-00'             3002   	bl	__fildu8sw
00:012A 06 00                    3003   	mov	r0,	#06h
00:012C 81 01                    3004   	mov	r1,	#081h
00:012E 15 02                    3005   	mov	r2,	#015h
00:0130 3E 03                    3006   	mov	r3,	#03eh
00:0132 6E-F0                    3007   	push	xr0
00:0134 01-F0'00-00'             3008   	bl	__fmulu8sw
00:0138 04 E1                    3009   	add	sp,	#4 
00:013A 2E-F0                    3010   	pop	xr0
00:013C 13-90 00-00'             3011   	st	er0,	NEAR _flSensorOut+04h
00:0140 13-92 00-00'             3012   	st	er2,	NEAR _flSensorOut+06h
                                 3013   
                                 3014   ;;	flSensorOut[2] = (float)uniRawSensorOut._intArr[2]*0.146f;	// Y
                                 3015   CLINEA 0000H 0001H 043EH 0002H 0040H
00:0144 12-90 00-00'             3016   	l	er0,	NEAR _uniRawSensorOut+04h
00:0148 10-82                    3017   	mov	r2,	r1
00:014A 2F-83                    3018   	extbw	er2
00:014C 30-82                    3019   	mov	r2,	r3
00:014E 6E-F0                    3020   	push	xr0
00:0150 01-F0'00-00'             3021   	bl	__fildu8sw
00:0154 06 00                    3022   	mov	r0,	#06h
00:0156 81 01                    3023   	mov	r1,	#081h
00:0158 15 02                    3024   	mov	r2,	#015h
00:015A 3E 03                    3025   	mov	r3,	#03eh
00:015C 6E-F0                    3026   	push	xr0
00:015E 01-F0'00-00'             3027   	bl	__fmulu8sw
00:0162 04 E1                    3028   	add	sp,	#4 
00:0164 2E-F0                    3029   	pop	xr0
00:0166 13-90 00-00'             3030   	st	er0,	NEAR _flSensorOut+08h
00:016A 13-92 00-00'             3031   	st	er2,	NEAR _flSensorOut+0ah
                                 3032   
                                 3033   ;;		uniRawSensorOut._intArr[0], flSensorOut[0], uniRawSensorOut._intArr[1], flSensorOut[1], uniRawSensorOut._intArr[2], flSensorOut[2]);
                                 3034   CLINEA 0000H 0001H 0440H 0003H 0086H
00:016E 6E-F0                    3035   	push	xr0
00:0170 FC E1                    3036   	add	sp,	#-4
00:0172 01-F0'00-00'             3037   	bl	__ftodu8sw
00:0176 12-90 00-00'             3038   	l	er0,	NEAR _uniRawSensorOut+04h
00:017A 5E-F0                    3039   	push	er0
00:017C 12-90 00-00'             3040   	l	er0,	NEAR _flSensorOut+04h
00:0180 12-92 00-00'             3041   	l	er2,	NEAR _flSensorOut+06h
00:0184 6E-F0                    3042   	push	xr0
00:0186 FC E1                    3043   	add	sp,	#-4
00:0188 01-F0'00-00'             3044   	bl	__ftodu8sw
00:018C 12-90 00-00'             3045   	l	er0,	NEAR _uniRawSensorOut+02h
00:0190 5E-F0                    3046   	push	er0
00:0192 12-90 00-00'             3047   	l	er0,	NEAR _flSensorOut
00:0196 12-92 00-00'             3048   	l	er2,	NEAR _flSensorOut+02h
00:019A 6E-F0                    3049   	push	xr0
00:019C FC E1                    3050   	add	sp,	#-4
00:019E 01-F0'00-00'             3051   	bl	__ftodu8sw
00:01A2 12-90 00-00'             3052   	l	er0,	NEAR _uniRawSensorOut
00:01A6 5E-F0                    3053   	push	er0
00:01A8 00'00                    3054   	mov	r0,	#BYTE1 OFFSET $$S187
00:01AA 00'01                    3055   	mov	r1,	#BYTE2 OFFSET $$S187
00:01AC 5E-F0                    3056   	push	er0
00:01AE 01-F0'00-00'             3057   	bl	_printf_n
00:01B2 20 E1                    3058   	add	sp,	#32
                                 3059   CBLOCKEND 208 2 1089
                                 3060   
                                 3061   ;;}
                                 3062   CLINEA 0000H 0001H 0441H 0001H 0001H
00:01B4 8E-F2                    3063   	pop	pc
                                 3064   CBLOCKEND 208 1 1089
                                 3065   CFUNCTIONEND 208
                                 3066   
                                 3067   
  --------------------------     3068   	rseg $$MainOp_Temperature_Sensor_20$main
                                 3069   CFUNCTION 209
                                 3070   
00:0000                          3071   _MainOp_Temperature_Sensor_20	:
                                 3072   CBLOCK 209 1 1102
                                 3073   
                                 3074   ;;{
                                 3075   CLINEA 0000H 0001H 044EH 0001H 0001H
00:0000 CE-F8                    3076   	push	lr
                                 3077   CBLOCK 209 2 1102
                                 3078   CRET 0000H
                                 3079   
                                 3080   ;;	uniRawSensorOut._uint = ADC_Read(0);
                                 3081   CLINEA 0000H 0000H 044FH 0002H 0025H
00:0002 00 00                    3082   	mov	r0,	#00h
00:0004 01-F0'00-00'             3083   	bl	_ADC_Read
00:0008 13-90 00-00'             3084   	st	er0,	NEAR _uniRawSensorOut
                                 3085   
                                 3086   ;;	flSensorOut[0] = uniRawSensorOut._uint*3.3f/1023;
                                 3087   CLINEA 0000H 0001H 0451H 0002H 0032H
00:000C 00 E2                    3088   	mov	er2,	#0 
00:000E 6E-F0                    3089   	push	xr0
00:0010 01-F0'00-00'             3090   	bl	__fuldu8sw
00:0014 33 00                    3091   	mov	r0,	#033h
00:0016 33 01                    3092   	mov	r1,	#033h
00:0018 53 02                    3093   	mov	r2,	#053h
00:001A 40 03                    3094   	mov	r3,	#040h
00:001C 6E-F0                    3095   	push	xr0
00:001E 01-F0'00-00'             3096   	bl	__fmulu8sw
00:0022 04 E1                    3097   	add	sp,	#4 
00:0024 00 00                    3098   	mov	r0,	#00h
00:0026 C0 01                    3099   	mov	r1,	#0c0h
00:0028 7F 02                    3100   	mov	r2,	#07fh
00:002A 44 03                    3101   	mov	r3,	#044h
00:002C 6E-F0                    3102   	push	xr0
00:002E 01-F0'00-00'             3103   	bl	__fdivu8sw
00:0032 04 E1                    3104   	add	sp,	#4 
00:0034 2E-F0                    3105   	pop	xr0
00:0036 13-90 00-00'             3106   	st	er0,	NEAR _flSensorOut
00:003A 13-92 00-00'             3107   	st	er2,	NEAR _flSensorOut+02h
                                 3108   
                                 3109   ;;	flSensorOut[1] = Voltage2Temperature(flSensorOut[0], 1.3f, 30.0f, -0.0082f);
                                 3110   CLINEA 0000H 0001H 0453H 0002H 004DH
00:003E 6E-F0                    3111   	push	xr0
00:0040 66 00                    3112   	mov	r0,	#066h
00:0042 66 01                    3113   	mov	r1,	#066h
00:0044 A6 02                    3114   	mov	r2,	#0a6h
00:0046 BF 03                    3115   	mov	r3,	#0bfh
00:0048 6E-F0                    3116   	push	xr0
00:004A 01-F0'00-00'             3117   	bl	__faddu8sw
00:004E 04 E1                    3118   	add	sp,	#4 
00:0050 4B 00                    3119   	mov	r0,	#04bh
00:0052 59 01                    3120   	mov	r1,	#059h
00:0054 06 02                    3121   	mov	r2,	#06h
00:0056 BC 03                    3122   	mov	r3,	#0bch
00:0058 6E-F0                    3123   	push	xr0
00:005A 01-F0'00-00'             3124   	bl	__fdivu8sw
00:005E 04 E1                    3125   	add	sp,	#4 
00:0060 00 E0                    3126   	mov	er0,	#0 
00:0062 F0 02                    3127   	mov	r2,	#0f0h
00:0064 41 03                    3128   	mov	r3,	#041h
00:0066 6E-F0                    3129   	push	xr0
00:0068 01-F0'00-00'             3130   	bl	__faddu8sw
00:006C 04 E1                    3131   	add	sp,	#4 
00:006E 2E-F0                    3132   	pop	xr0
00:0070 13-90 00-00'             3133   	st	er0,	NEAR _flSensorOut+04h
00:0074 13-92 00-00'             3134   	st	er2,	NEAR _flSensorOut+06h
                                 3135   
                                 3136   ;;	LEDOUT = (unsigned char)(uniRawSensorOut._uint>>2);
                                 3137   CLINEA 0000H 0001H 0455H 0002H 0034H
00:0078 12-90 00-00'             3138   	l	er0,	NEAR _uniRawSensorOut
00:007C 2D-90                    3139   	srlc	r0,	#02h
00:007E 11-90 60-F2              3140   	st	r0,	0f260h
                                 3141   
                                 3142   ;;	printf("\033[2K\rBD1020HFV> Temperature = %.02f[C]. Vsenout = %.02f[V]", flSensorOut[1], flSensorOut[0]);
                                 3143   CLINEA 0000H 0001H 0456H 0002H 006CH
00:0082 12-90 00-00'             3144   	l	er0,	NEAR _flSensorOut
00:0086 12-92 00-00'             3145   	l	er2,	NEAR _flSensorOut+02h
00:008A 6E-F0                    3146   	push	xr0
00:008C FC E1                    3147   	add	sp,	#-4
00:008E 01-F0'00-00'             3148   	bl	__ftodu8sw
00:0092 12-90 00-00'             3149   	l	er0,	NEAR _flSensorOut+04h
00:0096 12-92 00-00'             3150   	l	er2,	NEAR _flSensorOut+06h
00:009A 6E-F0                    3151   	push	xr0
00:009C FC E1                    3152   	add	sp,	#-4
00:009E 01-F0'00-00'             3153   	bl	__ftodu8sw
00:00A2 00'00                    3154   	mov	r0,	#BYTE1 OFFSET $$S189
00:00A4 00'01                    3155   	mov	r1,	#BYTE2 OFFSET $$S189
00:00A6 5E-F0                    3156   	push	er0
00:00A8 01-F0'00-00'             3157   	bl	_printf_n
00:00AC 12 E1                    3158   	add	sp,	#18
                                 3159   CBLOCKEND 209 2 1111
                                 3160   
                                 3161   ;;}
                                 3162   CLINEA 0000H 0001H 0457H 0001H 0001H
00:00AE 8E-F2                    3163   	pop	pc
                                 3164   CBLOCKEND 209 1 1111
                                 3165   CFUNCTIONEND 209
                                 3166   
                                 3167   
  --------------------------     3168   	rseg $$MainOp_Temperature_Sensor_21$main
                                 3169   CFUNCTION 210
                                 3170   
00:0000                          3171   _MainOp_Temperature_Sensor_21	:
                                 3172   CBLOCK 210 1 1124
                                 3173   
                                 3174   ;;{
                                 3175   CLINEA 0000H 0001H 0464H 0001H 0001H
00:0000 CE-F8                    3176   	push	lr
                                 3177   CBLOCK 210 2 1124
                                 3178   CRET 0000H
                                 3179   
                                 3180   ;;	uniRawSensorOut._uint = ADC_Read(0);
                                 3181   CLINEA 0000H 0000H 0465H 0002H 0025H
00:0002 00 00                    3182   	mov	r0,	#00h
00:0004 01-F0'00-00'             3183   	bl	_ADC_Read
00:0008 13-90 00-00'             3184   	st	er0,	NEAR _uniRawSensorOut
                                 3185   
                                 3186   ;;	flSensorOut[0] = uniRawSensorOut._uint*3.3f/1023;
                                 3187   CLINEA 0000H 0001H 0467H 0002H 0032H
00:000C 00 E2                    3188   	mov	er2,	#0 
00:000E 6E-F0                    3189   	push	xr0
00:0010 01-F0'00-00'             3190   	bl	__fuldu8sw
00:0014 33 00                    3191   	mov	r0,	#033h
00:0016 33 01                    3192   	mov	r1,	#033h
00:0018 53 02                    3193   	mov	r2,	#053h
00:001A 40 03                    3194   	mov	r3,	#040h
00:001C 6E-F0                    3195   	push	xr0
00:001E 01-F0'00-00'             3196   	bl	__fmulu8sw
00:0022 04 E1                    3197   	add	sp,	#4 
00:0024 00 00                    3198   	mov	r0,	#00h
00:0026 C0 01                    3199   	mov	r1,	#0c0h
00:0028 7F 02                    3200   	mov	r2,	#07fh
00:002A 44 03                    3201   	mov	r3,	#044h
00:002C 6E-F0                    3202   	push	xr0
00:002E 01-F0'00-00'             3203   	bl	__fdivu8sw
00:0032 04 E1                    3204   	add	sp,	#4 
00:0034 2E-F0                    3205   	pop	xr0
00:0036 13-90 00-00'             3206   	st	er0,	NEAR _flSensorOut
00:003A 13-92 00-00'             3207   	st	er2,	NEAR _flSensorOut+02h
                                 3208   
                                 3209   ;;	flSensorOut[1] = Voltage2Temperature(flSensorOut[0], 1.3f, 30.0f, -0.0082f);
                                 3210   CLINEA 0000H 0001H 0469H 0002H 004DH
00:003E 6E-F0                    3211   	push	xr0
00:0040 66 00                    3212   	mov	r0,	#066h
00:0042 66 01                    3213   	mov	r1,	#066h
00:0044 A6 02                    3214   	mov	r2,	#0a6h
00:0046 BF 03                    3215   	mov	r3,	#0bfh
00:0048 6E-F0                    3216   	push	xr0
00:004A 01-F0'00-00'             3217   	bl	__faddu8sw
00:004E 04 E1                    3218   	add	sp,	#4 
00:0050 4B 00                    3219   	mov	r0,	#04bh
00:0052 59 01                    3220   	mov	r1,	#059h
00:0054 06 02                    3221   	mov	r2,	#06h
00:0056 BC 03                    3222   	mov	r3,	#0bch
00:0058 6E-F0                    3223   	push	xr0
00:005A 01-F0'00-00'             3224   	bl	__fdivu8sw
00:005E 04 E1                    3225   	add	sp,	#4 
00:0060 00 E0                    3226   	mov	er0,	#0 
00:0062 F0 02                    3227   	mov	r2,	#0f0h
00:0064 41 03                    3228   	mov	r3,	#041h
00:0066 6E-F0                    3229   	push	xr0
00:0068 01-F0'00-00'             3230   	bl	__faddu8sw
00:006C 04 E1                    3231   	add	sp,	#4 
00:006E 2E-F0                    3232   	pop	xr0
00:0070 13-90 00-00'             3233   	st	er0,	NEAR _flSensorOut+04h
00:0074 13-92 00-00'             3234   	st	er2,	NEAR _flSensorOut+06h
                                 3235   
                                 3236   ;;	LEDOUT = (unsigned char)(uniRawSensorOut._uint>>3);
                                 3237   CLINEA 0000H 0001H 046BH 0002H 0034H
00:0078 12-90 00-00'             3238   	l	er0,	NEAR _uniRawSensorOut
00:007C 3D-90                    3239   	srlc	r0,	#03h
00:007E 11-90 60-F2              3240   	st	r0,	0f260h
                                 3241   
                                 3242   ;;	printf("\033[1F\033[2K\rBDJ0601HFV> Temperature = %.02f[C]. Vsenout = %.02f[V]", flSensorOut[1], flSensorOut[0]);
                                 3243   CLINEA 0000H 0001H 046CH 0002H 0074H
00:0082 12-90 00-00'             3244   	l	er0,	NEAR _flSensorOut
00:0086 12-92 00-00'             3245   	l	er2,	NEAR _flSensorOut+02h
00:008A 6E-F0                    3246   	push	xr0
00:008C FC E1                    3247   	add	sp,	#-4
00:008E 01-F0'00-00'             3248   	bl	__ftodu8sw
00:0092 12-90 00-00'             3249   	l	er0,	NEAR _flSensorOut+04h
00:0096 12-92 00-00'             3250   	l	er2,	NEAR _flSensorOut+06h
00:009A 6E-F0                    3251   	push	xr0
00:009C FC E1                    3252   	add	sp,	#-4
00:009E 01-F0'00-00'             3253   	bl	__ftodu8sw
00:00A2 00'00                    3254   	mov	r0,	#BYTE1 OFFSET $$S191
00:00A4 00'01                    3255   	mov	r1,	#BYTE2 OFFSET $$S191
00:00A6 5E-F0                    3256   	push	er0
00:00A8 01-F0'00-00'             3257   	bl	_printf_n
00:00AC 12 E1                    3258   	add	sp,	#18
                                 3259   
                                 3260   ;;	if(SENINTF_HDR1_GPIO0(D)==1)
                                 3261   CLINEA 0000H 0001H 046DH 0002H 001DH
00:00AE A1-A0 58-F2              3262   	tb	0f258h.2
00:00B2 08 C9                    3263   	beq	_$L192
                                 3264   
                                 3265   ;;		PRINTF("\n\033[2K\rBDJ0601HFV> Temperature Threshold Reached.");
                                 3266   CLINEA 0000H 0001H 046EH 0003H 0042H
00:00B4 31 E0                    3267   	mov	er0,	#49
00:00B6 5E-F0                    3268   	push	er0
00:00B8 00'02                    3269   	mov	r2,	#BYTE1 OFFSET $$S194
00:00BA 00'03                    3270   	mov	r3,	#BYTE2 OFFSET $$S194
00:00BC 00 E0                    3271   	mov	er0,	#0 
00:00BE 01-F0'00-00'             3272   	bl	_write
                                 3273   
                                 3274   ;;	else
                                 3275   CLINEA 0000H 0001H 046FH 0002H 0005H
00:00C2 07 CE                    3276   	bal	_$L195
00:00C4                          3277   _$L192 :
                                 3278   
                                 3279   ;;		PRINTF("\n\033[2K\rBDJ0601HFV> Temperature Threshold Not Reached.");
                                 3280   CLINEA 0000H 0001H 0470H 0003H 0046H
00:00C4 35 E0                    3281   	mov	er0,	#53
00:00C6 5E-F0                    3282   	push	er0
00:00C8 00'02                    3283   	mov	r2,	#BYTE1 OFFSET $$S196
00:00CA 00'03                    3284   	mov	r3,	#BYTE2 OFFSET $$S196
00:00CC 00 E0                    3285   	mov	er0,	#0 
00:00CE 01-F0'00-00'             3286   	bl	_write
00:00D2                          3287   _$L195 :
00:00D2 02 E1                    3288   	add	sp,	#2 
                                 3289   CBLOCKEND 210 2 1137
                                 3290   
                                 3291   ;;}
                                 3292   CLINEA 0000H 0001H 0471H 0001H 0001H
00:00D4 8E-F2                    3293   	pop	pc
                                 3294   CBLOCKEND 210 1 1137
                                 3295   CFUNCTIONEND 210
                                 3296   
                                 3297   
  --------------------------     3298   	rseg $$MainOp_Temperature_Sensor_22$main
                                 3299   CFUNCTION 211
                                 3300   
00:0000                          3301   _MainOp_Temperature_Sensor_22	:
                                 3302   CBLOCK 211 1 1150
                                 3303   
                                 3304   ;;{
                                 3305   CLINEA 0000H 0001H 047EH 0001H 0001H
00:0000 CE-F8                    3306   	push	lr
                                 3307   CBLOCK 211 2 1150
                                 3308   CRET 0000H
                                 3309   
                                 3310   ;;	uniRawSensorOut._uint = ADC_Read(0);
                                 3311   CLINEA 0000H 0000H 047FH 0002H 0025H
00:0002 00 00                    3312   	mov	r0,	#00h
00:0004 01-F0'00-00'             3313   	bl	_ADC_Read
00:0008 13-90 00-00'             3314   	st	er0,	NEAR _uniRawSensorOut
                                 3315   
                                 3316   ;;	flSensorOut[0] = uniRawSensorOut._uint*3.3f/1023;
                                 3317   CLINEA 0000H 0001H 0481H 0002H 0032H
00:000C 00 E2                    3318   	mov	er2,	#0 
00:000E 6E-F0                    3319   	push	xr0
00:0010 01-F0'00-00'             3320   	bl	__fuldu8sw
00:0014 33 00                    3321   	mov	r0,	#033h
00:0016 33 01                    3322   	mov	r1,	#033h
00:0018 53 02                    3323   	mov	r2,	#053h
00:001A 40 03                    3324   	mov	r3,	#040h
00:001C 6E-F0                    3325   	push	xr0
00:001E 01-F0'00-00'             3326   	bl	__fmulu8sw
00:0022 04 E1                    3327   	add	sp,	#4 
00:0024 00 00                    3328   	mov	r0,	#00h
00:0026 C0 01                    3329   	mov	r1,	#0c0h
00:0028 7F 02                    3330   	mov	r2,	#07fh
00:002A 44 03                    3331   	mov	r3,	#044h
00:002C 6E-F0                    3332   	push	xr0
00:002E 01-F0'00-00'             3333   	bl	__fdivu8sw
00:0032 04 E1                    3334   	add	sp,	#4 
00:0034 2E-F0                    3335   	pop	xr0
00:0036 13-90 00-00'             3336   	st	er0,	NEAR _flSensorOut
00:003A 13-92 00-00'             3337   	st	er2,	NEAR _flSensorOut+02h
                                 3338   
                                 3339   ;;	flSensorOut[1] = Voltage2Temperature(flSensorOut[0], 1.753f, 30.0f, -0.01068f);
                                 3340   CLINEA 0000H 0001H 0483H 0002H 0050H
00:003E 6E-F0                    3341   	push	xr0
00:0040 4E 00                    3342   	mov	r0,	#04eh
00:0042 62 01                    3343   	mov	r1,	#062h
00:0044 E0 02                    3344   	mov	r2,	#0e0h
00:0046 BF 03                    3345   	mov	r3,	#0bfh
00:0048 6E-F0                    3346   	push	xr0
00:004A 01-F0'00-00'             3347   	bl	__faddu8sw
00:004E 04 E1                    3348   	add	sp,	#4 
00:0050 2B 00                    3349   	mov	r0,	#02bh
00:0052 FB 01                    3350   	mov	r1,	#0fbh
00:0054 2E 02                    3351   	mov	r2,	#02eh
00:0056 BC 03                    3352   	mov	r3,	#0bch
00:0058 6E-F0                    3353   	push	xr0
00:005A 01-F0'00-00'             3354   	bl	__fdivu8sw
00:005E 04 E1                    3355   	add	sp,	#4 
00:0060 00 E0                    3356   	mov	er0,	#0 
00:0062 F0 02                    3357   	mov	r2,	#0f0h
00:0064 41 03                    3358   	mov	r3,	#041h
00:0066 6E-F0                    3359   	push	xr0
00:0068 01-F0'00-00'             3360   	bl	__faddu8sw
00:006C 04 E1                    3361   	add	sp,	#4 
00:006E 2E-F0                    3362   	pop	xr0
00:0070 13-90 00-00'             3363   	st	er0,	NEAR _flSensorOut+04h
00:0074 13-92 00-00'             3364   	st	er2,	NEAR _flSensorOut+06h
                                 3365   
                                 3366   ;;	LEDOUT = (unsigned char)(uniRawSensorOut._uint>>3);
                                 3367   CLINEA 0000H 0001H 0485H 0002H 0034H
00:0078 12-90 00-00'             3368   	l	er0,	NEAR _uniRawSensorOut
00:007C 3D-90                    3369   	srlc	r0,	#03h
00:007E 11-90 60-F2              3370   	st	r0,	0f260h
                                 3371   
                                 3372   ;;	printf("\033[1F\033[2K\rBDE0600G> Temperature = %.02f[C]. Vsenout = %.02f[V]", flSensorOut[1], flSensorOut[0]);
                                 3373   CLINEA 0000H 0001H 0486H 0002H 0072H
00:0082 12-90 00-00'             3374   	l	er0,	NEAR _flSensorOut
00:0086 12-92 00-00'             3375   	l	er2,	NEAR _flSensorOut+02h
00:008A 6E-F0                    3376   	push	xr0
00:008C FC E1                    3377   	add	sp,	#-4
00:008E 01-F0'00-00'             3378   	bl	__ftodu8sw
00:0092 12-90 00-00'             3379   	l	er0,	NEAR _flSensorOut+04h
00:0096 12-92 00-00'             3380   	l	er2,	NEAR _flSensorOut+06h
00:009A 6E-F0                    3381   	push	xr0
00:009C FC E1                    3382   	add	sp,	#-4
00:009E 01-F0'00-00'             3383   	bl	__ftodu8sw
00:00A2 00'00                    3384   	mov	r0,	#BYTE1 OFFSET $$S198
00:00A4 00'01                    3385   	mov	r1,	#BYTE2 OFFSET $$S198
00:00A6 5E-F0                    3386   	push	er0
00:00A8 01-F0'00-00'             3387   	bl	_printf_n
00:00AC 12 E1                    3388   	add	sp,	#18
                                 3389   
                                 3390   ;;	if(SENINTF_HDR1_GPIO0(D)==0)
                                 3391   CLINEA 0000H 0001H 0487H 0002H 001DH
00:00AE A1-A0 58-F2              3392   	tb	0f258h.2
00:00B2 08 C8                    3393   	bne	_$L199
                                 3394   
                                 3395   ;;		PRINTF("\n\033[2K\rBDE0600G> Temperature Threshold Reached.");
                                 3396   CLINEA 0000H 0001H 0488H 0003H 0040H
00:00B4 2F E0                    3397   	mov	er0,	#47
00:00B6 5E-F0                    3398   	push	er0
00:00B8 00'02                    3399   	mov	r2,	#BYTE1 OFFSET $$S201
00:00BA 00'03                    3400   	mov	r3,	#BYTE2 OFFSET $$S201
00:00BC 00 E0                    3401   	mov	er0,	#0 
00:00BE 01-F0'00-00'             3402   	bl	_write
                                 3403   
                                 3404   ;;	else
                                 3405   CLINEA 0000H 0001H 0489H 0002H 0005H
00:00C2 07 CE                    3406   	bal	_$L202
00:00C4                          3407   _$L199 :
                                 3408   
                                 3409   ;;		PRINTF("\n\033[2K\rBDE0600G> Temperature Threshold Not Reached.");
                                 3410   CLINEA 0000H 0001H 048AH 0003H 0044H
00:00C4 33 E0                    3411   	mov	er0,	#51
00:00C6 5E-F0                    3412   	push	er0
00:00C8 00'02                    3413   	mov	r2,	#BYTE1 OFFSET $$S203
00:00CA 00'03                    3414   	mov	r3,	#BYTE2 OFFSET $$S203
00:00CC 00 E0                    3415   	mov	er0,	#0 
00:00CE 01-F0'00-00'             3416   	bl	_write
00:00D2                          3417   _$L202 :
00:00D2 02 E1                    3418   	add	sp,	#2 
                                 3419   CBLOCKEND 211 2 1163
                                 3420   
                                 3421   ;;}
                                 3422   CLINEA 0000H 0001H 048BH 0001H 0001H
00:00D4 8E-F2                    3423   	pop	pc
                                 3424   CBLOCKEND 211 1 1163
                                 3425   CFUNCTIONEND 211
                                 3426   
                                 3427   
  --------------------------     3428   	rseg $$MainOp_Temperature_Sensor_23$main
                                 3429   CFUNCTION 212
                                 3430   
00:0000                          3431   _MainOp_Temperature_Sensor_23	:
                                 3432   CBLOCK 212 1 1176
                                 3433   
                                 3434   ;;{
                                 3435   CLINEA 0000H 0001H 0498H 0001H 0001H
00:0000 CE-F8                    3436   	push	lr
                                 3437   CBLOCK 212 2 1176
                                 3438   CRET 0000H
                                 3439   
                                 3440   ;;	uniRawSensorOut._uint = ADC_Read(0);
                                 3441   CLINEA 0000H 0000H 0499H 0002H 0025H
00:0002 00 00                    3442   	mov	r0,	#00h
00:0004 01-F0'00-00'             3443   	bl	_ADC_Read
00:0008 13-90 00-00'             3444   	st	er0,	NEAR _uniRawSensorOut
                                 3445   
                                 3446   ;;	flSensorOut[0] = uniRawSensorOut._uint*3.3f/1023;
                                 3447   CLINEA 0000H 0001H 049BH 0002H 0032H
00:000C 00 E2                    3448   	mov	er2,	#0 
00:000E 6E-F0                    3449   	push	xr0
00:0010 01-F0'00-00'             3450   	bl	__fuldu8sw
00:0014 33 00                    3451   	mov	r0,	#033h
00:0016 33 01                    3452   	mov	r1,	#033h
00:0018 53 02                    3453   	mov	r2,	#053h
00:001A 40 03                    3454   	mov	r3,	#040h
00:001C 6E-F0                    3455   	push	xr0
00:001E 01-F0'00-00'             3456   	bl	__fmulu8sw
00:0022 04 E1                    3457   	add	sp,	#4 
00:0024 00 00                    3458   	mov	r0,	#00h
00:0026 C0 01                    3459   	mov	r1,	#0c0h
00:0028 7F 02                    3460   	mov	r2,	#07fh
00:002A 44 03                    3461   	mov	r3,	#044h
00:002C 6E-F0                    3462   	push	xr0
00:002E 01-F0'00-00'             3463   	bl	__fdivu8sw
00:0032 04 E1                    3464   	add	sp,	#4 
00:0034 2E-F0                    3465   	pop	xr0
00:0036 13-90 00-00'             3466   	st	er0,	NEAR _flSensorOut
00:003A 13-92 00-00'             3467   	st	er2,	NEAR _flSensorOut+02h
                                 3468   
                                 3469   ;;	flSensorOut[1] = Voltage2Temperature(flSensorOut[0], 1.3f, 30.0f, -0.0082f);
                                 3470   CLINEA 0000H 0001H 049DH 0002H 004DH
00:003E 6E-F0                    3471   	push	xr0
00:0040 66 00                    3472   	mov	r0,	#066h
00:0042 66 01                    3473   	mov	r1,	#066h
00:0044 A6 02                    3474   	mov	r2,	#0a6h
00:0046 BF 03                    3475   	mov	r3,	#0bfh
00:0048 6E-F0                    3476   	push	xr0
00:004A 01-F0'00-00'             3477   	bl	__faddu8sw
00:004E 04 E1                    3478   	add	sp,	#4 
00:0050 4B 00                    3479   	mov	r0,	#04bh
00:0052 59 01                    3480   	mov	r1,	#059h
00:0054 06 02                    3481   	mov	r2,	#06h
00:0056 BC 03                    3482   	mov	r3,	#0bch
00:0058 6E-F0                    3483   	push	xr0
00:005A 01-F0'00-00'             3484   	bl	__fdivu8sw
00:005E 04 E1                    3485   	add	sp,	#4 
00:0060 00 E0                    3486   	mov	er0,	#0 
00:0062 F0 02                    3487   	mov	r2,	#0f0h
00:0064 41 03                    3488   	mov	r3,	#041h
00:0066 6E-F0                    3489   	push	xr0
00:0068 01-F0'00-00'             3490   	bl	__faddu8sw
00:006C 04 E1                    3491   	add	sp,	#4 
00:006E 2E-F0                    3492   	pop	xr0
00:0070 13-90 00-00'             3493   	st	er0,	NEAR _flSensorOut+04h
00:0074 13-92 00-00'             3494   	st	er2,	NEAR _flSensorOut+06h
                                 3495   
                                 3496   ;;	LEDOUT = (unsigned char)(uniRawSensorOut._uint>>3);
                                 3497   CLINEA 0000H 0001H 049FH 0002H 0034H
00:0078 12-90 00-00'             3498   	l	er0,	NEAR _uniRawSensorOut
00:007C 3D-90                    3499   	srlc	r0,	#03h
00:007E 11-90 60-F2              3500   	st	r0,	0f260h
                                 3501   
                                 3502   ;;	printf("\033[1F\033[2K\rBDJ0550HFV> Temperature = %.02f[C]. Vsenout = %.02f[V]", flSensorOut[1], flSensorOut[0]);
                                 3503   CLINEA 0000H 0001H 04A0H 0002H 0074H
00:0082 12-90 00-00'             3504   	l	er0,	NEAR _flSensorOut
00:0086 12-92 00-00'             3505   	l	er2,	NEAR _flSensorOut+02h
00:008A 6E-F0                    3506   	push	xr0
00:008C FC E1                    3507   	add	sp,	#-4
00:008E 01-F0'00-00'             3508   	bl	__ftodu8sw
00:0092 12-90 00-00'             3509   	l	er0,	NEAR _flSensorOut+04h
00:0096 12-92 00-00'             3510   	l	er2,	NEAR _flSensorOut+06h
00:009A 6E-F0                    3511   	push	xr0
00:009C FC E1                    3512   	add	sp,	#-4
00:009E 01-F0'00-00'             3513   	bl	__ftodu8sw
00:00A2 00'00                    3514   	mov	r0,	#BYTE1 OFFSET $$S205
00:00A4 00'01                    3515   	mov	r1,	#BYTE2 OFFSET $$S205
00:00A6 5E-F0                    3516   	push	er0
00:00A8 01-F0'00-00'             3517   	bl	_printf_n
00:00AC 12 E1                    3518   	add	sp,	#18
                                 3519   
                                 3520   ;;	if(SENINTF_HDR1_GPIO0(D)==0)
                                 3521   CLINEA 0000H 0001H 04A1H 0002H 001DH
00:00AE A1-A0 58-F2              3522   	tb	0f258h.2
00:00B2 08 C8                    3523   	bne	_$L206
                                 3524   
                                 3525   ;;		PRINTF("\n\033[2K\rBDJ0550HFV> Temperature Threshold Reached.");
                                 3526   CLINEA 0000H 0001H 04A2H 0003H 0042H
00:00B4 31 E0                    3527   	mov	er0,	#49
00:00B6 5E-F0                    3528   	push	er0
00:00B8 00'02                    3529   	mov	r2,	#BYTE1 OFFSET $$S208
00:00BA 00'03                    3530   	mov	r3,	#BYTE2 OFFSET $$S208
00:00BC 00 E0                    3531   	mov	er0,	#0 
00:00BE 01-F0'00-00'             3532   	bl	_write
                                 3533   
                                 3534   ;;	else
                                 3535   CLINEA 0000H 0001H 04A3H 0002H 0005H
00:00C2 07 CE                    3536   	bal	_$L209
00:00C4                          3537   _$L206 :
                                 3538   
                                 3539   ;;		PRINTF("\n\033[2K\rBDJ0550HFV> Temperature Threshold Not Reached.");
                                 3540   CLINEA 0000H 0001H 04A4H 0003H 0046H
00:00C4 35 E0                    3541   	mov	er0,	#53
00:00C6 5E-F0                    3542   	push	er0
00:00C8 00'02                    3543   	mov	r2,	#BYTE1 OFFSET $$S210
00:00CA 00'03                    3544   	mov	r3,	#BYTE2 OFFSET $$S210
00:00CC 00 E0                    3545   	mov	er0,	#0 
00:00CE 01-F0'00-00'             3546   	bl	_write
00:00D2                          3547   _$L209 :
00:00D2 02 E1                    3548   	add	sp,	#2 
                                 3549   CBLOCKEND 212 2 1189
                                 3550   
                                 3551   ;;}
                                 3552   CLINEA 0000H 0001H 04A5H 0001H 0001H
00:00D4 8E-F2                    3553   	pop	pc
                                 3554   CBLOCKEND 212 1 1189
                                 3555   CFUNCTIONEND 212
                                 3556   
                                 3557   
  --------------------------     3558   	rseg $$Init_Hall_Effect_Sensors_1$main
                                 3559   CFUNCTION 214
                                 3560   
00:0000                          3561   _Init_Hall_Effect_Sensors_1	:
                                 3562   CBLOCK 214 1 1202
                                 3563   
                                 3564   ;;{
                                 3565   CLINEA 0000H 0001H 04B2H 0001H 0001H
                                 3566   CBLOCK 214 2 1202
                                 3567   
                                 3568   ;;	SENINTF_HDR1_GPIO0(DIR) = 1;
                                 3569   CLINEA 0000H 0001H 04B4H 0002H 001DH
00:0000 A0-A0 59-F2              3570   	sb	0f259h.2
                                 3571   
                                 3572   ;;	SENINTF_HDR1_GPIO1(DIR) = 1;
                                 3573   CLINEA 0000H 0001H 04B5H 0002H 001DH
00:0004 B0-A0 59-F2              3574   	sb	0f259h.3
                                 3575   
                                 3576   ;;	SENINTF_HDR1_GPIO0(C0) = 0;
                                 3577   CLINEA 0000H 0001H 04B7H 0002H 001CH
00:0008 A2-A0 5A-F2              3578   	rb	0f25ah.2
                                 3579   
                                 3580   ;;	SENINTF_HDR1_GPIO0(C1) = 1;
                                 3581   CLINEA 0000H 0001H 04B8H 0002H 001CH
00:000C A0-A0 5B-F2              3582   	sb	0f25bh.2
                                 3583   
                                 3584   ;;	SENINTF_HDR1_GPIO1(C0) = 0;
                                 3585   CLINEA 0000H 0001H 04B9H 0002H 001CH
00:0010 B2-A0 5A-F2              3586   	rb	0f25ah.3
                                 3587   
                                 3588   ;;	SENINTF_HDR1_GPIO1(C1) = 1;
                                 3589   CLINEA 0000H 0001H 04BAH 0002H 001CH
00:0014 B0-A0 5B-F2              3590   	sb	0f25bh.3
                                 3591   
                                 3592   ;;	SENINTF_HDR1_GPIO0(MD0) = 0;
                                 3593   CLINEA 0000H 0001H 04BCH 0002H 001DH
00:0018 A2-A0 5C-F2              3594   	rb	0f25ch.2
                                 3595   
                                 3596   ;;	SENINTF_HDR1_GPIO0(MD1) = 0;
                                 3597   CLINEA 0000H 0001H 04BDH 0002H 001DH
00:001C A2-A0 5D-F2              3598   	rb	0f25dh.2
                                 3599   
                                 3600   ;;	SENINTF_HDR1_GPIO1(MD0) = 0;
                                 3601   CLINEA 0000H 0001H 04BEH 0002H 001DH
00:0020 B2-A0 5C-F2              3602   	rb	0f25ch.3
                                 3603   
                                 3604   ;;	SENINTF_HDR1_GPIO1(MD1) = 0;
                                 3605   CLINEA 0000H 0001H 04BFH 0002H 001DH
00:0024 B2-A0 5D-F2              3606   	rb	0f25dh.3
                                 3607   CBLOCKEND 214 2 1216
                                 3608   
                                 3609   ;;}
                                 3610   CLINEA 0000H 0001H 04C0H 0001H 0001H
00:0028 1F-FE                    3611   	rt
                                 3612   CBLOCKEND 214 1 1216
                                 3613   CFUNCTIONEND 214
                                 3614   
                                 3615   
  --------------------------     3616   	rseg $$Init_Hall_Effect_Sensors_2$main
                                 3617   CFUNCTION 213
                                 3618   
00:0000                          3619   _Init_Hall_Effect_Sensors_2	:
                                 3620   CBLOCK 213 1 1229
                                 3621   
                                 3622   ;;{
                                 3623   CLINEA 0000H 0001H 04CDH 0001H 0001H
                                 3624   CBLOCK 213 2 1229
                                 3625   
                                 3626   ;;	SENINTF_HDR1_GPIO0(DIR) = 1;
                                 3627   CLINEA 0000H 0001H 04CFH 0002H 001DH
00:0000 A0-A0 59-F2              3628   	sb	0f259h.2
                                 3629   
                                 3630   ;;	SENINTF_HDR1_GPIO0(C0) = 0;
                                 3631   CLINEA 0000H 0001H 04D1H 0002H 001CH
00:0004 A2-A0 5A-F2              3632   	rb	0f25ah.2
                                 3633   
                                 3634   ;;	SENINTF_HDR1_GPIO0(C1) = 1;
                                 3635   CLINEA 0000H 0001H 04D2H 0002H 001CH
00:0008 A0-A0 5B-F2              3636   	sb	0f25bh.2
                                 3637   
                                 3638   ;;	SENINTF_HDR1_GPIO0(MD0) = 0;
                                 3639   CLINEA 0000H 0001H 04D4H 0002H 001DH
00:000C A2-A0 5C-F2              3640   	rb	0f25ch.2
                                 3641   
                                 3642   ;;	SENINTF_HDR1_GPIO0(MD1) = 0;
                                 3643   CLINEA 0000H 0001H 04D5H 0002H 001DH
00:0010 A2-A0 5D-F2              3644   	rb	0f25dh.2
                                 3645   CBLOCKEND 213 2 1238
                                 3646   
                                 3647   ;;}
                                 3648   CLINEA 0000H 0001H 04D6H 0001H 0001H
00:0014 1F-FE                    3649   	rt
                                 3650   CBLOCKEND 213 1 1238
                                 3651   CFUNCTIONEND 213
                                 3652   
                                 3653   
  --------------------------     3654   	rseg $$Init_Ambient_Light_Sensor_5$main
                                 3655   CFUNCTION 215
                                 3656   
00:0000                          3657   _Init_Ambient_Light_Sensor_5	:
                                 3658   CBLOCK 215 1 1251
                                 3659   
                                 3660   ;;{
                                 3661   CLINEA 0000H 0001H 04E3H 0001H 0001H
                                 3662   CBLOCK 215 2 1251
                                 3663   
                                 3664   ;;	SENINTF_HDR1_GPIO0(DIR) = 1;
                                 3665   CLINEA 0000H 0001H 04E5H 0002H 001DH
00:0000 A0-A0 59-F2              3666   	sb	0f259h.2
                                 3667   
                                 3668   ;;	SENINTF_HDR1_GPIO1(DIR) = 1;
                                 3669   CLINEA 0000H 0001H 04E6H 0002H 001DH
00:0004 B0-A0 59-F2              3670   	sb	0f259h.3
                                 3671   
                                 3672   ;;	SENINTF_HDR1_GPIO0(C0) = 0;
                                 3673   CLINEA 0000H 0001H 04E8H 0002H 001CH
00:0008 A2-A0 5A-F2              3674   	rb	0f25ah.2
                                 3675   
                                 3676   ;;	SENINTF_HDR1_GPIO0(C1) = 1;
                                 3677   CLINEA 0000H 0001H 04E9H 0002H 001CH
00:000C A0-A0 5B-F2              3678   	sb	0f25bh.2
                                 3679   
                                 3680   ;;	SENINTF_HDR1_GPIO1(C0) = 0;
                                 3681   CLINEA 0000H 0001H 04EAH 0002H 001CH
00:0010 B2-A0 5A-F2              3682   	rb	0f25ah.3
                                 3683   
                                 3684   ;;	SENINTF_HDR1_GPIO1(C1) = 1;
                                 3685   CLINEA 0000H 0001H 04EBH 0002H 001CH
00:0014 B0-A0 5B-F2              3686   	sb	0f25bh.3
                                 3687   
                                 3688   ;;	SENINTF_HDR1_GPIO0(MD0) = 0;
                                 3689   CLINEA 0000H 0001H 04EDH 0002H 001DH
00:0018 A2-A0 5C-F2              3690   	rb	0f25ch.2
                                 3691   
                                 3692   ;;	SENINTF_HDR1_GPIO0(MD1) = 0;
                                 3693   CLINEA 0000H 0001H 04EEH 0002H 001DH
00:001C A2-A0 5D-F2              3694   	rb	0f25dh.2
                                 3695   
                                 3696   ;;	SENINTF_HDR1_GPIO1(MD0) = 0;
                                 3697   CLINEA 0000H 0001H 04EFH 0002H 001DH
00:0020 B2-A0 5C-F2              3698   	rb	0f25ch.3
                                 3699   
                                 3700   ;;	SENINTF_HDR1_GPIO1(MD1) = 0;
                                 3701   CLINEA 0000H 0001H 04F0H 0002H 001DH
00:0024 B2-A0 5D-F2              3702   	rb	0f25dh.3
                                 3703   CBLOCKEND 215 2 1265
                                 3704   
                                 3705   ;;}
                                 3706   CLINEA 0000H 0001H 04F1H 0001H 0001H
00:0028 1F-FE                    3707   	rt
                                 3708   CBLOCKEND 215 1 1265
                                 3709   CFUNCTIONEND 215
                                 3710   
                                 3711   
  --------------------------     3712   	rseg $$Init_Ambient_Light_Sensor_6$main
                                 3713   CFUNCTION 216
                                 3714   
00:0000                          3715   _Init_Ambient_Light_Sensor_6	:
                                 3716   CBLOCK 216 1 1278
                                 3717   
                                 3718   ;;{
                                 3719   CLINEA 0000H 0001H 04FEH 0001H 0001H
00:0000 CE-F8                    3720   	push	lr
                                 3721   CBLOCK 216 2 1278
                                 3722   CRET 0000H
                                 3723   
                                 3724   ;;	I2C_Write(BH17xxFVC_ADDR_1, NULL, 0, &BH17xxFVC_PWR_ON, 1);
                                 3725   CLINEA 0000H 0001H 0500H 0002H 003CH
00:0002 01 00                    3726   	mov	r0,	#01h
00:0004 4E-F0                    3727   	push	r0
00:0006 00'00                    3728   	mov	r0,	#BYTE1 OFFSET _BH17xxFVC_PWR_ON
00:0008 00'01                    3729   	mov	r1,	#BYTE2 OFFSET _BH17xxFVC_PWR_ON
00:000A 5E-F0                    3730   	push	er0
00:000C 00 00                    3731   	mov	r0,	#00h
00:000E 4E-F0                    3732   	push	r0
00:0010 00 E2                    3733   	mov	er2,	#0 
00:0012 23 00                    3734   	mov	r0,	#023h
00:0014 01-F0'00-00'             3735   	bl	_I2C_Write
00:0018 06 E1                    3736   	add	sp,	#6 
                                 3737   
                                 3738   ;;	I2C_Write(BH17xxFVC_ADDR_1, NULL, 0, &BH1710FVC_CONT_M_RES_MOD, 1);
                                 3739   CLINEA 0000H 0001H 0502H 0002H 0044H
00:001A 01 00                    3740   	mov	r0,	#01h
00:001C 4E-F0                    3741   	push	r0
00:001E 00'00                    3742   	mov	r0,	#BYTE1 OFFSET _BH1710FVC_CONT_M_RES_MOD
00:0020 00'01                    3743   	mov	r1,	#BYTE2 OFFSET _BH1710FVC_CONT_M_RES_MOD
00:0022 5E-F0                    3744   	push	er0
00:0024 00 00                    3745   	mov	r0,	#00h
00:0026 4E-F0                    3746   	push	r0
00:0028 00 E2                    3747   	mov	er2,	#0 
00:002A 23 00                    3748   	mov	r0,	#023h
00:002C 01-F0'00-00'             3749   	bl	_I2C_Write
00:0030 06 E1                    3750   	add	sp,	#6 
                                 3751   
                                 3752   ;;	NOPms(24);
                                 3753   CLINEA 0000H 0001H 0507H 0002H 000BH
00:0032 18 E0                    3754   	mov	er0,	#24
00:0034 01-F0'00-00'             3755   	bl	_NOPms
                                 3756   CBLOCKEND 216 2 1288
                                 3757   
                                 3758   ;;}
                                 3759   CLINEA 0000H 0001H 0508H 0001H 0001H
00:0038 8E-F2                    3760   	pop	pc
                                 3761   CBLOCKEND 216 1 1288
                                 3762   CFUNCTIONEND 216
                                 3763   
                                 3764   
  --------------------------     3765   	rseg $$Init_Ambient_Light_Sensor_7$main
                                 3766   CFUNCTION 217
                                 3767   
00:0000                          3768   _Init_Ambient_Light_Sensor_7	:
                                 3769   CBLOCK 217 1 1301
                                 3770   
                                 3771   ;;{
                                 3772   CLINEA 0000H 0001H 0515H 0001H 0001H
00:0000 CE-F8                    3773   	push	lr
00:0002 5E-FE                    3774   	push	fp
00:0004 1A-AE                    3775   	mov	fp,	sp
00:0006 FE E1                    3776   	add	sp,	#-02
                                 3777   CBLOCK 217 2 1301
                                 3778   CRET 0004H
                                 3779   CLOCAL 42H 0001H 0001H 0002H "cTmp" 02H 00H 00H
                                 3780   
                                 3781   ;;	unsigned char cTmp = 0x0;
                                 3782   CLINEA 0000H 0001H 0516H 0002H 001AH
00:0008 00 00                    3783   	mov	r0,	#00h
00:000A FF D0                    3784   	st	r0,	-1[fp]
                                 3785   
                                 3786   ;;	I2C_Write(BH17xxFVC_ADDR_2, &BH1730FVC_REG_INTERRUPT, 1, &cTmp, 1);
                                 3787   CLINEA 0000H 0001H 0519H 0002H 0044H
00:000C 01 00                    3788   	mov	r0,	#01h
00:000E 4E-F0                    3789   	push	r0
00:0010 E5-F0                    3790   	mov	er0,	fp
00:0012 FF E0                    3791   	add	er0,	#-1
00:0014 5E-F0                    3792   	push	er0
00:0016 01 00                    3793   	mov	r0,	#01h
00:0018 4E-F0                    3794   	push	r0
00:001A 00'02                    3795   	mov	r2,	#BYTE1 OFFSET _BH1730FVC_REG_INTERRUPT
00:001C 00'03                    3796   	mov	r3,	#BYTE2 OFFSET _BH1730FVC_REG_INTERRUPT
00:001E 29 00                    3797   	mov	r0,	#029h
00:0020 01-F0'00-00'             3798   	bl	_I2C_Write
00:0024 06 E1                    3799   	add	sp,	#6 
                                 3800   
                                 3801   ;;	I2C_Write(BH17xxFVC_ADDR_2, &BH1730FVC_REG_GAIN, 1, &cTmp, 1);
                                 3802   CLINEA 0000H 0001H 051BH 0002H 003FH
00:0026 01 00                    3803   	mov	r0,	#01h
00:0028 4E-F0                    3804   	push	r0
00:002A E5-F0                    3805   	mov	er0,	fp
00:002C FF E0                    3806   	add	er0,	#-1
00:002E 5E-F0                    3807   	push	er0
00:0030 01 00                    3808   	mov	r0,	#01h
00:0032 4E-F0                    3809   	push	r0
00:0034 00'02                    3810   	mov	r2,	#BYTE1 OFFSET _BH1730FVC_REG_GAIN
00:0036 00'03                    3811   	mov	r3,	#BYTE2 OFFSET _BH1730FVC_REG_GAIN
00:0038 29 00                    3812   	mov	r0,	#029h
00:003A 01-F0'00-00'             3813   	bl	_I2C_Write
00:003E 06 E1                    3814   	add	sp,	#6 
                                 3815   
                                 3816   ;;	cTmp = 0xdau;
                                 3817   CLINEA 0000H 0001H 051DH 0002H 000EH
00:0040 DA 00                    3818   	mov	r0,	#0dah
00:0042 FF D0                    3819   	st	r0,	-1[fp]
                                 3820   
                                 3821   ;;	I2C_Write(BH17xxFVC_ADDR_2, &BH1730FVC_REG_TIMING, 1, &cTmp, 1);
                                 3822   CLINEA 0000H 0001H 051EH 0002H 0041H
00:0044 01 00                    3823   	mov	r0,	#01h
00:0046 4E-F0                    3824   	push	r0
00:0048 E5-F0                    3825   	mov	er0,	fp
00:004A FF E0                    3826   	add	er0,	#-1
00:004C 5E-F0                    3827   	push	er0
00:004E 01 00                    3828   	mov	r0,	#01h
00:0050 4E-F0                    3829   	push	r0
00:0052 00'02                    3830   	mov	r2,	#BYTE1 OFFSET _BH1730FVC_REG_TIMING
00:0054 00'03                    3831   	mov	r3,	#BYTE2 OFFSET _BH1730FVC_REG_TIMING
00:0056 29 00                    3832   	mov	r0,	#029h
00:0058 01-F0'00-00'             3833   	bl	_I2C_Write
00:005C 06 E1                    3834   	add	sp,	#6 
                                 3835   
                                 3836   ;;	cTmp = 0x3;
                                 3837   CLINEA 0000H 0001H 0520H 0002H 000CH
00:005E 03 00                    3838   	mov	r0,	#03h
00:0060 FF D0                    3839   	st	r0,	-1[fp]
                                 3840   
                                 3841   ;;	I2C_Write(BH17xxFVC_ADDR_2, &BH1730FVC_REG_CONTROL, 1, &cTmp, 1);
                                 3842   CLINEA 0000H 0001H 0521H 0002H 0042H
00:0062 01 00                    3843   	mov	r0,	#01h
00:0064 4E-F0                    3844   	push	r0
00:0066 E5-F0                    3845   	mov	er0,	fp
00:0068 FF E0                    3846   	add	er0,	#-1
00:006A 5E-F0                    3847   	push	er0
00:006C 01 00                    3848   	mov	r0,	#01h
00:006E 4E-F0                    3849   	push	r0
00:0070 00'02                    3850   	mov	r2,	#BYTE1 OFFSET _BH1730FVC_REG_CONTROL
00:0072 00'03                    3851   	mov	r3,	#BYTE2 OFFSET _BH1730FVC_REG_CONTROL
00:0074 29 00                    3852   	mov	r0,	#029h
00:0076 01-F0'00-00'             3853   	bl	_I2C_Write
00:007A 06 E1                    3854   	add	sp,	#6 
                                 3855   
                                 3856   ;;	I2C_Write(BH17xxFVC_ADDR_2, &BH1730FVC_REG_DATA0LOW, 1, NULL, 0);
                                 3857   CLINEA 0000H 0001H 0523H 0002H 0042H
00:007C 00 00                    3858   	mov	r0,	#00h
00:007E 4E-F0                    3859   	push	r0
00:0080 00 E0                    3860   	mov	er0,	#0 
00:0082 5E-F0                    3861   	push	er0
00:0084 01 00                    3862   	mov	r0,	#01h
00:0086 4E-F0                    3863   	push	r0
00:0088 00'02                    3864   	mov	r2,	#BYTE1 OFFSET _BH1730FVC_REG_DATA0LOW
00:008A 00'03                    3865   	mov	r3,	#BYTE2 OFFSET _BH1730FVC_REG_DATA0LOW
00:008C 29 00                    3866   	mov	r0,	#029h
00:008E 01-F0'00-00'             3867   	bl	_I2C_Write
00:0092 06 E1                    3868   	add	sp,	#6 
                                 3869   CBLOCKEND 217 2 1316
                                 3870   
                                 3871   ;;}
                                 3872   CLINEA 0000H 0001H 0524H 0001H 0001H
00:0094 EA-A1                    3873   	mov	sp,	fp
00:0096 1E-FE                    3874   	pop	fp
00:0098 8E-F2                    3875   	pop	pc
                                 3876   CBLOCKEND 217 1 1316
                                 3877   CFUNCTIONEND 217
                                 3878   
                                 3879   
  --------------------------     3880   	rseg $$Init_Ambient_Light_Sensor_8$main
                                 3881   CFUNCTION 218
                                 3882   
00:0000                          3883   _Init_Ambient_Light_Sensor_8	:
                                 3884   CBLOCK 218 1 1329
                                 3885   
                                 3886   ;;{	
                                 3887   CLINEA 0000H 0001H 0531H 0001H 0002H
00:0000 CE-F8                    3888   	push	lr
                                 3889   CBLOCK 218 2 1329
                                 3890   CRET 0000H
                                 3891   
                                 3892   ;;	I2C_Write(BH17xxFVC_ADDR_1, NULL, 0, &BH17xxFVC_PWR_ON, 1);
                                 3893   CLINEA 0000H 0001H 0533H 0002H 003CH
00:0002 01 00                    3894   	mov	r0,	#01h
00:0004 4E-F0                    3895   	push	r0
00:0006 00'00                    3896   	mov	r0,	#BYTE1 OFFSET _BH17xxFVC_PWR_ON
00:0008 00'01                    3897   	mov	r1,	#BYTE2 OFFSET _BH17xxFVC_PWR_ON
00:000A 5E-F0                    3898   	push	er0
00:000C 00 00                    3899   	mov	r0,	#00h
00:000E 4E-F0                    3900   	push	r0
00:0010 00 E2                    3901   	mov	er2,	#0 
00:0012 23 00                    3902   	mov	r0,	#023h
00:0014 01-F0'00-00'             3903   	bl	_I2C_Write
00:0018 06 E1                    3904   	add	sp,	#6 
                                 3905   
                                 3906   ;;	I2C_Write(BH17xxFVC_ADDR_1, NULL, 0, &BH1721FVC_CONT_A_RES_MOD, 1);
                                 3907   CLINEA 0000H 0001H 0535H 0002H 0044H
00:001A 01 00                    3908   	mov	r0,	#01h
00:001C 4E-F0                    3909   	push	r0
00:001E 00'00                    3910   	mov	r0,	#BYTE1 OFFSET _BH1721FVC_CONT_A_RES_MOD
00:0020 00'01                    3911   	mov	r1,	#BYTE2 OFFSET _BH1721FVC_CONT_A_RES_MOD
00:0022 5E-F0                    3912   	push	er0
00:0024 00 00                    3913   	mov	r0,	#00h
00:0026 4E-F0                    3914   	push	r0
00:0028 00 E2                    3915   	mov	er2,	#0 
00:002A 23 00                    3916   	mov	r0,	#023h
00:002C 01-F0'00-00'             3917   	bl	_I2C_Write
00:0030 06 E1                    3918   	add	sp,	#6 
                                 3919   
                                 3920   ;;	NOPms(180);	
                                 3921   CLINEA 0000H 0001H 0539H 0002H 000DH
00:0032 B4 00                    3922   	mov	r0,	#0b4h
00:0034 00 01                    3923   	mov	r1,	#00h
00:0036 01-F0'00-00'             3924   	bl	_NOPms
                                 3925   CBLOCKEND 218 2 1338
                                 3926   
                                 3927   ;;}
                                 3928   CLINEA 0000H 0001H 053AH 0001H 0001H
00:003A 8E-F2                    3929   	pop	pc
                                 3930   CBLOCKEND 218 1 1338
                                 3931   CFUNCTIONEND 218
                                 3932   
                                 3933   
  --------------------------     3934   	rseg $$Init_Ambient_Light_Sensor_9$main
                                 3935   CFUNCTION 219
                                 3936   
00:0000                          3937   _Init_Ambient_Light_Sensor_9	:
                                 3938   CBLOCK 219 1 1351
                                 3939   
                                 3940   ;;{
                                 3941   CLINEA 0000H 0001H 0547H 0001H 0001H
00:0000 CE-F8                    3942   	push	lr
                                 3943   CBLOCK 219 2 1351
                                 3944   CRET 0000H
                                 3945   
                                 3946   ;;	uniRawSensorOut._uchar = 0x3;
                                 3947   CLINEA 0000H 0001H 0548H 0002H 001EH
00:0002 03 00                    3948   	mov	r0,	#03h
00:0004 11-90 00-00'             3949   	st	r0,	NEAR _uniRawSensorOut
                                 3950   
                                 3951   ;;	I2C_Write(BH17xxFVC_ADDR_2, &BH1780GLI_REG_CONTROL, 1, &uniRawSensorOut._uchar, 1);
                                 3952   CLINEA 0000H 0001H 054AH 0002H 0054H
00:0008 01 00                    3953   	mov	r0,	#01h
00:000A 4E-F0                    3954   	push	r0
00:000C 00'00                    3955   	mov	r0,	#BYTE1 OFFSET _uniRawSensorOut
00:000E 00'01                    3956   	mov	r1,	#BYTE2 OFFSET _uniRawSensorOut
00:0010 5E-F0                    3957   	push	er0
00:0012 01 00                    3958   	mov	r0,	#01h
00:0014 4E-F0                    3959   	push	r0
00:0016 00'02                    3960   	mov	r2,	#BYTE1 OFFSET _BH1780GLI_REG_CONTROL
00:0018 00'03                    3961   	mov	r3,	#BYTE2 OFFSET _BH1780GLI_REG_CONTROL
00:001A 29 00                    3962   	mov	r0,	#029h
00:001C 01-F0'00-00'             3963   	bl	_I2C_Write
00:0020 06 E1                    3964   	add	sp,	#6 
                                 3965   
                                 3966   ;;	I2C_Write(BH17xxFVC_ADDR_2, &BH1780GLI_REG_DATALOW, 1, NULL, 0);
                                 3967   CLINEA 0000H 0001H 054CH 0002H 0041H
00:0022 00 00                    3968   	mov	r0,	#00h
00:0024 4E-F0                    3969   	push	r0
00:0026 00 E0                    3970   	mov	er0,	#0 
00:0028 5E-F0                    3971   	push	er0
00:002A 01 00                    3972   	mov	r0,	#01h
00:002C 4E-F0                    3973   	push	r0
00:002E 00'02                    3974   	mov	r2,	#BYTE1 OFFSET _BH1780GLI_REG_DATALOW
00:0030 00'03                    3975   	mov	r3,	#BYTE2 OFFSET _BH1780GLI_REG_DATALOW
00:0032 29 00                    3976   	mov	r0,	#029h
00:0034 01-F0'00-00'             3977   	bl	_I2C_Write
00:0038 06 E1                    3978   	add	sp,	#6 
                                 3979   CBLOCKEND 219 2 1357
                                 3980   
                                 3981   ;;}
                                 3982   CLINEA 0000H 0001H 054DH 0001H 0001H
00:003A 8E-F2                    3983   	pop	pc
                                 3984   CBLOCKEND 219 1 1357
                                 3985   CFUNCTIONEND 219
                                 3986   
                                 3987   
  --------------------------     3988   	rseg $$Init_UV_Sensor_10$main
                                 3989   CFUNCTION 220
                                 3990   
00:0000                          3991   _Init_UV_Sensor_10	:
                                 3992   CBLOCK 220 1 1370
                                 3993   
                                 3994   ;;{
                                 3995   CLINEA 0000H 0001H 055AH 0001H 0001H
                                 3996   CBLOCK 220 2 1370
                                 3997   CBLOCKEND 220 2 1373
                                 3998   
                                 3999   ;;}
                                 4000   CLINEA 0000H 0001H 055DH 0001H 0001H
00:0000 1F-FE                    4001   	rt
                                 4002   CBLOCKEND 220 1 1373
                                 4003   CFUNCTIONEND 220
                                 4004   
                                 4005   
  --------------------------     4006   	rseg $$Init_KX022$main
                                 4007   CFUNCTION 221
                                 4008   
00:0000                          4009   _Init_KX022	:
                                 4010   CBLOCK 221 1 1386
                                 4011   
                                 4012   ;;{
                                 4013   CLINEA 0000H 0001H 056AH 0001H 0001H
00:0000 CE-F8                    4014   	push	lr
                                 4015   CBLOCK 221 2 1386
                                 4016   CRET 0000H
                                 4017   
                                 4018   ;;	uniRawSensorOut._uchar = 0x40u;
                                 4019   CLINEA 0000H 0001H 056CH 0002H 0020H
00:0002 40 00                    4020   	mov	r0,	#040h
00:0004 11-90 00-00'             4021   	st	r0,	NEAR _uniRawSensorOut
                                 4022   
                                 4023   ;;	I2C_Write(KX022_I2C_ADDR, &KX022_CNTL1, 1, &uniRawSensorOut._uchar, 1);
                                 4024   CLINEA 0000H 0001H 056DH 0002H 0048H
00:0008 01 00                    4025   	mov	r0,	#01h
00:000A 4E-F0                    4026   	push	r0
00:000C 00'00                    4027   	mov	r0,	#BYTE1 OFFSET _uniRawSensorOut
00:000E 00'01                    4028   	mov	r1,	#BYTE2 OFFSET _uniRawSensorOut
00:0010 5E-F0                    4029   	push	er0
00:0012 01 00                    4030   	mov	r0,	#01h
00:0014 4E-F0                    4031   	push	r0
00:0016 00'02                    4032   	mov	r2,	#BYTE1 OFFSET _KX022_CNTL1
00:0018 00'03                    4033   	mov	r3,	#BYTE2 OFFSET _KX022_CNTL1
00:001A 1E 00                    4034   	mov	r0,	#01eh
00:001C 01-F0'00-00'             4035   	bl	_I2C_Write
00:0020 06 E1                    4036   	add	sp,	#6 
                                 4037   
                                 4038   ;;	uniRawSensorOut._uchar = 0x02u;
                                 4039   CLINEA 0000H 0001H 056FH 0002H 0020H
00:0022 02 00                    4040   	mov	r0,	#02h
00:0024 11-90 00-00'             4041   	st	r0,	NEAR _uniRawSensorOut
                                 4042   
                                 4043   ;;	I2C_Write(KX022_I2C_ADDR, &KX022_ODCNTL, 1, &uniRawSensorOut._uchar, 1);
                                 4044   CLINEA 0000H 0001H 0570H 0002H 0049H
00:0028 01 00                    4045   	mov	r0,	#01h
00:002A 4E-F0                    4046   	push	r0
00:002C 00'00                    4047   	mov	r0,	#BYTE1 OFFSET _uniRawSensorOut
00:002E 00'01                    4048   	mov	r1,	#BYTE2 OFFSET _uniRawSensorOut
00:0030 5E-F0                    4049   	push	er0
00:0032 01 00                    4050   	mov	r0,	#01h
00:0034 4E-F0                    4051   	push	r0
00:0036 00'02                    4052   	mov	r2,	#BYTE1 OFFSET _KX022_ODCNTL
00:0038 00'03                    4053   	mov	r3,	#BYTE2 OFFSET _KX022_ODCNTL
00:003A 1E 00                    4054   	mov	r0,	#01eh
00:003C 01-F0'00-00'             4055   	bl	_I2C_Write
00:0040 06 E1                    4056   	add	sp,	#6 
                                 4057   
                                 4058   ;;	uniRawSensorOut._uchar = 0xc0u;
                                 4059   CLINEA 0000H 0001H 0572H 0002H 0020H
00:0042 C0 00                    4060   	mov	r0,	#0c0h
00:0044 11-90 00-00'             4061   	st	r0,	NEAR _uniRawSensorOut
                                 4062   
                                 4063   ;;	I2C_Write(KX022_I2C_ADDR, &KX022_CNTL1, 1, &uniRawSensorOut._uchar, 1);
                                 4064   CLINEA 0000H 0001H 0573H 0002H 0048H
00:0048 01 00                    4065   	mov	r0,	#01h
00:004A 4E-F0                    4066   	push	r0
00:004C 00'00                    4067   	mov	r0,	#BYTE1 OFFSET _uniRawSensorOut
00:004E 00'01                    4068   	mov	r1,	#BYTE2 OFFSET _uniRawSensorOut
00:0050 5E-F0                    4069   	push	er0
00:0052 01 00                    4070   	mov	r0,	#01h
00:0054 4E-F0                    4071   	push	r0
00:0056 00'02                    4072   	mov	r2,	#BYTE1 OFFSET _KX022_CNTL1
00:0058 00'03                    4073   	mov	r3,	#BYTE2 OFFSET _KX022_CNTL1
00:005A 1E 00                    4074   	mov	r0,	#01eh
00:005C 01-F0'00-00'             4075   	bl	_I2C_Write
00:0060 06 E1                    4076   	add	sp,	#6 
                                 4077   CBLOCKEND 221 2 1396
                                 4078   
                                 4079   ;;}
                                 4080   CLINEA 0000H 0001H 0574H 0001H 0001H
00:0062 8E-F2                    4081   	pop	pc
                                 4082   CBLOCKEND 221 1 1396
                                 4083   CFUNCTIONEND 221
                                 4084   
                                 4085   
  --------------------------     4086   	rseg $$Init_KMX61$main
                                 4087   CFUNCTION 222
                                 4088   
00:0000                          4089   _Init_KMX61	:
                                 4090   CBLOCK 222 1 1409
                                 4091   
                                 4092   ;;{ 
                                 4093   CLINEA 0000H 0001H 0581H 0001H 0002H
00:0000 CE-F8                    4094   	push	lr
                                 4095   CBLOCK 222 2 1409
                                 4096   CRET 0000H
                                 4097   
                                 4098   ;;	uniRawSensorOut._uchar = 0x03u;
                                 4099   CLINEA 0000H 0001H 0583H 0002H 0020H
00:0002 03 00                    4100   	mov	r0,	#03h
00:0004 11-90 00-00'             4101   	st	r0,	NEAR _uniRawSensorOut
                                 4102   
                                 4103   ;;	I2C_Write(KMX61_I2C_ADDR, &KMX61_STBY_REG, 1, &uniRawSensorOut._uchar, 1);
                                 4104   CLINEA 0000H 0001H 0584H 0002H 004BH
00:0008 01 00                    4105   	mov	r0,	#01h
00:000A 4E-F0                    4106   	push	r0
00:000C 00'00                    4107   	mov	r0,	#BYTE1 OFFSET _uniRawSensorOut
00:000E 00'01                    4108   	mov	r1,	#BYTE2 OFFSET _uniRawSensorOut
00:0010 5E-F0                    4109   	push	er0
00:0012 01 00                    4110   	mov	r0,	#01h
00:0014 4E-F0                    4111   	push	r0
00:0016 00'02                    4112   	mov	r2,	#BYTE1 OFFSET _KMX61_STBY_REG
00:0018 00'03                    4113   	mov	r3,	#BYTE2 OFFSET _KMX61_STBY_REG
00:001A 0E 00                    4114   	mov	r0,	#0eh
00:001C 01-F0'00-00'             4115   	bl	_I2C_Write
00:0020 06 E1                    4116   	add	sp,	#6 
                                 4117   
                                 4118   ;;	uniRawSensorOut._uchar = 0x0u;
                                 4119   CLINEA 0000H 0001H 0586H 0002H 001FH
00:0022 00 00                    4120   	mov	r0,	#00h
00:0024 11-90 00-00'             4121   	st	r0,	NEAR _uniRawSensorOut
                                 4122   
                                 4123   ;;	I2C_Write(KMX61_I2C_ADDR, &KMX61_SELF_TEST, 1, &uniRawSensorOut._uchar, 1);
                                 4124   CLINEA 0000H 0001H 0587H 0002H 004CH
00:0028 01 00                    4125   	mov	r0,	#01h
00:002A 4E-F0                    4126   	push	r0
00:002C 00'00                    4127   	mov	r0,	#BYTE1 OFFSET _uniRawSensorOut
00:002E 00'01                    4128   	mov	r1,	#BYTE2 OFFSET _uniRawSensorOut
00:0030 5E-F0                    4129   	push	er0
00:0032 01 00                    4130   	mov	r0,	#01h
00:0034 4E-F0                    4131   	push	r0
00:0036 00'02                    4132   	mov	r2,	#BYTE1 OFFSET _KMX61_SELF_TEST
00:0038 00'03                    4133   	mov	r3,	#BYTE2 OFFSET _KMX61_SELF_TEST
00:003A 0E 00                    4134   	mov	r0,	#0eh
00:003C 01-F0'00-00'             4135   	bl	_I2C_Write
00:0040 06 E1                    4136   	add	sp,	#6 
                                 4137   
                                 4138   ;;	uniRawSensorOut._uchar = 0x13u;
                                 4139   CLINEA 0000H 0001H 058AH 0002H 0020H
00:0042 13 00                    4140   	mov	r0,	#013h
00:0044 11-90 00-00'             4141   	st	r0,	NEAR _uniRawSensorOut
                                 4142   
                                 4143   ;;	I2C_Write(KMX61_I2C_ADDR, &KMX61_CNTL1, 1, &uniRawSensorOut._uchar, 1);
                                 4144   CLINEA 0000H 0001H 058BH 0002H 0048H
00:0048 01 00                    4145   	mov	r0,	#01h
00:004A 4E-F0                    4146   	push	r0
00:004C 00'00                    4147   	mov	r0,	#BYTE1 OFFSET _uniRawSensorOut
00:004E 00'01                    4148   	mov	r1,	#BYTE2 OFFSET _uniRawSensorOut
00:0050 5E-F0                    4149   	push	er0
00:0052 01 00                    4150   	mov	r0,	#01h
00:0054 4E-F0                    4151   	push	r0
00:0056 00'02                    4152   	mov	r2,	#BYTE1 OFFSET _KMX61_CNTL1
00:0058 00'03                    4153   	mov	r3,	#BYTE2 OFFSET _KMX61_CNTL1
00:005A 0E 00                    4154   	mov	r0,	#0eh
00:005C 01-F0'00-00'             4155   	bl	_I2C_Write
00:0060 06 E1                    4156   	add	sp,	#6 
                                 4157   
                                 4158   ;;	uniRawSensorOut._uchar = 0x0u;
                                 4159   CLINEA 0000H 0001H 058DH 0002H 001FH
00:0062 00 00                    4160   	mov	r0,	#00h
00:0064 11-90 00-00'             4161   	st	r0,	NEAR _uniRawSensorOut
                                 4162   
                                 4163   ;;	I2C_Write(KMX61_I2C_ADDR, &KMX61_CNTL2, 1, &uniRawSensorOut._uchar, 1);
                                 4164   CLINEA 0000H 0001H 058EH 0002H 0048H
00:0068 01 00                    4165   	mov	r0,	#01h
00:006A 4E-F0                    4166   	push	r0
00:006C 00'00                    4167   	mov	r0,	#BYTE1 OFFSET _uniRawSensorOut
00:006E 00'01                    4168   	mov	r1,	#BYTE2 OFFSET _uniRawSensorOut
00:0070 5E-F0                    4169   	push	er0
00:0072 01 00                    4170   	mov	r0,	#01h
00:0074 4E-F0                    4171   	push	r0
00:0076 00'02                    4172   	mov	r2,	#BYTE1 OFFSET _KMX61_CNTL2
00:0078 00'03                    4173   	mov	r3,	#BYTE2 OFFSET _KMX61_CNTL2
00:007A 0E 00                    4174   	mov	r0,	#0eh
00:007C 01-F0'00-00'             4175   	bl	_I2C_Write
00:0080 06 E1                    4176   	add	sp,	#6 
                                 4177   
                                 4178   ;;	uniRawSensorOut._uchar = 0x0u;
                                 4179   CLINEA 0000H 0001H 0590H 0002H 001FH
00:0082 00 00                    4180   	mov	r0,	#00h
00:0084 11-90 00-00'             4181   	st	r0,	NEAR _uniRawSensorOut
                                 4182   
                                 4183   ;;	I2C_Write(KMX61_I2C_ADDR, &KMX61_ODCNTL, 1, &uniRawSensorOut._uchar, 1);
                                 4184   CLINEA 0000H 0001H 0591H 0002H 0049H
00:0088 01 00                    4185   	mov	r0,	#01h
00:008A 4E-F0                    4186   	push	r0
00:008C 00'00                    4187   	mov	r0,	#BYTE1 OFFSET _uniRawSensorOut
00:008E 00'01                    4188   	mov	r1,	#BYTE2 OFFSET _uniRawSensorOut
00:0090 5E-F0                    4189   	push	er0
00:0092 01 00                    4190   	mov	r0,	#01h
00:0094 4E-F0                    4191   	push	r0
00:0096 00'02                    4192   	mov	r2,	#BYTE1 OFFSET _KMX61_ODCNTL
00:0098 00'03                    4193   	mov	r3,	#BYTE2 OFFSET _KMX61_ODCNTL
00:009A 0E 00                    4194   	mov	r0,	#0eh
00:009C 01-F0'00-00'             4195   	bl	_I2C_Write
00:00A0 06 E1                    4196   	add	sp,	#6 
                                 4197   
                                 4198   ;;	uniRawSensorOut._uchar = 0x01u;
                                 4199   CLINEA 0000H 0001H 0593H 0002H 0020H
00:00A2 01 00                    4200   	mov	r0,	#01h
00:00A4 11-90 00-00'             4201   	st	r0,	NEAR _uniRawSensorOut
                                 4202   
                                 4203   ;;	I2C_Write(KMX61_I2C_ADDR, &KMX61_TEMP_EN_CNTL, 1, &uniRawSensorOut._uchar, 1);
                                 4204   CLINEA 0000H 0001H 0594H 0002H 004FH
00:00A8 4E-F0                    4205   	push	r0
00:00AA 00'00                    4206   	mov	r0,	#BYTE1 OFFSET _uniRawSensorOut
00:00AC 00'01                    4207   	mov	r1,	#BYTE2 OFFSET _uniRawSensorOut
00:00AE 5E-F0                    4208   	push	er0
00:00B0 01 00                    4209   	mov	r0,	#01h
00:00B2 4E-F0                    4210   	push	r0
00:00B4 00'02                    4211   	mov	r2,	#BYTE1 OFFSET _KMX61_TEMP_EN_CNTL
00:00B6 00'03                    4212   	mov	r3,	#BYTE2 OFFSET _KMX61_TEMP_EN_CNTL
00:00B8 0E 00                    4213   	mov	r0,	#0eh
00:00BA 01-F0'00-00'             4214   	bl	_I2C_Write
00:00BE 06 E1                    4215   	add	sp,	#6 
                                 4216   
                                 4217   ;;	uniRawSensorOut._uchar = 0x0u;
                                 4218   CLINEA 0000H 0001H 0596H 0002H 001FH
00:00C0 00 00                    4219   	mov	r0,	#00h
00:00C2 11-90 00-00'             4220   	st	r0,	NEAR _uniRawSensorOut
                                 4221   
                                 4222   ;;	I2C_Write(KMX61_I2C_ADDR, &KMX61_BUF_CTRL1, 1, &uniRawSensorOut._uchar, 1);
                                 4223   CLINEA 0000H 0001H 0597H 0002H 004CH
00:00C6 01 00                    4224   	mov	r0,	#01h
00:00C8 4E-F0                    4225   	push	r0
00:00CA 00'00                    4226   	mov	r0,	#BYTE1 OFFSET _uniRawSensorOut
00:00CC 00'01                    4227   	mov	r1,	#BYTE2 OFFSET _uniRawSensorOut
00:00CE 5E-F0                    4228   	push	er0
00:00D0 01 00                    4229   	mov	r0,	#01h
00:00D2 4E-F0                    4230   	push	r0
00:00D4 00'02                    4231   	mov	r2,	#BYTE1 OFFSET _KMX61_BUF_CTRL1
00:00D6 00'03                    4232   	mov	r3,	#BYTE2 OFFSET _KMX61_BUF_CTRL1
00:00D8 0E 00                    4233   	mov	r0,	#0eh
00:00DA 01-F0'00-00'             4234   	bl	_I2C_Write
00:00DE 06 E1                    4235   	add	sp,	#6 
                                 4236   
                                 4237   ;;	I2C_Write(KMX61_I2C_ADDR, &KMX61_BUF_CTRL2, 1, &uniRawSensorOut._uchar, 1);
                                 4238   CLINEA 0000H 0001H 0598H 0002H 004CH
00:00E0 01 00                    4239   	mov	r0,	#01h
00:00E2 4E-F0                    4240   	push	r0
00:00E4 00'00                    4241   	mov	r0,	#BYTE1 OFFSET _uniRawSensorOut
00:00E6 00'01                    4242   	mov	r1,	#BYTE2 OFFSET _uniRawSensorOut
00:00E8 5E-F0                    4243   	push	er0
00:00EA 01 00                    4244   	mov	r0,	#01h
00:00EC 4E-F0                    4245   	push	r0
00:00EE 00'02                    4246   	mov	r2,	#BYTE1 OFFSET _KMX61_BUF_CTRL2
00:00F0 00'03                    4247   	mov	r3,	#BYTE2 OFFSET _KMX61_BUF_CTRL2
00:00F2 0E 00                    4248   	mov	r0,	#0eh
00:00F4 01-F0'00-00'             4249   	bl	_I2C_Write
00:00F8 06 E1                    4250   	add	sp,	#6 
                                 4251   
                                 4252   ;;	uniRawSensorOut._uchar = 0x0u;
                                 4253   CLINEA 0000H 0001H 059AH 0002H 001FH
00:00FA 00 00                    4254   	mov	r0,	#00h
00:00FC 11-90 00-00'             4255   	st	r0,	NEAR _uniRawSensorOut
                                 4256   
                                 4257   ;;	I2C_Write(KMX61_I2C_ADDR, &KMX61_STBY_REG, 1, &uniRawSensorOut._uchar, 1);
                                 4258   CLINEA 0000H 0001H 059BH 0002H 004BH
00:0100 01 00                    4259   	mov	r0,	#01h
00:0102 4E-F0                    4260   	push	r0
00:0104 00'00                    4261   	mov	r0,	#BYTE1 OFFSET _uniRawSensorOut
00:0106 00'01                    4262   	mov	r1,	#BYTE2 OFFSET _uniRawSensorOut
00:0108 5E-F0                    4263   	push	er0
00:010A 01 00                    4264   	mov	r0,	#01h
00:010C 4E-F0                    4265   	push	r0
00:010E 00'02                    4266   	mov	r2,	#BYTE1 OFFSET _KMX61_STBY_REG
00:0110 00'03                    4267   	mov	r3,	#BYTE2 OFFSET _KMX61_STBY_REG
00:0112 0E 00                    4268   	mov	r0,	#0eh
00:0114 01-F0'00-00'             4269   	bl	_I2C_Write
00:0118 06 E1                    4270   	add	sp,	#6 
                                 4271   CBLOCKEND 222 2 1436
                                 4272   
                                 4273   ;;}
                                 4274   CLINEA 0000H 0001H 059CH 0001H 0001H
00:011A 8E-F2                    4275   	pop	pc
                                 4276   CBLOCKEND 222 1 1436
                                 4277   CFUNCTIONEND 222
                                 4278   
                                 4279   
  --------------------------     4280   	rseg $$Init_Temperature_Sensor_20$main
                                 4281   CFUNCTION 223
                                 4282   
00:0000                          4283   _Init_Temperature_Sensor_20	:
                                 4284   CBLOCK 223 1 1449
                                 4285   
                                 4286   ;;{
                                 4287   CLINEA 0000H 0001H 05A9H 0001H 0001H
                                 4288   CBLOCK 223 2 1449
                                 4289   CBLOCKEND 223 2 1452
                                 4290   
                                 4291   ;;}
                                 4292   CLINEA 0000H 0001H 05ACH 0001H 0001H
00:0000 1F-FE                    4293   	rt
                                 4294   CBLOCKEND 223 1 1452
                                 4295   CFUNCTIONEND 223
                                 4296   
                                 4297   
  --------------------------     4298   	rseg $$Init_Temperature_Sensor_21$main
                                 4299   CFUNCTION 224
                                 4300   
00:0000                          4301   _Init_Temperature_Sensor_21	:
                                 4302   CBLOCK 224 1 1465
                                 4303   
                                 4304   ;;{
                                 4305   CLINEA 0000H 0001H 05B9H 0001H 0001H
                                 4306   CBLOCK 224 2 1465
                                 4307   
                                 4308   ;;	SENINTF_HDR1_GPIO0(DIR) = 1;
                                 4309   CLINEA 0000H 0001H 05BBH 0002H 001DH
00:0000 A0-A0 59-F2              4310   	sb	0f259h.2
                                 4311   
                                 4312   ;;	SENINTF_HDR1_GPIO0(C0) = 0;
                                 4313   CLINEA 0000H 0001H 05BDH 0002H 001CH
00:0004 A2-A0 5A-F2              4314   	rb	0f25ah.2
                                 4315   
                                 4316   ;;	SENINTF_HDR1_GPIO0(C1) = 1;
                                 4317   CLINEA 0000H 0001H 05BEH 0002H 001CH
00:0008 A0-A0 5B-F2              4318   	sb	0f25bh.2
                                 4319   
                                 4320   ;;	SENINTF_HDR1_GPIO0(MD0) = 0;
                                 4321   CLINEA 0000H 0001H 05C0H 0002H 001DH
00:000C A2-A0 5C-F2              4322   	rb	0f25ch.2
                                 4323   
                                 4324   ;;	SENINTF_HDR1_GPIO0(MD1) = 0;
                                 4325   CLINEA 0000H 0001H 05C1H 0002H 001DH
00:0010 A2-A0 5D-F2              4326   	rb	0f25dh.2
                                 4327   CBLOCKEND 224 2 1474
                                 4328   
                                 4329   ;;}
                                 4330   CLINEA 0000H 0001H 05C2H 0001H 0001H
00:0014 1F-FE                    4331   	rt
                                 4332   CBLOCKEND 224 1 1474
                                 4333   CFUNCTIONEND 224
                                 4334   
                                 4335   
  --------------------------     4336   	rseg $$Init_Temperature_Sensor_22$main
                                 4337   CFUNCTION 225
                                 4338   
00:0000                          4339   _Init_Temperature_Sensor_22	:
                                 4340   CBLOCK 225 1 1487
                                 4341   
                                 4342   ;;{
                                 4343   CLINEA 0000H 0001H 05CFH 0001H 0001H
                                 4344   CBLOCK 225 2 1487
                                 4345   
                                 4346   ;;	SENINTF_HDR1_GPIO0(DIR) = 1;
                                 4347   CLINEA 0000H 0001H 05D1H 0002H 001DH
00:0000 A0-A0 59-F2              4348   	sb	0f259h.2
                                 4349   
                                 4350   ;;	SENINTF_HDR1_GPIO0(C0) = 0;
                                 4351   CLINEA 0000H 0001H 05D3H 0002H 001CH
00:0004 A2-A0 5A-F2              4352   	rb	0f25ah.2
                                 4353   
                                 4354   ;;	SENINTF_HDR1_GPIO0(C1) = 1;
                                 4355   CLINEA 0000H 0001H 05D4H 0002H 001CH
00:0008 A0-A0 5B-F2              4356   	sb	0f25bh.2
                                 4357   
                                 4358   ;;	SENINTF_HDR1_GPIO0(MD0) = 0;
                                 4359   CLINEA 0000H 0001H 05D6H 0002H 001DH
00:000C A2-A0 5C-F2              4360   	rb	0f25ch.2
                                 4361   
                                 4362   ;;	SENINTF_HDR1_GPIO0(MD1) = 0;
                                 4363   CLINEA 0000H 0001H 05D7H 0002H 001DH
00:0010 A2-A0 5D-F2              4364   	rb	0f25dh.2
                                 4365   CBLOCKEND 225 2 1496
                                 4366   
                                 4367   ;;}
                                 4368   CLINEA 0000H 0001H 05D8H 0001H 0001H
00:0014 1F-FE                    4369   	rt
                                 4370   CBLOCKEND 225 1 1496
                                 4371   CFUNCTIONEND 225
                                 4372   
                                 4373   
  --------------------------     4374   	rseg $$Init_Temperature_Sensor_23$main
                                 4375   CFUNCTION 226
                                 4376   
00:0000                          4377   _Init_Temperature_Sensor_23	:
                                 4378   CBLOCK 226 1 1509
                                 4379   
                                 4380   ;;{
                                 4381   CLINEA 0000H 0001H 05E5H 0001H 0001H
                                 4382   CBLOCK 226 2 1509
                                 4383   
                                 4384   ;;	SENINTF_HDR1_GPIO0(DIR) = 1;
                                 4385   CLINEA 0000H 0001H 05E7H 0002H 001DH
00:0000 A0-A0 59-F2              4386   	sb	0f259h.2
                                 4387   
                                 4388   ;;	SENINTF_HDR1_GPIO0(C0) = 0;
                                 4389   CLINEA 0000H 0001H 05E9H 0002H 001CH
00:0004 A2-A0 5A-F2              4390   	rb	0f25ah.2
                                 4391   
                                 4392   ;;	SENINTF_HDR1_GPIO0(C1) = 1;
                                 4393   CLINEA 0000H 0001H 05EAH 0002H 001CH
00:0008 A0-A0 5B-F2              4394   	sb	0f25bh.2
                                 4395   
                                 4396   ;;	SENINTF_HDR1_GPIO0(MD0) = 0;
                                 4397   CLINEA 0000H 0001H 05ECH 0002H 001DH
00:000C A2-A0 5C-F2              4398   	rb	0f25ch.2
                                 4399   
                                 4400   ;;	SENINTF_HDR1_GPIO0(MD1) = 0;
                                 4401   CLINEA 0000H 0001H 05EDH 0002H 001DH
00:0010 A2-A0 5D-F2              4402   	rb	0f25dh.2
                                 4403   CBLOCKEND 226 2 1518
                                 4404   
                                 4405   ;;}
                                 4406   CLINEA 0000H 0001H 05EEH 0001H 0001H
00:0014 1F-FE                    4407   	rt
                                 4408   CBLOCKEND 226 1 1518
                                 4409   CFUNCTIONEND 226
                                 4410   
                                 4411   
  --------------------------     4412   	rseg $$main_clrWDT$main
                                 4413   CFUNCTION 179
                                 4414   
00:0000                          4415   _main_clrWDT	:
                                 4416   CBLOCK 179 1 1529
                                 4417   
                                 4418   ;;{
                                 4419   CLINEA 0000H 0001H 05F9H 0001H 0001H
                                 4420   CBLOCK 179 2 1529
                                 4421   
                                 4422   ;;	do {
                                 4423   CLINEA 0000H 0001H 05FCH 0002H 0005H
00:0000                          4424   _$L228 :
                                 4425   CBLOCK 179 3 1532
                                 4426   
                                 4427   ;;		WDTCON = 0x5Au;
                                 4428   CLINEA 0000H 0001H 05FDH 0003H 0011H
00:0000 5A 00                    4429   	mov	r0,	#05ah
00:0002 11-90 0E-F0              4430   	st	r0,	0f00eh
                                 4431   CBLOCKEND 179 3 1534
                                 4432   
                                 4433   ;;	} while (WDP != 1);
                                 4434   CLINEA 0000H 0000H 05FEH 0002H 0014H
00:0006 81-A0 0E-F0              4435   	tb	0f00eh.0
00:000A FA C9                    4436   	beq	_$L228
                                 4437   
                                 4438   ;;	WDTCON = 0xA5u;
                                 4439   CLINEA 0000H 0001H 05FFH 0002H 0010H
00:000C A5 00                    4440   	mov	r0,	#0a5h
00:000E 11-90 0E-F0              4441   	st	r0,	0f00eh
                                 4442   CBLOCKEND 179 2 1536
                                 4443   
                                 4444   ;;}
                                 4445   CLINEA 0000H 0001H 0600H 0001H 0001H
00:0012 1F-FE                    4446   	rt
                                 4447   CBLOCKEND 179 1 1536
                                 4448   CFUNCTIONEND 179
                                 4449   
                                 4450   
  --------------------------     4451   	rseg $$_funcUartFin$main
                                 4452   CFUNCTION 190
                                 4453   
00:0000                          4454   __funcUartFin	:
                                 4455   CBLOCK 190 1 1547
                                 4456   
                                 4457   ;;{
                                 4458   CLINEA 0000H 0001H 060BH 0001H 0001H
00:0000 CE-F8                    4459   	push	lr
                                 4460   CBLOCK 190 2 1547
                                 4461   CRET 0000H
                                 4462   CARGUMENT 46H 0002H 0000H "size" 02H 00H 01H
                                 4463   CARGUMENT 46H 0001H 0000H "errStat" 02H 00H 00H
                                 4464   
                                 4465   ;;	uart_continue();					// Function in UART.c: process to continue send and receive...
                                 4466   CLINEA 0000H 0001H 060CH 0002H 0054H
00:0002 01-F0'00-00'             4467   	bl	_uart_continue
                                 4468   
                                 4469   ;;	_flgUartFin = (unsigned char)FLG_SET;
                                 4470   CLINEA 0000H 0001H 060DH 0002H 0026H
00:0006 01 00                    4471   	mov	r0,	#01h
00:0008 11-90 00-00'             4472   	st	r0,	NEAR __flgUartFin
                                 4473   
                                 4474   ;;	main_reqNotHalt();				// uncommented 5/2/2013
                                 4475   CLINEA 0000H 0001H 060EH 0002H 002EH
00:000C 01-F0'00-00'             4476   	bl	_main_reqNotHalt
                                 4477   CBLOCKEND 190 2 1551
                                 4478   
                                 4479   ;;}
                                 4480   CLINEA 0000H 0001H 060FH 0001H 0001H
00:0010 8E-F2                    4481   	pop	pc
                                 4482   CBLOCKEND 190 1 1551
                                 4483   CFUNCTIONEND 190
                                 4484   
                                 4485   
  --------------------------     4486   	rseg $$_funcI2CFin$main
                                 4487   CFUNCTION 191
                                 4488   
00:0000                          4489   __funcI2CFin	:
                                 4490   CBLOCK 191 1 1562
                                 4491   
                                 4492   ;;{
                                 4493   CLINEA 0000H 0001H 061AH 0001H 0001H
00:0000 CE-F8                    4494   	push	lr
                                 4495   CBLOCK 191 2 1562
                                 4496   CRET 0000H
                                 4497   CARGUMENT 46H 0002H 0000H "size" 02H 00H 01H
                                 4498   CARGUMENT 46H 0001H 0000H "errStat" 02H 00H 00H
                                 4499   
                                 4500   ;;	i2c_continue();					// Function in UART.c: process to continue send and receive...
                                 4501   CLINEA 0000H 0001H 061BH 0002H 0053H
00:0002 01-F0'00-00'             4502   	bl	_i2c_continue
                                 4503   
                                 4504   ;;	_flgI2CFin = (unsigned char)FLG_SET;
                                 4505   CLINEA 0000H 0001H 061CH 0002H 0025H
00:0006 01 00                    4506   	mov	r0,	#01h
00:0008 11-90 00-00'             4507   	st	r0,	NEAR __flgI2CFin
                                 4508   
                                 4509   ;;	main_reqNotHalt();				// uncommented 5/2/2013
                                 4510   CLINEA 0000H 0001H 061DH 0002H 002EH
00:000C 01-F0'00-00'             4511   	bl	_main_reqNotHalt
                                 4512   CBLOCKEND 191 2 1566
                                 4513   
                                 4514   ;;}
                                 4515   CLINEA 0000H 0001H 061EH 0001H 0001H
00:0010 8E-F2                    4516   	pop	pc
                                 4517   CBLOCKEND 191 1 1566
                                 4518   CFUNCTIONEND 191
                                 4519   
                                 4520   
  --------------------------     4521   	rseg $$_intI2c$main
                                 4522   CFUNCTION 194
                                 4523   
00:0000                          4524   __intI2c	:
                                 4525   CBLOCK 194 1 1576
                                 4526   
                                 4527   ;;{
                                 4528   CLINEA 0000H 0001H 0628H 0001H 0001H
00:0000 CE-F8                    4529   	push	lr
                                 4530   CBLOCK 194 2 1576
                                 4531   CRET 0000H
                                 4532   
                                 4533   ;;	i2c_continue();
                                 4534   CLINEA 0000H 0001H 0629H 0002H 0010H
00:0002 01-F0'00-00'             4535   	bl	_i2c_continue
                                 4536   
                                 4537   ;;	main_reqNotHalt();
                                 4538   CLINEA 0000H 0001H 062AH 0002H 0013H
00:0006 01-F0'00-00'             4539   	bl	_main_reqNotHalt
                                 4540   CBLOCKEND 194 2 1579
                                 4541   
                                 4542   ;;}
                                 4543   CLINEA 0000H 0001H 062BH 0001H 0001H
00:000A 8E-F2                    4544   	pop	pc
                                 4545   CBLOCKEND 194 1 1579
                                 4546   CFUNCTIONEND 194
                                 4547   
                                 4548   
  --------------------------     4549   	rseg $$_intADC$main
                                 4550   CFUNCTION 195
                                 4551   
00:0000                          4552   __intADC	:
                                 4553   CBLOCK 195 1 1589
                                 4554   
                                 4555   ;;{
                                 4556   CLINEA 0000H 0001H 0635H 0001H 0001H
                                 4557   CBLOCK 195 2 1589
                                 4558   
                                 4559   ;;	_flgADCFin = 1;
                                 4560   CLINEA 0000H 0001H 0636H 0002H 0010H
00:0000 01 00                    4561   	mov	r0,	#01h
00:0002 11-90 00-00'             4562   	st	r0,	NEAR __flgADCFin
                                 4563   CBLOCKEND 195 2 1591
                                 4564   
                                 4565   ;;}
                                 4566   CLINEA 0000H 0001H 0637H 0001H 0001H
00:0006 1F-FE                    4567   	rt
                                 4568   CBLOCKEND 195 1 1591
                                 4569   CFUNCTIONEND 195
                                 4570   
                                 4571   
  --------------------------     4572   	rseg $$main_reqNotHalt$main
                                 4573   CFUNCTION 192
                                 4574   
00:0000                          4575   _main_reqNotHalt	:
                                 4576   CBLOCK 192 1 1601
                                 4577   
                                 4578   ;;{
                                 4579   CLINEA 0000H 0001H 0641H 0001H 0001H
                                 4580   CBLOCK 192 2 1601
                                 4581   
                                 4582   ;;	_reqNotHalt = (unsigned char)FLG_SET;
                                 4583   CLINEA 0000H 0001H 0642H 0002H 0026H
00:0000 01 00                    4584   	mov	r0,	#01h
00:0002 11-90 00-00'             4585   	st	r0,	NEAR __reqNotHalt
                                 4586   CBLOCKEND 192 2 1603
                                 4587   
                                 4588   ;;}
                                 4589   CLINEA 0000H 0001H 0643H 0001H 0001H
00:0006 1F-FE                    4590   	rt
                                 4591   CBLOCKEND 192 1 1603
                                 4592   CFUNCTIONEND 192
                                 4593   
                                 4594   
  --------------------------     4595   	rseg $$_intUart$main
                                 4596   CFUNCTION 193
                                 4597   
00:0000                          4598   __intUart	:
                                 4599   CBLOCK 193 1 1613
                                 4600   
                                 4601   ;;{
                                 4602   CLINEA 0000H 0001H 064DH 0001H 0001H
                                 4603   CBLOCK 193 2 1613
                                 4604   
                                 4605   ;;	uart_continue(); 	//in UART.c: process to continue send and receive...
                                 4606   CLINEA 0000H 0001H 064EH 0002H 0047H
00:0000 00-F0'00-00'             4607   	b	_uart_continue
                                 4608   CBLOCKEND 193 2 1615
                                 4609   CLINEA 0000H 0001H 064FH 0001H 0001H
                                 4610   CBLOCKEND 193 1 1615
                                 4611   CFUNCTIONEND 193
                                 4612   
                                 4613   
  --------------------------     4614   	rseg $$SetOSC$main
                                 4615   CFUNCTION 181
                                 4616   
00:0000                          4617   _SetOSC	:
                                 4618   CBLOCK 181 1 1620
                                 4619   
                                 4620   ;;static void SetOSC(void){
                                 4621   CLINEA 0000H 0001H 0654H 0001H 0019H
                                 4622   CBLOCK 181 2 1620
                                 4623   
                                 4624   ;;	SYSC0 = 0;			// Used to select the frequency of the HSCLK => 00=8.192MHz.
                                 4625   CLINEA 0000H 0001H 0657H 0002H 004AH
00:0000 82-A0 02-F0              4626   	rb	0f002h.0
                                 4627   
                                 4628   ;;	SYSC1 = 0;
                                 4629   CLINEA 0000H 0001H 0658H 0002H 000BH
00:0004 92-A0 02-F0              4630   	rb	0f002h.1
                                 4631   
                                 4632   ;;	OSCM1 = 1;			// 10 => Built-in PLL oscillation mode
                                 4633   CLINEA 0000H 0001H 065AH 0002H 0034H
00:0008 B0-A0 02-F0              4634   	sb	0f002h.3
                                 4635   
                                 4636   ;;	OSCM0 = 0;
                                 4637   CLINEA 0000H 0001H 065BH 0002H 000BH
00:000C A2-A0 02-F0              4638   	rb	0f002h.2
                                 4639   
                                 4640   ;;	ENOSC = 1;			//1=Enable High Speed Oscillator...
                                 4641   CLINEA 0000H 0001H 065DH 0002H 0031H
00:0010 90-A0 03-F0              4642   	sb	0f003h.1
                                 4643   
                                 4644   ;;	SYSCLK = 1;			//1=HSCLK; 0=LSCLK 
                                 4645   CLINEA 0000H 0001H 065EH 0002H 0022H
00:0014 80-A0 03-F0              4646   	sb	0f003h.0
                                 4647   
                                 4648   ;;	LPLL = 1;			//1=Enables the use of PLL oscillation - ADDED 4/30/2013
                                 4649   CLINEA 0000H 0001H 0660H 0002H 0045H
00:0018 F0-A0 03-F0              4650   	sb	0f003h.7
                                 4651   
                                 4652   ;;	__EI();			//INT enable
                                 4653   CLINEA 0000H 0001H 0662H 0002H 0017H
00:001C 08-ED                    4654   	ei
                                 4655   CBLOCKEND 181 2 1635
                                 4656   
                                 4657   ;;}
                                 4658   CLINEA 0000H 0001H 0663H 0001H 0001H
00:001E 1F-FE                    4659   	rt
                                 4660   CBLOCKEND 181 1 1635
                                 4661   CFUNCTIONEND 181
                                 4662   
                                 4663   
  --------------------------     4664   	rseg $$PortA_Low$main
                                 4665   CFUNCTION 182
                                 4666   
00:0000                          4667   _PortA_Low	:
                                 4668   CBLOCK 182 1 1641
                                 4669   
                                 4670   ;;void PortA_Low(void){
                                 4671   CLINEA 0000H 0001H 0669H 0001H 0015H
                                 4672   CBLOCK 182 2 1641
                                 4673   
                                 4674   ;;	PA0DIR = 0;		// PortA Bit0 set to Output Mode...
                                 4675   CLINEA 0000H 0001H 0673H 0002H 0031H
00:0000 82-A0 51-F2              4676   	rb	0f251h.0
                                 4677   
                                 4678   ;;	PA1DIR = 0;		// PortA Bit1 set to Output Mode...
                                 4679   CLINEA 0000H 0001H 0674H 0002H 0031H
00:0004 92-A0 51-F2              4680   	rb	0f251h.1
                                 4681   
                                 4682   ;;	PA2DIR = 0;		// PortA Bit2 set to Output Mode...
                                 4683   CLINEA 0000H 0001H 0675H 0002H 0031H
00:0008 A2-A0 51-F2              4684   	rb	0f251h.2
                                 4685   
                                 4686   ;;	PA0C1  = 1;		// PortA Bit0 set to CMOS Output...
                                 4687   CLINEA 0000H 0001H 0678H 0002H 0031H
00:000C 80-A0 53-F2              4688   	sb	0f253h.0
                                 4689   
                                 4690   ;;	PA0C0  = 1;		
                                 4691   CLINEA 0000H 0001H 0679H 0002H 000EH
00:0010 80-A0 52-F2              4692   	sb	0f252h.0
                                 4693   
                                 4694   ;;	PA1C1  = 1;		// PortA Bit1 set to CMOS Output...
                                 4695   CLINEA 0000H 0001H 067AH 0002H 0031H
00:0014 90-A0 53-F2              4696   	sb	0f253h.1
                                 4697   
                                 4698   ;;	PA1C0  = 1;	
                                 4699   CLINEA 0000H 0001H 067BH 0002H 000DH
00:0018 90-A0 52-F2              4700   	sb	0f252h.1
                                 4701   
                                 4702   ;;	PA2C1  = 1;		// PortA Bit2 set to CMOS Output...
                                 4703   CLINEA 0000H 0001H 067CH 0002H 0031H
00:001C A0-A0 53-F2              4704   	sb	0f253h.2
                                 4705   
                                 4706   ;;	PA2C0  = 1;	
                                 4707   CLINEA 0000H 0001H 067DH 0002H 000DH
00:0020 A0-A0 52-F2              4708   	sb	0f252h.2
                                 4709   
                                 4710   ;;	PA0MD1  = 0;	// PortA Bit0 set to General Purpose Output...
                                 4711   CLINEA 0000H 0001H 0680H 0002H 003CH
00:0024 82-A0 55-F2              4712   	rb	0f255h.0
                                 4713   
                                 4714   ;;	PA0MD0  = 0;	
                                 4715   CLINEA 0000H 0001H 0681H 0002H 000EH
00:0028 82-A0 54-F2              4716   	rb	0f254h.0
                                 4717   
                                 4718   ;;	PA1MD1  = 0;	// PortA Bit1 set to General Purpose Output...
                                 4719   CLINEA 0000H 0001H 0682H 0002H 003CH
00:002C 92-A0 55-F2              4720   	rb	0f255h.1
                                 4721   
                                 4722   ;;	PA1MD0  = 0;	
                                 4723   CLINEA 0000H 0001H 0683H 0002H 000EH
00:0030 92-A0 54-F2              4724   	rb	0f254h.1
                                 4725   
                                 4726   ;;	PA2MD1  = 0;	// PortA Bit2 set to General Purpose Output...
                                 4727   CLINEA 0000H 0001H 0684H 0002H 003CH
00:0034 A2-A0 55-F2              4728   	rb	0f255h.2
                                 4729   
                                 4730   ;;	PA2MD0  = 0;	
                                 4731   CLINEA 0000H 0001H 0685H 0002H 000EH
00:0038 A2-A0 54-F2              4732   	rb	0f254h.2
                                 4733   
                                 4734   ;;	PA0D = 0;		// A.0 Output OFF....
                                 4735   CLINEA 0000H 0001H 0688H 0002H 0021H
00:003C 82-A0 50-F2              4736   	rb	0f250h.0
                                 4737   
                                 4738   ;;	PA1D = 0;		// A.1 Output OFF....
                                 4739   CLINEA 0000H 0001H 0689H 0002H 0021H
00:0040 92-A0 50-F2              4740   	rb	0f250h.1
                                 4741   
                                 4742   ;;	PA2D = 0;		// A.2 Output OFF....
                                 4743   CLINEA 0000H 0001H 068AH 0002H 0021H
00:0044 A2-A0 50-F2              4744   	rb	0f250h.2
                                 4745   
                                 4746   ;;	main_clrWDT(); 	// Clear WDT
                                 4747   CLINEA 0000H 0001H 068CH 0002H 001DH
00:0048 00-F0'00-00'             4748   	b	_main_clrWDT
                                 4749   CBLOCKEND 182 2 1677
                                 4750   CLINEA 0000H 0001H 068DH 0001H 0001H
                                 4751   CBLOCKEND 182 1 1677
                                 4752   CFUNCTIONEND 182
                                 4753   
                                 4754   
  --------------------------     4755   	rseg $$PortB_Low$main
                                 4756   CFUNCTION 183
                                 4757   
00:0000                          4758   _PortB_Low	:
                                 4759   CBLOCK 183 1 1683
                                 4760   
                                 4761   ;;void PortB_Low(void){
                                 4762   CLINEA 0000H 0001H 0693H 0001H 0015H
                                 4763   CBLOCK 183 2 1683
                                 4764   
                                 4765   ;;	PB0DIR = 0;		// PortB Bit0 set to Output Mode...
                                 4766   CLINEA 0000H 0001H 069DH 0002H 0031H
00:0000 82-A0 59-F2              4767   	rb	0f259h.0
                                 4768   
                                 4769   ;;	PB1DIR = 0;		// PortB Bit1 set to Output Mode...
                                 4770   CLINEA 0000H 0001H 069EH 0002H 0031H
00:0004 92-A0 59-F2              4771   	rb	0f259h.1
                                 4772   
                                 4773   ;;	PB2DIR = 0;		// PortB Bit2 set to Output Mode...
                                 4774   CLINEA 0000H 0001H 069FH 0002H 0031H
00:0008 A2-A0 59-F2              4775   	rb	0f259h.2
                                 4776   
                                 4777   ;;	PB3DIR = 0;		// PortB Bit3 set to Output Mode...
                                 4778   CLINEA 0000H 0001H 06A0H 0002H 0031H
00:000C B2-A0 59-F2              4779   	rb	0f259h.3
                                 4780   
                                 4781   ;;	PB4DIR = 0;		// PortB Bit4 set to Output Mode...
                                 4782   CLINEA 0000H 0001H 06A1H 0002H 0031H
00:0010 C2-A0 59-F2              4783   	rb	0f259h.4
                                 4784   
                                 4785   ;;	PB5DIR = 0;		// PortB Bit5 set to Output Mode...
                                 4786   CLINEA 0000H 0001H 06A2H 0002H 0031H
00:0014 D2-A0 59-F2              4787   	rb	0f259h.5
                                 4788   
                                 4789   ;;	PB6DIR = 0;		// PortB Bit6 set to Output Mode...
                                 4790   CLINEA 0000H 0001H 06A3H 0002H 0031H
00:0018 E2-A0 59-F2              4791   	rb	0f259h.6
                                 4792   
                                 4793   ;;	PB7DIR = 0;		// PortB Bit7 set to Output Mode...
                                 4794   CLINEA 0000H 0001H 06A4H 0002H 0031H
00:001C F2-A0 59-F2              4795   	rb	0f259h.7
                                 4796   
                                 4797   ;;	PB0C1  = 1;		// PortB Bit0 set to CMOS Output...
                                 4798   CLINEA 0000H 0001H 06A7H 0002H 0031H
00:0020 80-A0 5B-F2              4799   	sb	0f25bh.0
                                 4800   
                                 4801   ;;	PB0C0  = 1;		
                                 4802   CLINEA 0000H 0001H 06A8H 0002H 000EH
00:0024 80-A0 5A-F2              4803   	sb	0f25ah.0
                                 4804   
                                 4805   ;;	PB1C1  = 1;		// PortB Bit1 set to CMOS Output...
                                 4806   CLINEA 0000H 0001H 06A9H 0002H 0031H
00:0028 90-A0 5B-F2              4807   	sb	0f25bh.1
                                 4808   
                                 4809   ;;	PB1C0  = 1;	
                                 4810   CLINEA 0000H 0001H 06AAH 0002H 000DH
00:002C 90-A0 5A-F2              4811   	sb	0f25ah.1
                                 4812   
                                 4813   ;;	PB2C1  = 1;		// PortB Bit2 set to CMOS Output...
                                 4814   CLINEA 0000H 0001H 06ABH 0002H 0031H
00:0030 A0-A0 5B-F2              4815   	sb	0f25bh.2
                                 4816   
                                 4817   ;;	PB2C0  = 1;	
                                 4818   CLINEA 0000H 0001H 06ACH 0002H 000DH
00:0034 A0-A0 5A-F2              4819   	sb	0f25ah.2
                                 4820   
                                 4821   ;;	PB3C1  = 1;		// PortB Bit3 set to CMOS Output...
                                 4822   CLINEA 0000H 0001H 06ADH 0002H 0031H
00:0038 B0-A0 5B-F2              4823   	sb	0f25bh.3
                                 4824   
                                 4825   ;;	PB3C0  = 1;		
                                 4826   CLINEA 0000H 0001H 06AEH 0002H 000EH
00:003C B0-A0 5A-F2              4827   	sb	0f25ah.3
                                 4828   
                                 4829   ;;	PB4C1  = 1;		// PortB Bit4 set to CMOS Output...
                                 4830   CLINEA 0000H 0001H 06AFH 0002H 0031H
00:0040 C0-A0 5B-F2              4831   	sb	0f25bh.4
                                 4832   
                                 4833   ;;	PB4C0  = 1;	
                                 4834   CLINEA 0000H 0001H 06B0H 0002H 000DH
00:0044 C0-A0 5A-F2              4835   	sb	0f25ah.4
                                 4836   
                                 4837   ;;	PB5C1  = 1;		// PortB Bit5 set to CMOS Output...
                                 4838   CLINEA 0000H 0001H 06B1H 0002H 0031H
00:0048 D0-A0 5B-F2              4839   	sb	0f25bh.5
                                 4840   
                                 4841   ;;	PB5C0  = 1;	
                                 4842   CLINEA 0000H 0001H 06B2H 0002H 000DH
00:004C D0-A0 5A-F2              4843   	sb	0f25ah.5
                                 4844   
                                 4845   ;;	PB6C1  = 1;		// PortB Bit6 set to CMOS Output...
                                 4846   CLINEA 0000H 0001H 06B3H 0002H 0031H
00:0050 E0-A0 5B-F2              4847   	sb	0f25bh.6
                                 4848   
                                 4849   ;;	PB6C0  = 1;	
                                 4850   CLINEA 0000H 0001H 06B4H 0002H 000DH
00:0054 E0-A0 5A-F2              4851   	sb	0f25ah.6
                                 4852   
                                 4853   ;;	PB7C1  = 1;		// PortB Bit7 set to CMOS Output...
                                 4854   CLINEA 0000H 0001H 06B5H 0002H 0031H
00:0058 F0-A0 5B-F2              4855   	sb	0f25bh.7
                                 4856   
                                 4857   ;;	PB7C0  = 1;	
                                 4858   CLINEA 0000H 0001H 06B6H 0002H 000DH
00:005C F0-A0 5A-F2              4859   	sb	0f25ah.7
                                 4860   
                                 4861   ;;	PB0MD1  = 0;	// PortB Bit0 set to General Purpose Output...
                                 4862   CLINEA 0000H 0001H 06B9H 0002H 003CH
00:0060 82-A0 5D-F2              4863   	rb	0f25dh.0
                                 4864   
                                 4865   ;;	PB0MD0  = 0;	
                                 4866   CLINEA 0000H 0001H 06BAH 0002H 000EH
00:0064 82-A0 5C-F2              4867   	rb	0f25ch.0
                                 4868   
                                 4869   ;;	PB1MD1  = 0;	// PortB Bit1 set to General Purpose Output...
                                 4870   CLINEA 0000H 0001H 06BBH 0002H 003CH
00:0068 92-A0 5D-F2              4871   	rb	0f25dh.1
                                 4872   
                                 4873   ;;	PB1MD0  = 0;	
                                 4874   CLINEA 0000H 0001H 06BCH 0002H 000EH
00:006C 92-A0 5C-F2              4875   	rb	0f25ch.1
                                 4876   
                                 4877   ;;	PB2MD1  = 0;	// PortB Bit2 set to General Purpose Output...
                                 4878   CLINEA 0000H 0001H 06BDH 0002H 003CH
00:0070 A2-A0 5D-F2              4879   	rb	0f25dh.2
                                 4880   
                                 4881   ;;	PB2MD0  = 0;	
                                 4882   CLINEA 0000H 0001H 06BEH 0002H 000EH
00:0074 A2-A0 5C-F2              4883   	rb	0f25ch.2
                                 4884   
                                 4885   ;;	PB3MD1  = 0;	// PortB Bit3 set to General Purpose Output...
                                 4886   CLINEA 0000H 0001H 06BFH 0002H 003CH
00:0078 B2-A0 5D-F2              4887   	rb	0f25dh.3
                                 4888   
                                 4889   ;;	PB3MD0  = 0;	
                                 4890   CLINEA 0000H 0001H 06C0H 0002H 000EH
00:007C B2-A0 5C-F2              4891   	rb	0f25ch.3
                                 4892   
                                 4893   ;;	PB4MD1  = 0;	// PortB Bit4 set to General Purpose Output...
                                 4894   CLINEA 0000H 0001H 06C1H 0002H 003CH
00:0080 C2-A0 5D-F2              4895   	rb	0f25dh.4
                                 4896   
                                 4897   ;;	PB4MD0  = 0;	
                                 4898   CLINEA 0000H 0001H 06C2H 0002H 000EH
00:0084 C2-A0 5C-F2              4899   	rb	0f25ch.4
                                 4900   
                                 4901   ;;	PB5MD1  = 0;	// PortB Bit5 set to General Purpose Output...
                                 4902   CLINEA 0000H 0001H 06C3H 0002H 003CH
00:0088 D2-A0 5D-F2              4903   	rb	0f25dh.5
                                 4904   
                                 4905   ;;	PB5MD0  = 0;
                                 4906   CLINEA 0000H 0001H 06C4H 0002H 000DH
00:008C D2-A0 5C-F2              4907   	rb	0f25ch.5
                                 4908   
                                 4909   ;;	PB6MD1  = 0;	// PortB Bit6 set to General Purpose Output...
                                 4910   CLINEA 0000H 0001H 06C5H 0002H 003CH
00:0090 E2-A0 5D-F2              4911   	rb	0f25dh.6
                                 4912   
                                 4913   ;;	PB6MD0  = 0;	
                                 4914   CLINEA 0000H 0001H 06C6H 0002H 000EH
00:0094 E2-A0 5C-F2              4915   	rb	0f25ch.6
                                 4916   
                                 4917   ;;	PB7MD1  = 0;	// PortB Bit7 set to General Purpose Output...
                                 4918   CLINEA 0000H 0001H 06C7H 0002H 003CH
00:0098 F2-A0 5D-F2              4919   	rb	0f25dh.7
                                 4920   
                                 4921   ;;	PB7MD0  = 0;
                                 4922   CLINEA 0000H 0001H 06C8H 0002H 000DH
00:009C F2-A0 5C-F2              4923   	rb	0f25ch.7
                                 4924   
                                 4925   ;;	PB0D = 0;		// B.0 Output OFF....
                                 4926   CLINEA 0000H 0001H 06CBH 0002H 0021H
00:00A0 82-A0 58-F2              4927   	rb	0f258h.0
                                 4928   
                                 4929   ;;	PB1D = 0;		// B.1 Output OFF....
                                 4930   CLINEA 0000H 0001H 06CCH 0002H 0021H
00:00A4 92-A0 58-F2              4931   	rb	0f258h.1
                                 4932   
                                 4933   ;;	PB2D = 0;		// B.2 Output OFF....
                                 4934   CLINEA 0000H 0001H 06CDH 0002H 0021H
00:00A8 A2-A0 58-F2              4935   	rb	0f258h.2
                                 4936   
                                 4937   ;;	PB3D = 0;		// B.3 Output OFF....
                                 4938   CLINEA 0000H 0001H 06CEH 0002H 0021H
00:00AC B2-A0 58-F2              4939   	rb	0f258h.3
                                 4940   
                                 4941   ;;	PB4D = 0;		// B.4 Output OFF....
                                 4942   CLINEA 0000H 0001H 06CFH 0002H 0021H
00:00B0 C2-A0 58-F2              4943   	rb	0f258h.4
                                 4944   
                                 4945   ;;	PB5D = 0;		// B.5 Output OFF....
                                 4946   CLINEA 0000H 0001H 06D0H 0002H 0021H
00:00B4 D2-A0 58-F2              4947   	rb	0f258h.5
                                 4948   
                                 4949   ;;	PB6D = 0;		// B.6 Output OFF....
                                 4950   CLINEA 0000H 0001H 06D1H 0002H 0021H
00:00B8 E2-A0 58-F2              4951   	rb	0f258h.6
                                 4952   
                                 4953   ;;	PB7D = 0;		// B.7 Output OFF....
                                 4954   CLINEA 0000H 0001H 06D2H 0002H 0021H
00:00BC F2-A0 58-F2              4955   	rb	0f258h.7
                                 4956   
                                 4957   ;;	main_clrWDT(); 	// Clear WDT
                                 4958   CLINEA 0000H 0001H 06D4H 0002H 001DH
00:00C0 00-F0'00-00'             4959   	b	_main_clrWDT
                                 4960   CBLOCKEND 183 2 1749
                                 4961   CLINEA 0000H 0001H 06D5H 0001H 0001H
                                 4962   CBLOCKEND 183 1 1749
                                 4963   CFUNCTIONEND 183
                                 4964   
                                 4965   
  --------------------------     4966   	rseg $$PortC_Low$main
                                 4967   CFUNCTION 184
                                 4968   
00:0000                          4969   _PortC_Low	:
                                 4970   CBLOCK 184 1 1755
                                 4971   
                                 4972   ;;void PortC_Low(void){
                                 4973   CLINEA 0000H 0001H 06DBH 0001H 0015H
                                 4974   CBLOCK 184 2 1755
                                 4975   
                                 4976   ;;	PC0DIR = 0;		// PortC Bit0 set to Output Mode...
                                 4977   CLINEA 0000H 0001H 06E5H 0002H 0031H
00:0000 82-A0 61-F2              4978   	rb	0f261h.0
                                 4979   
                                 4980   ;;	PC1DIR = 0;		// PortC Bit1 set to Output Mode...
                                 4981   CLINEA 0000H 0001H 06E6H 0002H 0031H
00:0004 92-A0 61-F2              4982   	rb	0f261h.1
                                 4983   
                                 4984   ;;	PC2DIR = 0;		// PortC Bit2 set to Output Mode...
                                 4985   CLINEA 0000H 0001H 06E7H 0002H 0031H
00:0008 A2-A0 61-F2              4986   	rb	0f261h.2
                                 4987   
                                 4988   ;;	PC3DIR = 0;		// PortC Bit3 set to Output Mode...
                                 4989   CLINEA 0000H 0001H 06E8H 0002H 0031H
00:000C B2-A0 61-F2              4990   	rb	0f261h.3
                                 4991   
                                 4992   ;;	PC4DIR = 0;		// PortC Bit4 set to Output Mode...
                                 4993   CLINEA 0000H 0001H 06E9H 0002H 0031H
00:0010 C2-A0 61-F2              4994   	rb	0f261h.4
                                 4995   
                                 4996   ;;	PC5DIR = 0;		// PortC Bit5 set to Output Mode...
                                 4997   CLINEA 0000H 0001H 06EAH 0002H 0031H
00:0014 D2-A0 61-F2              4998   	rb	0f261h.5
                                 4999   
                                 5000   ;;	PC6DIR = 0;		// PortC Bit6 set to Output Mode...
                                 5001   CLINEA 0000H 0001H 06EBH 0002H 0031H
00:0018 E2-A0 61-F2              5002   	rb	0f261h.6
                                 5003   
                                 5004   ;;	PC7DIR = 0;		// PortC Bit7 set to Output Mode...
                                 5005   CLINEA 0000H 0001H 06ECH 0002H 0031H
00:001C F2-A0 61-F2              5006   	rb	0f261h.7
                                 5007   
                                 5008   ;;	PC0C1  = 1;		// PortC Bit0 set to High-Impedance Output...
                                 5009   CLINEA 0000H 0001H 06EFH 0002H 003BH
00:0020 80-A0 63-F2              5010   	sb	0f263h.0
                                 5011   
                                 5012   ;;	PC0C0  = 1;		
                                 5013   CLINEA 0000H 0001H 06F0H 0002H 000EH
00:0024 80-A0 62-F2              5014   	sb	0f262h.0
                                 5015   
                                 5016   ;;	PC1C1  = 1;		// PortC Bit1 set to High-Impedance Output...
                                 5017   CLINEA 0000H 0001H 06F1H 0002H 003BH
00:0028 90-A0 63-F2              5018   	sb	0f263h.1
                                 5019   
                                 5020   ;;	PC1C0  = 1;	
                                 5021   CLINEA 0000H 0001H 06F2H 0002H 000DH
00:002C 90-A0 62-F2              5022   	sb	0f262h.1
                                 5023   
                                 5024   ;;	PC2C1  = 1;		// PortC Bit2 set to High-Impedance Output...
                                 5025   CLINEA 0000H 0001H 06F3H 0002H 003BH
00:0030 A0-A0 63-F2              5026   	sb	0f263h.2
                                 5027   
                                 5028   ;;	PC2C0  = 1;	
                                 5029   CLINEA 0000H 0001H 06F4H 0002H 000DH
00:0034 A0-A0 62-F2              5030   	sb	0f262h.2
                                 5031   
                                 5032   ;;	PC3C1  = 1;		// PortC Bit3 set to High-Impedance Output...
                                 5033   CLINEA 0000H 0001H 06F5H 0002H 003BH
00:0038 B0-A0 63-F2              5034   	sb	0f263h.3
                                 5035   
                                 5036   ;;	PC3C0  = 1;		
                                 5037   CLINEA 0000H 0001H 06F6H 0002H 000EH
00:003C B0-A0 62-F2              5038   	sb	0f262h.3
                                 5039   
                                 5040   ;;	PC4C1  = 1;		// PortC Bit4 set to High-Impedance Output...
                                 5041   CLINEA 0000H 0001H 06F7H 0002H 003BH
00:0040 C0-A0 63-F2              5042   	sb	0f263h.4
                                 5043   
                                 5044   ;;	PC4C0  = 1;	
                                 5045   CLINEA 0000H 0001H 06F8H 0002H 000DH
00:0044 C0-A0 62-F2              5046   	sb	0f262h.4
                                 5047   
                                 5048   ;;	PC5C1  = 1;		// PortC Bit5 set to High-Impedance Output...
                                 5049   CLINEA 0000H 0001H 06F9H 0002H 003BH
00:0048 D0-A0 63-F2              5050   	sb	0f263h.5
                                 5051   
                                 5052   ;;	PC5C0  = 1;	
                                 5053   CLINEA 0000H 0001H 06FAH 0002H 000DH
00:004C D0-A0 62-F2              5054   	sb	0f262h.5
                                 5055   
                                 5056   ;;	PC6C1  = 1;		// PortC Bit6 set to High-Impedance Output...
                                 5057   CLINEA 0000H 0001H 06FBH 0002H 003BH
00:0050 E0-A0 63-F2              5058   	sb	0f263h.6
                                 5059   
                                 5060   ;;	PC6C0  = 1;	
                                 5061   CLINEA 0000H 0001H 06FCH 0002H 000DH
00:0054 E0-A0 62-F2              5062   	sb	0f262h.6
                                 5063   
                                 5064   ;;	PC7C1  = 1;		// PortC Bit7 set to High-Impedance Output...
                                 5065   CLINEA 0000H 0001H 06FDH 0002H 003BH
00:0058 F0-A0 63-F2              5066   	sb	0f263h.7
                                 5067   
                                 5068   ;;	PC7C0  = 1;	
                                 5069   CLINEA 0000H 0001H 06FEH 0002H 000DH
00:005C F0-A0 62-F2              5070   	sb	0f262h.7
                                 5071   
                                 5072   ;;	PC0MD1  = 0;	// PortC Bit0 set to General Purpose Output...
                                 5073   CLINEA 0000H 0001H 0701H 0002H 003CH
00:0060 82-A0 65-F2              5074   	rb	0f265h.0
                                 5075   
                                 5076   ;;	PC0MD0  = 0;	
                                 5077   CLINEA 0000H 0001H 0702H 0002H 000EH
00:0064 82-A0 64-F2              5078   	rb	0f264h.0
                                 5079   
                                 5080   ;;	PC1MD1  = 0;	// PortC Bit1 set to General Purpose Output...
                                 5081   CLINEA 0000H 0001H 0703H 0002H 003CH
00:0068 92-A0 65-F2              5082   	rb	0f265h.1
                                 5083   
                                 5084   ;;	PC1MD0  = 0;	
                                 5085   CLINEA 0000H 0001H 0704H 0002H 000EH
00:006C 92-A0 64-F2              5086   	rb	0f264h.1
                                 5087   
                                 5088   ;;	PC2MD1  = 0;	// PortC Bit2 set to General Purpose Output...
                                 5089   CLINEA 0000H 0001H 0705H 0002H 003CH
00:0070 A2-A0 65-F2              5090   	rb	0f265h.2
                                 5091   
                                 5092   ;;	PC2MD0  = 0;	
                                 5093   CLINEA 0000H 0001H 0706H 0002H 000EH
00:0074 A2-A0 64-F2              5094   	rb	0f264h.2
                                 5095   
                                 5096   ;;	PC3MD1  = 0;	// PortC Bit3 set to General Purpose Output...
                                 5097   CLINEA 0000H 0001H 0707H 0002H 003CH
00:0078 B2-A0 65-F2              5098   	rb	0f265h.3
                                 5099   
                                 5100   ;;	PC3MD0  = 0;	
                                 5101   CLINEA 0000H 0001H 0708H 0002H 000EH
00:007C B2-A0 64-F2              5102   	rb	0f264h.3
                                 5103   
                                 5104   ;;	PC4MD1  = 0;	// PortC Bit4 set to General Purpose Output...
                                 5105   CLINEA 0000H 0001H 0709H 0002H 003CH
00:0080 C2-A0 65-F2              5106   	rb	0f265h.4
                                 5107   
                                 5108   ;;	PC4MD0  = 0;	
                                 5109   CLINEA 0000H 0001H 070AH 0002H 000EH
00:0084 C2-A0 64-F2              5110   	rb	0f264h.4
                                 5111   
                                 5112   ;;	PC5MD1  = 0;	// PortC Bit5 set to General Purpose Output...
                                 5113   CLINEA 0000H 0001H 070BH 0002H 003CH
00:0088 D2-A0 65-F2              5114   	rb	0f265h.5
                                 5115   
                                 5116   ;;	PC5MD0  = 0;
                                 5117   CLINEA 0000H 0001H 070CH 0002H 000DH
00:008C D2-A0 64-F2              5118   	rb	0f264h.5
                                 5119   
                                 5120   ;;	PC6MD1  = 0;	// PortC Bit6 set to General Purpose Output...
                                 5121   CLINEA 0000H 0001H 070DH 0002H 003CH
00:0090 E2-A0 65-F2              5122   	rb	0f265h.6
                                 5123   
                                 5124   ;;	PC6MD0  = 0;	
                                 5125   CLINEA 0000H 0001H 070EH 0002H 000EH
00:0094 E2-A0 64-F2              5126   	rb	0f264h.6
                                 5127   
                                 5128   ;;	PC7MD1  = 0;	// PortC Bit7 set to General Purpose Output...
                                 5129   CLINEA 0000H 0001H 070FH 0002H 003CH
00:0098 F2-A0 65-F2              5130   	rb	0f265h.7
                                 5131   
                                 5132   ;;	PC7MD0  = 0;
                                 5133   CLINEA 0000H 0001H 0710H 0002H 000DH
00:009C F2-A0 64-F2              5134   	rb	0f264h.7
                                 5135   
                                 5136   ;;	PC0D = 0;		// C.0 Output OFF....
                                 5137   CLINEA 0000H 0001H 0713H 0002H 0021H
00:00A0 82-A0 60-F2              5138   	rb	0f260h.0
                                 5139   
                                 5140   ;;	PC1D = 0;		// C.1 Output OFF....
                                 5141   CLINEA 0000H 0001H 0714H 0002H 0021H
00:00A4 92-A0 60-F2              5142   	rb	0f260h.1
                                 5143   
                                 5144   ;;	PC2D = 0;		// C.2 Output OFF....
                                 5145   CLINEA 0000H 0001H 0715H 0002H 0021H
00:00A8 A2-A0 60-F2              5146   	rb	0f260h.2
                                 5147   
                                 5148   ;;	PC3D = 0;		// C.3 Output OFF....
                                 5149   CLINEA 0000H 0001H 0716H 0002H 0021H
00:00AC B2-A0 60-F2              5150   	rb	0f260h.3
                                 5151   
                                 5152   ;;	PC4D = 0;		// C.4 Output OFF....
                                 5153   CLINEA 0000H 0001H 0717H 0002H 0021H
00:00B0 C2-A0 60-F2              5154   	rb	0f260h.4
                                 5155   
                                 5156   ;;	PC5D = 0;		// C.5 Output OFF....
                                 5157   CLINEA 0000H 0001H 0718H 0002H 0021H
00:00B4 D2-A0 60-F2              5158   	rb	0f260h.5
                                 5159   
                                 5160   ;;	PC6D = 0;		// C.6 Output OFF....
                                 5161   CLINEA 0000H 0001H 0719H 0002H 0021H
00:00B8 E2-A0 60-F2              5162   	rb	0f260h.6
                                 5163   
                                 5164   ;;	PC7D = 0;		// C.7 Output OFF....
                                 5165   CLINEA 0000H 0001H 071AH 0002H 0021H
00:00BC F2-A0 60-F2              5166   	rb	0f260h.7
                                 5167   
                                 5168   ;;	main_clrWDT(); 	// Clear WDT
                                 5169   CLINEA 0000H 0001H 071CH 0002H 001DH
00:00C0 00-F0'00-00'             5170   	b	_main_clrWDT
                                 5171   CBLOCKEND 184 2 1822
                                 5172   CLINEA 0000H 0001H 071EH 0001H 0001H
                                 5173   CBLOCKEND 184 1 1822
                                 5174   CFUNCTIONEND 184
                                 5175   
                                 5176   
  --------------------------     5177   	rseg $$PortD_Low$main
                                 5178   CFUNCTION 185
                                 5179   
00:0000                          5180   _PortD_Low	:
                                 5181   CBLOCK 185 1 1828
                                 5182   
                                 5183   ;;void PortD_Low(void){
                                 5184   CLINEA 0000H 0001H 0724H 0001H 0015H
                                 5185   CBLOCK 185 2 1828
                                 5186   
                                 5187   ;;	PD0DIR = 1;		// PortD Bit0 set to Input Mode...
                                 5188   CLINEA 0000H 0001H 072DH 0002H 0030H
00:0000 80-A0 69-F2              5189   	sb	0f269h.0
                                 5190   
                                 5191   ;;	PD1DIR = 1;		// PortD Bit1 set to Input Mode...
                                 5192   CLINEA 0000H 0001H 072EH 0002H 0030H
00:0004 90-A0 69-F2              5193   	sb	0f269h.1
                                 5194   
                                 5195   ;;	PD2DIR = 1;		// PortD Bit2 set to Input Mode...
                                 5196   CLINEA 0000H 0001H 072FH 0002H 0030H
00:0008 A0-A0 69-F2              5197   	sb	0f269h.2
                                 5198   
                                 5199   ;;	PD3DIR = 1;		// PortD Bit3 set to Input Mode...
                                 5200   CLINEA 0000H 0001H 0730H 0002H 0030H
00:000C B0-A0 69-F2              5201   	sb	0f269h.3
                                 5202   
                                 5203   ;;	PD4DIR = 1;		// PortD Bit4 set to Input Mode...
                                 5204   CLINEA 0000H 0001H 0731H 0002H 0030H
00:0010 C0-A0 69-F2              5205   	sb	0f269h.4
                                 5206   
                                 5207   ;;	PD5DIR = 1;		// PortD Bit5 set to Input Mode...
                                 5208   CLINEA 0000H 0001H 0732H 0002H 0030H
00:0014 D0-A0 69-F2              5209   	sb	0f269h.5
                                 5210   
                                 5211   ;;	PD0C1= 1;		// PortD Bit0 set to High-impedance input...
                                 5212   CLINEA 0000H 0001H 0735H 0002H 0038H
00:0018 80-A0 6B-F2              5213   	sb	0f26bh.0
                                 5214   
                                 5215   ;;	PD0C0= 1;		
                                 5216   CLINEA 0000H 0001H 0736H 0002H 000CH
00:001C 80-A0 6A-F2              5217   	sb	0f26ah.0
                                 5218   
                                 5219   ;;	PD1C1= 1;		// PortD Bit1 set to High-impedance input...
                                 5220   CLINEA 0000H 0001H 0737H 0002H 0038H
00:0020 90-A0 6B-F2              5221   	sb	0f26bh.1
                                 5222   
                                 5223   ;;	PD1C0= 1;	
                                 5224   CLINEA 0000H 0001H 0738H 0002H 000BH
00:0024 90-A0 6A-F2              5225   	sb	0f26ah.1
                                 5226   
                                 5227   ;;	PD2C1= 1;		// PortD Bit2 set to High-impedance input...
                                 5228   CLINEA 0000H 0001H 0739H 0002H 0038H
00:0028 A0-A0 6B-F2              5229   	sb	0f26bh.2
                                 5230   
                                 5231   ;;	PD2C0= 1;	
                                 5232   CLINEA 0000H 0001H 073AH 0002H 000BH
00:002C A0-A0 6A-F2              5233   	sb	0f26ah.2
                                 5234   
                                 5235   ;;	PD3C1= 1;		// PortD Bit3 set to High-impedance input...
                                 5236   CLINEA 0000H 0001H 073BH 0002H 0038H
00:0030 B0-A0 6B-F2              5237   	sb	0f26bh.3
                                 5238   
                                 5239   ;;	PD3C0= 1;		
                                 5240   CLINEA 0000H 0001H 073CH 0002H 000CH
00:0034 B0-A0 6A-F2              5241   	sb	0f26ah.3
                                 5242   
                                 5243   ;;	PD4C1= 1;		// PortD Bit4 set to High-impedance input...
                                 5244   CLINEA 0000H 0001H 073DH 0002H 0038H
00:0038 C0-A0 6B-F2              5245   	sb	0f26bh.4
                                 5246   
                                 5247   ;;	PD4C0= 1;	
                                 5248   CLINEA 0000H 0001H 073EH 0002H 000BH
00:003C C0-A0 6A-F2              5249   	sb	0f26ah.4
                                 5250   
                                 5251   ;;	PD5C1= 1;		// PortD Bit5 set to High-impedance input...
                                 5252   CLINEA 0000H 0001H 073FH 0002H 0038H
00:0040 D0-A0 6B-F2              5253   	sb	0f26bh.5
                                 5254   
                                 5255   ;;	PD5C0= 1;	
                                 5256   CLINEA 0000H 0001H 0740H 0002H 000BH
00:0044 D0-A0 6A-F2              5257   	sb	0f26ah.5
                                 5258   
                                 5259   ;;	PD0D = 0;		// D.0 Input OFF....
                                 5260   CLINEA 0000H 0001H 0743H 0002H 0020H
00:0048 82-A0 68-F2              5261   	rb	0f268h.0
                                 5262   
                                 5263   ;;	PD1D = 0;		// D.1 Input OFF....
                                 5264   CLINEA 0000H 0001H 0744H 0002H 0020H
00:004C 92-A0 68-F2              5265   	rb	0f268h.1
                                 5266   
                                 5267   ;;	PD2D = 0;		// D.2 Input OFF....
                                 5268   CLINEA 0000H 0001H 0745H 0002H 0020H
00:0050 A2-A0 68-F2              5269   	rb	0f268h.2
                                 5270   
                                 5271   ;;	PD3D = 0;		// D.3 Input OFF....
                                 5272   CLINEA 0000H 0001H 0746H 0002H 0020H
00:0054 B2-A0 68-F2              5273   	rb	0f268h.3
                                 5274   
                                 5275   ;;	PD4D = 0;		// D.4 Input OFF....
                                 5276   CLINEA 0000H 0001H 0747H 0002H 0020H
00:0058 C2-A0 68-F2              5277   	rb	0f268h.4
                                 5278   
                                 5279   ;;	PD5D = 0;		// D.5 Input OFF....
                                 5280   CLINEA 0000H 0001H 0748H 0002H 0020H
00:005C D2-A0 68-F2              5281   	rb	0f268h.5
                                 5282   
                                 5283   ;;	main_clrWDT(); 	// Clear WDT
                                 5284   CLINEA 0000H 0001H 074AH 0002H 001DH
00:0060 00-F0'00-00'             5285   	b	_main_clrWDT
                                 5286   CBLOCKEND 185 2 1867
                                 5287   CLINEA 0000H 0001H 074BH 0001H 0001H
                                 5288   CBLOCKEND 185 1 1867
                                 5289   CFUNCTIONEND 185
                                 5290   
                                 5291   
  --------------------------     5292   	rseg $$NOPms$main
                                 5293   CFUNCTION 196
                                 5294   
00:0000                          5295   _NOPms	:
                                 5296   CBLOCK 196 1 1881
                                 5297   
                                 5298   ;;{
                                 5299   CLINEA 0000H 0001H 0759H 0001H 0001H
00:0000 CE-F8                    5300   	push	lr
00:0002 6E-F4                    5301   	push	xr4
00:0004 5E-FC                    5302   	push	bp
00:0006 5E-F8                    5303   	push	er8
00:0008 05-F8                    5304   	mov	er8,	er0
                                 5305   CBLOCK 196 2 1881
                                 5306   CRET 0008H
                                 5307   CARGUMENT 46H 0002H 0028H "ms" 02H 00H 01H
                                 5308   CLOCAL 46H 0002H 002AH 0002H "timerThres" 02H 00H 01H
                                 5309   CLOCAL 46H 0001H 001AH 0002H "TimeFlag" 02H 00H 00H
                                 5310   CLOCAL 46H 0002H 0026H 0002H "TempSec" 02H 00H 01H
                                 5311   CLOCAL 46H 0002H 0024H 0002H "timer" 02H 00H 01H
                                 5312   CLOCAL 4AH 0002H 0000H 0002H "timertest" 02H 00H 01H
                                 5313   
                                 5314   ;;	TempSec = ms;
                                 5315   CLINEA 0000H 0001H 0760H 0002H 000EH
00:000A 05-F4                    5316   	mov	er4,	er0
                                 5317   
                                 5318   ;;	TimeFlag = 0;
                                 5319   CLINEA 0000H 0001H 0761H 0002H 000EH
00:000C 00 06                    5320   	mov	r6,	#00h
                                 5321   
                                 5322   ;;	tm_init(TM_CH_NO_AB);
                                 5323   CLINEA 0000H 0001H 0763H 0002H 0016H
00:000E 01 00                    5324   	mov	r0,	#01h
00:0010 01-F0'00-00'             5325   	bl	_tm_init
                                 5326   
                                 5327   ;;	tm_setABSource(TM_CS_HTBCLK);
                                 5328   CLINEA 0000H 0001H 0764H 0002H 001EH
00:0014 80-A0 EA-F8              5329   	sb	0f8eah.0
00:0018 92-A0 EA-F8              5330   	rb	0f8eah.1
                                 5331   
                                 5332   ;;	tm_setABData(0xffff);
                                 5333   CLINEA 0000H 0001H 0765H 0002H 0016H
00:001C FF 00                    5334   	mov	r0,	#0ffh
00:001E 11-90 E8-F8              5335   	st	r0,	0f8e8h
00:0022 11-90 EC-F8              5336   	st	r0,	0f8ech
                                 5337   
                                 5338   ;;	if(ms < 128){
                                 5339   CLINEA 0000H 0001H 0767H 0002H 000EH
00:0026 85-F0                    5340   	mov	er0,	er8
00:0028 80 78                    5341   	cmp	r8,	#080h
00:002A 00 59                    5342   	cmpc	r9,	#00h
00:002C 07 C0                    5343   	bge	_$L242
                                 5344   CBLOCK 196 3 1895
                                 5345   
                                 5346   ;;		timerThres = 0x1FF * ms;
                                 5347   CLINEA 0000H 0001H 0768H 0003H 001AH
00:002E 7B-91                    5348   	sllc	r1,	#07h
00:0030 7A-90                    5349   	sll	r0,	#07h
00:0032 2B-91                    5350   	sllc	r1,	#02h
00:0034 2A-90                    5351   	sll	r0,	#02h
00:0036 88-80                    5352   	sub	r0,	r8
00:0038 99-81                    5353   	subc	r1,	r9
00:003A 05-FC                    5354   	mov	bp,	er0
                                 5355   
                                 5356   ;;		TimeFlag = 0;
                                 5357   CLINEA 0000H 0001H 0769H 0003H 000FH
                                 5358   CBLOCKEND 196 3 1898
                                 5359   
                                 5360   ;;	}
                                 5361   CLINEA 0000H 0000H 076AH 0002H 0002H
00:003C                          5362   _$L242 :
                                 5363   
                                 5364   ;;	if(ms == 128){
                                 5365   CLINEA 0000H 0001H 076BH 0002H 000FH
00:003C 80 78                    5366   	cmp	r8,	#080h
00:003E 00 59                    5367   	cmpc	r9,	#00h
00:0040 02 C8                    5368   	bne	_$L244
                                 5369   CBLOCK 196 4 1899
                                 5370   
                                 5371   ;;		timerThres = 0xFFFF;
                                 5372   CLINEA 0000H 0001H 076CH 0003H 0016H
00:0042 7F EC                    5373   	mov	bp,	#-1
                                 5374   
                                 5375   ;;		TimeFlag = 0;
                                 5376   CLINEA 0000H 0001H 076DH 0003H 000FH
00:0044 00 06                    5377   	mov	r6,	#00h
                                 5378   CBLOCKEND 196 4 1902
                                 5379   
                                 5380   ;;	}
                                 5381   CLINEA 0000H 0000H 076EH 0002H 0002H
00:0046                          5382   _$L244 :
                                 5383   
                                 5384   ;;	if(ms > 128){
                                 5385   CLINEA 0000H 0001H 076FH 0002H 000EH
00:0046 80 78                    5386   	cmp	r8,	#080h
00:0048 00 59                    5387   	cmpc	r9,	#00h
00:004A 15 C3                    5388   	ble	_$L254
                                 5389   CBLOCK 196 5 1903
                                 5390   
                                 5391   ;;		while(TempSec > 128){
                                 5392   CLINEA 0000H 0000H 0770H 0001H 0001H
00:004C 04 CE                    5393   	bal	_$L262
                                 5394   
                                 5395   ;;		while(TempSec > 128){
                                 5396   CLINEA 0000H 0000H 0770H 0003H 0017H
00:004E                          5397   _$L250 :
                                 5398   CBLOCK 196 6 1904
                                 5399   
                                 5400   ;;			TempSec -= 128;
                                 5401   CLINEA 0000H 0001H 0771H 0004H 0012H
00:004E 80 10                    5402   	add	r0,	#080h
00:0050 FF 61                    5403   	addc	r1,	#0ffh
00:0052 05-F4                    5404   	mov	er4,	er0
                                 5405   
                                 5406   ;;			TimeFlag++;
                                 5407   CLINEA 0000H 0000H 0772H 0004H 000EH
00:0054 01 16                    5408   	add	r6,	#01h
                                 5409   CBLOCKEND 196 6 1907
                                 5410   
                                 5411   ;;		while(TempSec > 128){
                                 5412   CLINEA 0000H 0000H 0770H 0001H 0001H
00:0056                          5413   _$L262 :
00:0056 45-F0                    5414   	mov	er0,	er4
00:0058 80 74                    5415   	cmp	r4,	#080h
00:005A 00 55                    5416   	cmpc	r5,	#00h
00:005C F8 C2                    5417   	bgt	_$L250
                                 5418   
                                 5419   ;;		if(TempSec != 0){
                                 5420   CLINEA 0000H 0001H 0774H 0003H 0013H
00:005E 45-F4                    5421   	mov	er4,	er4
00:0060 08 C9                    5422   	beq	_$L252
                                 5423   CBLOCK 196 7 1908
                                 5424   
                                 5425   ;;			timerThres = 0x1FF * TempSec;
                                 5426   CLINEA 0000H 0001H 0775H 0004H 0020H
00:0062 7B-91                    5427   	sllc	r1,	#07h
00:0064 7A-90                    5428   	sll	r0,	#07h
00:0066 2B-91                    5429   	sllc	r1,	#02h
00:0068 2A-90                    5430   	sll	r0,	#02h
00:006A 48-80                    5431   	sub	r0,	r4
00:006C 59-81                    5432   	subc	r1,	r5
00:006E 05-FC                    5433   	mov	bp,	er0
                                 5434   CBLOCKEND 196 7 1910
                                 5435   
                                 5436   ;;		else{
                                 5437   CLINEA 0000H 0001H 0777H 0003H 0007H
00:0070 02 CE                    5438   	bal	_$L254
00:0072                          5439   _$L252 :
                                 5440   CBLOCK 196 8 1911
                                 5441   
                                 5442   ;;			timerThres = 0xFFFF;
                                 5443   CLINEA 0000H 0001H 0778H 0004H 0017H
00:0072 7F EC                    5444   	mov	bp,	#-1
                                 5445   
                                 5446   ;;			TimeFlag--;
                                 5447   CLINEA 0000H 0000H 0779H 0004H 000EH
00:0074 FF 16                    5448   	add	r6,	#0ffh
                                 5449   CBLOCKEND 196 8 1914
                                 5450   
                                 5451   ;;		}
                                 5452   CLINEA 0000H 0000H 077AH 0003H 0003H
00:0076                          5453   _$L254 :
                                 5454   CBLOCKEND 196 5 1915
                                 5455   
                                 5456   ;;	main_clrWDT();	
                                 5457   CLINEA 0000H 0001H 077EH 0002H 0010H
00:0076 01-F0'00-00'             5458   	bl	_main_clrWDT
                                 5459   
                                 5460   ;;	tm_startAB();
                                 5461   CLINEA 0000H 0001H 0780H 0002H 000EH
00:007A 00 00                    5462   	mov	r0,	#00h
00:007C 11-90 E9-F8              5463   	st	r0,	0f8e9h
00:0080 80-A0 EB-F8              5464   	sb	0f8ebh.0
                                 5465   
                                 5466   ;;	while(timer < timerThres){
                                 5467   CLINEA 0000H 0001H 0782H 0002H 001BH
00:0084                          5468   _$L258 :
                                 5469   CBLOCK 196 9 1922
                                 5470   
                                 5471   ;;		timer = tm_getABCounter();
                                 5472   CLINEA 0000H 0000H 0783H 0003H 001CH
                                 5473   CBLOCKEND 196 9 1925
                                 5474   
                                 5475   ;;	}
                                 5476   CLINEA 0000H 0000H 0785H 0002H 0002H
00:0084                          5477   _$L256 :
00:0084 10-90 E9-F8              5478   	l	r0,	0f8e9h
00:0088 00 01                    5479   	mov	r1,	#00h
00:008A 05-F2                    5480   	mov	er2,	er0
00:008C 10-90 ED-F8              5481   	l	r0,	0f8edh
00:0090 03-83                    5482   	or	r3,	r0
                                 5483   
                                 5484   ;;	while(timer < timerThres){
                                 5485   CLINEA 0000H 0000H 0782H 0000H 0000H
00:0092 C7-F2                    5486   	cmp	er2,	bp
00:0094 F7 C1                    5487   	blt	_$L258
                                 5488   
                                 5489   ;;	if(TimeFlag !=0){
                                 5490   CLINEA 0000H 0001H 0786H 0002H 0012H
00:0096 00 76                    5491   	cmp	r6,	#00h
00:0098 05 C9                    5492   	beq	_$L260
                                 5493   
                                 5494   ;;		tm_stopAB();
                                 5495   CLINEA 0000H 0001H 0787H 0003H 000EH
00:009A 82-A0 EB-F8              5496   	rb	0f8ebh.0
                                 5497   
                                 5498   ;;		TimeFlag--;
                                 5499   CLINEA 0000H 0000H 0788H 0003H 000DH
00:009E FF 16                    5500   	add	r6,	#0ffh
                                 5501   
                                 5502   ;;		timerThres = 0xFFFF;
                                 5503   CLINEA 0000H 0001H 0789H 0003H 0016H
00:00A0 7F EC                    5504   	mov	bp,	#-1
                                 5505   
                                 5506   ;;		goto TimerRestart;
                                 5507   CLINEA 0000H 0001H 078AH 0003H 0014H
00:00A2 E9 CE                    5508   	bal	_$L254
                                 5509   
                                 5510   ;;	}
                                 5511   CLINEA 0000H 0000H 078BH 0002H 0002H
00:00A4                          5512   _$L260 :
                                 5513   CBLOCKEND 196 2 1932
                                 5514   
                                 5515   ;;}
                                 5516   CLINEA 0000H 0001H 078CH 0001H 0001H
00:00A4 1E-F8                    5517   	pop	er8
00:00A6 1E-FC                    5518   	pop	bp
00:00A8 2E-F4                    5519   	pop	xr4
00:00AA 8E-F2                    5520   	pop	pc
                                 5521   CBLOCKEND 196 1 1932
                                 5522   CFUNCTIONEND 196
                                 5523   
                                 5524   	public _KX022_SELF_TEST
                                 5525   	public _Init_Hall_Effect_Sensors_1
                                 5526   	public _Init_Hall_Effect_Sensors_2
                                 5527   	public _KMX61_WUFC
                                 5528   	public _BH1780GLI_REG_PART_ID
                                 5529   	public _BH1730FVC_CMD_RESET_INT_OUT
                                 5530   	public _KX022_INT_REL
                                 5531   	public _BH1780GLI_REG_DATALOW
                                 5532   	public _BH1721FVC_CONT_A_RES_MOD
                                 5533   	public _BH1710FVC_CONT_H_RES_MOD
                                 5534   	public _BH1721FVC_CONT_H_RES_MOD
                                 5535   	public _MainOp_Hall_Effect_Sensors_1
                                 5536   	public _MainOp_Hall_Effect_Sensors_2
                                 5537   	public _BH1730FVC_REG_THHHIGH
                                 5538   	public _NOPms
                                 5539   	public _BH1780GLI_REG_DATAHIGH
                                 5540   	public _MainOp_Temperature_Sensor_20
                                 5541   	public _MainOp_Temperature_Sensor_21
                                 5542   	public _MainOp_Temperature_Sensor_22
                                 5543   	public _MainOp_Temperature_Sensor_23
                                 5544   	public _main_clrWDT
                                 5545   	public _KMX61_BTSC
                                 5546   	public _KMX61_ODCNTL
                                 5547   	public _KMX61_COTR
                                 5548   	public _main_reqNotHalt
                                 5549   	public _KX022_STAT
                                 5550   	public _MainOp_UV_Sensor_10
                                 5551   	public _KMX61_STATUS_REG
                                 5552   	public _BH1730FVC_REG_INTERRUPT
                                 5553   	public _KX022_XOUTL
                                 5554   	public _KX022_XOUTH
                                 5555   	public _KX022_BUF_READ
                                 5556   	public _KMX61_WUFTH
                                 5557   	public _KMX61_STBY_REG
                                 5558   	public _BH1710FVC_CONT_M_RES_MOD
                                 5559   	public _KX022_YHPL
                                 5560   	public _KX022_YHPH
                                 5561   	public _DeviceSelection
                                 5562   	public _KX022_I2C_ADDR
                                 5563   	public _KMX61_INC1
                                 5564   	public _KMX61_INC2
                                 5565   	public _KMX61_INC3
                                 5566   	public _KX022_XHPL
                                 5567   	public _KX022_XHPH
                                 5568   	public _Init_KX022
                                 5569   	public _BH17xxFVC_PWR_DOWN
                                 5570   	public _KMX61_ACCEL_YOUT_H
                                 5571   	public _BH1710FVC_CONT_L_RES_MOD
                                 5572   	public _KMX61_ACCEL_YOUT_L
                                 5573   	public _BH1721FVC_CONT_L_RES_MOD
                                 5574   	public _KMX61_INS1
                                 5575   	public _KMX61_INS2
                                 5576   	public _KX022_TDTC
                                 5577   	public _BH1780GLI_REG_MFG_ID
                                 5578   	public _KX022_ZHPL
                                 5579   	public _KX022_ZHPH
                                 5580   	public _KX022_TDTRC
                                 5581   	public _KMX61_MAG_YOUT_H
                                 5582   	public _KMX61_MAG_YOUT_L
                                 5583   	public _MainOp_KMX61
                                 5584   	public _KX022_TILT_ANGLE_HL
                                 5585   	public _KX022_TILT_ANGLE_LL
                                 5586   	public _KMX61_BUF_THRESH_H
                                 5587   	public _KMX61_BUF_THRESH_L
                                 5588   	public _BH1730FVC_CMD_STOP_MIM
                                 5589   	public _KX022_ODCNTL
                                 5590   	public _KMX61_BUF_CLEAR
                                 5591   	public _Init_Temperature_Sensor_20
                                 5592   	public _Init_Temperature_Sensor_21
                                 5593   	public _Init_Temperature_Sensor_22
                                 5594   	public _main
                                 5595   	public _Init_Temperature_Sensor_23
                                 5596   	public _Init_UV_Sensor_10
                                 5597   	public _KX022_BUF_STATUS_1
                                 5598   	public _KX022_BUF_STATUS_2
                                 5599   	public _KX022_WHO_AM_I
                                 5600   	public _SensorInitialization
                                 5601   	public _BH1730FVC_REG_DATA1HIGH
                                 5602   	public _KX022_ZOUTL
                                 5603   	public _KX022_ZOUTH
                                 5604   	public _I2C_Write
                                 5605   	public _KX022_TSCP
                                 5606   	public _PortD_Low
                                 5607   	public _KX022_TSPP
                                 5608   	public _BH1730FVC_REG_TIMING
                                 5609   	public _KMX61_BTH
                                 5610   	public _BH1730FVC_REG_ID
                                 5611   	public _KMX61_TEMP_EN_CNTL
                                 5612   	public _KMX61_CNTL1
                                 5613   	public _write
                                 5614   	public _KMX61_CNTL2
                                 5615   	public _KMX61_XOUT_HPF_L
                                 5616   	public _KMX61_XOUT_HPF_H
                                 5617   	public _KX022_BUF_CLEAR
                                 5618   	public _BH1710FVC_RESET
                                 5619   	public _BH1730FVC_REG_CONTROL
                                 5620   	public _KMX61_INL
                                 5621   	public _KX022_WUFC
                                 5622   	public _BH1730FVC_REG_DATA0HIGH
                                 5623   	public _KX022_YOUTL
                                 5624   	public _KX022_YOUTH
                                 5625   	public _BH17xxFVC_PWR_ON
                                 5626   	public _BH1710FVC_ONET_L_RES_MOD
                                 5627   	public _KMX61_ZOUT_HPF_L
                                 5628   	public _KX022_LP_CNTL
                                 5629   	public _BH1730FVC_REG_THLHIGH
                                 5630   	public _KMX61_ZOUT_HPF_H
                                 5631   	public _PortC_Low
                                 5632   	public _KMX61_YOUT_HPF_L
                                 5633   	public _BH1730FVC_CMD_START_MIM
                                 5634   	public _KMX61_YOUT_HPF_H
                                 5635   	public _KX022_ATH
                                 5636   	public _KMX61_SN_1
                                 5637   	public _KMX61_SN_2
                                 5638   	public _KMX61_SN_3
                                 5639   	public _KMX61_SN_4
                                 5640   	public _BH1780GLI_REG_CONTROL
                                 5641   	public _KX022_COTR
                                 5642   	public _PortB_Low
                                 5643   	public _KX022_FTD
                                 5644   	public _KX022_BUF_CNTL1
                                 5645   	public _KX022_BUF_CNTL2
                                 5646   	public _KMX61_I2C_ADDR
                                 5647   	public _KMX61_BUF_READ
                                 5648   	public _BH17xxFVC_ADDR_1
                                 5649   	public _BH17xxFVC_ADDR_2
                                 5650   	public _BH1730FVC_REG_THHLOW
                                 5651   	public _BH1710FVC_ONET_M_RES_MOD
                                 5652   	public _KX022_CNTL1
                                 5653   	public _KX022_CNTL2
                                 5654   	public _KX022_CNTL3
                                 5655   	public _KMX61_TEMP_OUT_H
                                 5656   	public _KMX61_TEMP_OUT_L
                                 5657   	public _KX022_STD
                                 5658   	public _KMX61_ACCEL_XOUT_H
                                 5659   	public _KMX61_ACCEL_ZOUT_H
                                 5660   	public _KMX61_ACCEL_XOUT_L
                                 5661   	public _KMX61_ACCEL_ZOUT_L
                                 5662   	public _BH1710FVC_ONET_H_RES_MOD
                                 5663   	public _I2C_Read
                                 5664   	public _ADC_Read
                                 5665   	public _KX022_INC1
                                 5666   	public _KX022_INC2
                                 5667   	public _KX022_INC3
                                 5668   	public _KX022_INC4
                                 5669   	public _KX022_INC5
                                 5670   	public _BH1730FVC_REG_GAIN
                                 5671   	public _KX022_INC6
                                 5672   	public _KX022_TLT
                                 5673   	public _KMX61_BUF_CTRL1
                                 5674   	public _KMX61_BUF_CTRL2
                                 5675   	public _MainOp_KX022
                                 5676   	public _BH1730FVC_CMD_SW_RESET
                                 5677   	public _KX022_TTH
                                 5678   	public _Init_Ambient_Light_Sensor_5
                                 5679   	public _Init_Ambient_Light_Sensor_6
                                 5680   	public _Init_Ambient_Light_Sensor_7
                                 5681   	public _Init_Ambient_Light_Sensor_8
                                 5682   	public _KX022_TTL
                                 5683   	public _Init_Ambient_Light_Sensor_9
                                 5684   	public _KX022_INS1
                                 5685   	public _KX022_INS2
                                 5686   	public _KX022_INS3
                                 5687   	public _KX022_TWS
                                 5688   	public _KMX61_BUF_STATUS_L
                                 5689   	public _BH1730FVC_REG_DATA0LOW
                                 5690   	public _PortA_Low
                                 5691   	public _KMX61_BUF_STATUS_H
                                 5692   	public _KMX61_MAG_XOUT_H
                                 5693   	public _KMX61_MAG_ZOUT_H
                                 5694   	public _KMX61_MAG_XOUT_L
                                 5695   	public _KMX61_MAG_ZOUT_L
                                 5696   	public _KMX61_SELF_TEST
                                 5697   	public _BH1730FVC_REG_THLLOW
                                 5698   	public _KX022_HYST_SET
                                 5699   	public _KMX61_WHO_AM_I
                                 5700   	public _Init_KMX61
                                 5701   	public _KX022_TILT_TIMER
                                 5702   	public _BH1730FVC_REG_DATA1LOW
                                 5703   	public _KMX61_BUF_STATUS_REG
                                 5704   	public _MainOp_Ambient_Light_Sensor_8
                                 5705   	public _MainOp_Ambient_Light_Sensor_9
                                 5706   	public _MainOp_Ambient_Light_Sensor_5
                                 5707   	public _MainOp_Ambient_Light_Sensor_6
                                 5708   	public _MainOp_Ambient_Light_Sensor_7
                                 5709   	__flgUartFin comm data 01h #00h
                                 5710   	_uniRawSensorOut comm data 06h #00h
                                 5711   	__flgI2CFin comm data 01h #00h
                                 5712   	__reqNotHalt comm data 01h #00h
                                 5713   	_flSensorOut comm data 0ch #00h
                                 5714   	__flgADCFin comm data 01h #00h
                                 5715   	extrn code near : _irq_init
                                 5716   	extrn code near : _uart_PortSet
                                 5717   	extrn code near : _i2c_stop
                                 5718   	extrn code near : _i2c_startReceive
                                 5719   	extrn code near : _uart_init
                                 5720   	extrn code near : _i2c_continue
                                 5721   	extrn code near : _irq_di
                                 5722   	extrn code near : _irq_ei
                                 5723   	extrn code near : _irq_setHdr
                                 5724   	extrn code near : _uart_stop
                                 5725   	extrn code near : _uart_startSend
                                 5726   	extrn code near : _printf_n
                                 5727   	extrn code near : _i2c_startSend
                                 5728   	extrn code near : _uart_continue
                                 5729   	extrn code near : _i2c_init
                                 5730   	extrn code near : _tm_init
                                 5731   	extrn code : $$start_up
                                 5732   
  --------------------------     5733   	cseg #00h at 02h
00:0002 00-00'                   5734   	dw	$$start_up
                                 5735   
  --------------------------     5736   	rseg $$NTABmain$main
00:0000                          5737   _$M1 :
00:0000 00-00'                   5738   	dw	_$S39
00:0002 00-00'                   5739   	dw	_$S40
00:0004 00-00'                   5740   	dw	_$L38
00:0006 00-00'                   5741   	dw	_$L38
00:0008 00-00'                   5742   	dw	_$S41
00:000A 00-00'                   5743   	dw	_$S42
00:000C 00-00'                   5744   	dw	_$S43
00:000E 00-00'                   5745   	dw	_$S44
00:0010 00-00'                   5746   	dw	_$S45
00:0012 00-00'                   5747   	dw	_$S46
00:0014 00-00'                   5748   	dw	_$L38
00:0016 00-00'                   5749   	dw	_$L38
00:0018 00-00'                   5750   	dw	_$L38
00:001A 00-00'                   5751   	dw	_$L38
00:001C 00-00'                   5752   	dw	_$S47
00:001E 00-00'                   5753   	dw	_$S48
00:0020 00-00'                   5754   	dw	_$L38
00:0022 00-00'                   5755   	dw	_$L38
00:0024 00-00'                   5756   	dw	_$L38
00:0026 00-00'                   5757   	dw	_$S49
00:0028 00-00'                   5758   	dw	_$S50
00:002A 00-00'                   5759   	dw	_$S51
00:002C 00-00'                   5760   	dw	_$S52
                                 5761   
  --------------------------     5762   	rseg $$NTABADC_Read$main
00:0000                          5763   _$M7 :
00:0000 00-00'                   5764   	dw	_$S71
00:0002 00-00'                   5765   	dw	_$S72
00:0004 00-00'                   5766   	dw	_$S73
00:0006 00-00'                   5767   	dw	_$S74
00:0008 00-00'                   5768   	dw	_$S75
00:000A 00-00'                   5769   	dw	_$S76
00:000C 00-00'                   5770   	dw	_$S77
00:000E 00-00'                   5771   	dw	_$S78
                                 5772   
  --------------------------     5773   	rseg $$NTABSensorInitialization$main
00:0000                          5774   _$M13 :
00:0000 00-00'                   5775   	dw	_$S101
00:0002 00-00'                   5776   	dw	_$S102
00:0004 00-00'                   5777   	dw	_$L100
00:0006 00-00'                   5778   	dw	_$L100
00:0008 00-00'                   5779   	dw	_$S103
00:000A 00-00'                   5780   	dw	_$S104
00:000C 00-00'                   5781   	dw	_$S105
00:000E 00-00'                   5782   	dw	_$S106
00:0010 00-00'                   5783   	dw	_$S107
00:0012 00-00'                   5784   	dw	_$S108
00:0014 00-00'                   5785   	dw	_$L100
00:0016 00-00'                   5786   	dw	_$L100
00:0018 00-00'                   5787   	dw	_$L100
00:001A 00-00'                   5788   	dw	_$L100
00:001C 00-00'                   5789   	dw	_$S109
00:001E 00-00'                   5790   	dw	_$S110
00:0020 00-00'                   5791   	dw	_$L100
00:0022 00-00'                   5792   	dw	_$L100
00:0024 00-00'                   5793   	dw	_$L100
00:0026 00-00'                   5794   	dw	_$S111
00:0028 00-00'                   5795   	dw	_$S112
00:002A 00-00'                   5796   	dw	_$S113
00:002C 00-00'                   5797   	dw	_$S114
                                 5798   
  --------------------------     5799   	rseg $$NINITTAB
??:0000 01                       5800   	db	01h
                                 5801   
  --------------------------     5802   	rseg $$TAB_uartSetParam$main
00:0000                          5803   __uartSetParam :
00:0000 00-C2                    5804   	dw	0c200h
00:0002 01-00                    5805   	dw	01h
00:0004 00                       5806   	db	00h
00:0005 02                       5807   	db	02h
00:0006 00                       5808   	db	00h
00:0007 00                       5809   	db	00h
00:0008 00                       5810   	db	00h
00:0009 00                       5811   	align
                                 5812   
  --------------------------     5813   	rseg $$TABBH17xxFVC_ADDR_1$main
00:0000                          5814   _BH17xxFVC_ADDR_1 :
00:0000 23                       5815   	db	023h
                                 5816   
  --------------------------     5817   	rseg $$TABBH17xxFVC_ADDR_2$main
00:0000                          5818   _BH17xxFVC_ADDR_2 :
00:0000 29                       5819   	db	029h
                                 5820   
  --------------------------     5821   	rseg $$TABBH17xxFVC_PWR_DOWN$main
00:0000                          5822   _BH17xxFVC_PWR_DOWN :
00:0000 00                       5823   	db	00h
                                 5824   
  --------------------------     5825   	rseg $$TABBH17xxFVC_PWR_ON$main
00:0000                          5826   _BH17xxFVC_PWR_ON :
00:0000 01                       5827   	db	01h
                                 5828   
  --------------------------     5829   	rseg $$TABBH1710FVC_RESET$main
00:0000                          5830   _BH1710FVC_RESET :
00:0000 07                       5831   	db	07h
                                 5832   
  --------------------------     5833   	rseg $$TABBH1710FVC_CONT_H_RES_MOD$main
00:0000                          5834   _BH1710FVC_CONT_H_RES_MOD :
00:0000 10                       5835   	db	010h
                                 5836   
  --------------------------     5837   	rseg $$TABBH1710FVC_CONT_M_RES_MOD$main
00:0000                          5838   _BH1710FVC_CONT_M_RES_MOD :
00:0000 13                       5839   	db	013h
                                 5840   
  --------------------------     5841   	rseg $$TABBH1710FVC_CONT_L_RES_MOD$main
00:0000                          5842   _BH1710FVC_CONT_L_RES_MOD :
00:0000 16                       5843   	db	016h
                                 5844   
  --------------------------     5845   	rseg $$TABBH1710FVC_ONET_H_RES_MOD$main
00:0000                          5846   _BH1710FVC_ONET_H_RES_MOD :
00:0000 20                       5847   	db	020h
                                 5848   
  --------------------------     5849   	rseg $$TABBH1710FVC_ONET_M_RES_MOD$main
00:0000                          5850   _BH1710FVC_ONET_M_RES_MOD :
00:0000 23                       5851   	db	023h
                                 5852   
  --------------------------     5853   	rseg $$TABBH1710FVC_ONET_L_RES_MOD$main
00:0000                          5854   _BH1710FVC_ONET_L_RES_MOD :
00:0000 26                       5855   	db	026h
                                 5856   
  --------------------------     5857   	rseg $$TABBH1721FVC_CONT_A_RES_MOD$main
00:0000                          5858   _BH1721FVC_CONT_A_RES_MOD :
00:0000 10                       5859   	db	010h
                                 5860   
  --------------------------     5861   	rseg $$TABBH1721FVC_CONT_H_RES_MOD$main
00:0000                          5862   _BH1721FVC_CONT_H_RES_MOD :
00:0000 12                       5863   	db	012h
                                 5864   
  --------------------------     5865   	rseg $$TABBH1721FVC_CONT_L_RES_MOD$main
00:0000                          5866   _BH1721FVC_CONT_L_RES_MOD :
00:0000 13                       5867   	db	013h
                                 5868   
  --------------------------     5869   	rseg $$TABBH1730FVC_REG_CONTROL$main
00:0000                          5870   _BH1730FVC_REG_CONTROL :
00:0000 80                       5871   	db	080h
                                 5872   
  --------------------------     5873   	rseg $$TABBH1730FVC_REG_TIMING$main
00:0000                          5874   _BH1730FVC_REG_TIMING :
00:0000 81                       5875   	db	081h
                                 5876   
  --------------------------     5877   	rseg $$TABBH1730FVC_REG_INTERRUPT$main
00:0000                          5878   _BH1730FVC_REG_INTERRUPT :
00:0000 82                       5879   	db	082h
                                 5880   
  --------------------------     5881   	rseg $$TABBH1730FVC_REG_THLLOW$main
00:0000                          5882   _BH1730FVC_REG_THLLOW :
00:0000 83                       5883   	db	083h
                                 5884   
  --------------------------     5885   	rseg $$TABBH1730FVC_REG_THLHIGH$main
00:0000                          5886   _BH1730FVC_REG_THLHIGH :
00:0000 84                       5887   	db	084h
                                 5888   
  --------------------------     5889   	rseg $$TABBH1730FVC_REG_THHLOW$main
00:0000                          5890   _BH1730FVC_REG_THHLOW :
00:0000 85                       5891   	db	085h
                                 5892   
  --------------------------     5893   	rseg $$TABBH1730FVC_REG_THHHIGH$main
00:0000                          5894   _BH1730FVC_REG_THHHIGH :
00:0000 86                       5895   	db	086h
                                 5896   
  --------------------------     5897   	rseg $$TABBH1730FVC_REG_GAIN$main
00:0000                          5898   _BH1730FVC_REG_GAIN :
00:0000 87                       5899   	db	087h
                                 5900   
  --------------------------     5901   	rseg $$TABBH1730FVC_REG_ID$main
00:0000                          5902   _BH1730FVC_REG_ID :
00:0000 92                       5903   	db	092h
                                 5904   
  --------------------------     5905   	rseg $$TABBH1730FVC_REG_DATA0LOW$main
00:0000                          5906   _BH1730FVC_REG_DATA0LOW :
00:0000 94                       5907   	db	094h
                                 5908   
  --------------------------     5909   	rseg $$TABBH1730FVC_REG_DATA0HIGH$main
00:0000                          5910   _BH1730FVC_REG_DATA0HIGH :
00:0000 95                       5911   	db	095h
                                 5912   
  --------------------------     5913   	rseg $$TABBH1730FVC_REG_DATA1LOW$main
00:0000                          5914   _BH1730FVC_REG_DATA1LOW :
00:0000 96                       5915   	db	096h
                                 5916   
  --------------------------     5917   	rseg $$TABBH1730FVC_REG_DATA1HIGH$main
00:0000                          5918   _BH1730FVC_REG_DATA1HIGH :
00:0000 97                       5919   	db	097h
                                 5920   
  --------------------------     5921   	rseg $$TABBH1730FVC_CMD_RESET_INT_OUT$main
00:0000                          5922   _BH1730FVC_CMD_RESET_INT_OUT :
00:0000 E1                       5923   	db	0e1h
                                 5924   
  --------------------------     5925   	rseg $$TABBH1730FVC_CMD_STOP_MIM$main
00:0000                          5926   _BH1730FVC_CMD_STOP_MIM :
00:0000 E2                       5927   	db	0e2h
                                 5928   
  --------------------------     5929   	rseg $$TABBH1730FVC_CMD_START_MIM$main
00:0000                          5930   _BH1730FVC_CMD_START_MIM :
00:0000 E3                       5931   	db	0e3h
                                 5932   
  --------------------------     5933   	rseg $$TABBH1730FVC_CMD_SW_RESET$main
00:0000                          5934   _BH1730FVC_CMD_SW_RESET :
00:0000 E4                       5935   	db	0e4h
                                 5936   
  --------------------------     5937   	rseg $$TABBH1780GLI_REG_CONTROL$main
00:0000                          5938   _BH1780GLI_REG_CONTROL :
00:0000 80                       5939   	db	080h
                                 5940   
  --------------------------     5941   	rseg $$TABBH1780GLI_REG_PART_ID$main
00:0000                          5942   _BH1780GLI_REG_PART_ID :
00:0000 8A                       5943   	db	08ah
                                 5944   
  --------------------------     5945   	rseg $$TABBH1780GLI_REG_MFG_ID$main
00:0000                          5946   _BH1780GLI_REG_MFG_ID :
00:0000 8B                       5947   	db	08bh
                                 5948   
  --------------------------     5949   	rseg $$TABBH1780GLI_REG_DATALOW$main
00:0000                          5950   _BH1780GLI_REG_DATALOW :
00:0000 8C                       5951   	db	08ch
                                 5952   
  --------------------------     5953   	rseg $$TABBH1780GLI_REG_DATAHIGH$main
00:0000                          5954   _BH1780GLI_REG_DATAHIGH :
00:0000 8D                       5955   	db	08dh
                                 5956   
  --------------------------     5957   	rseg $$TABKX022_I2C_ADDR$main
00:0000                          5958   _KX022_I2C_ADDR :
00:0000 1E                       5959   	db	01eh
                                 5960   
  --------------------------     5961   	rseg $$TABKX022_XHPL$main
00:0000                          5962   _KX022_XHPL :
00:0000 00                       5963   	db	00h
                                 5964   
  --------------------------     5965   	rseg $$TABKX022_XHPH$main
00:0000                          5966   _KX022_XHPH :
00:0000 01                       5967   	db	01h
                                 5968   
  --------------------------     5969   	rseg $$TABKX022_YHPL$main
00:0000                          5970   _KX022_YHPL :
00:0000 02                       5971   	db	02h
                                 5972   
  --------------------------     5973   	rseg $$TABKX022_YHPH$main
00:0000                          5974   _KX022_YHPH :
00:0000 03                       5975   	db	03h
                                 5976   
  --------------------------     5977   	rseg $$TABKX022_ZHPL$main
00:0000                          5978   _KX022_ZHPL :
00:0000 04                       5979   	db	04h
                                 5980   
  --------------------------     5981   	rseg $$TABKX022_ZHPH$main
00:0000                          5982   _KX022_ZHPH :
00:0000 05                       5983   	db	05h
                                 5984   
  --------------------------     5985   	rseg $$TABKX022_XOUTL$main
00:0000                          5986   _KX022_XOUTL :
00:0000 06                       5987   	db	06h
                                 5988   
  --------------------------     5989   	rseg $$TABKX022_XOUTH$main
00:0000                          5990   _KX022_XOUTH :
00:0000 07                       5991   	db	07h
                                 5992   
  --------------------------     5993   	rseg $$TABKX022_YOUTL$main
00:0000                          5994   _KX022_YOUTL :
00:0000 08                       5995   	db	08h
                                 5996   
  --------------------------     5997   	rseg $$TABKX022_YOUTH$main
00:0000                          5998   _KX022_YOUTH :
00:0000 09                       5999   	db	09h
                                 6000   
  --------------------------     6001   	rseg $$TABKX022_ZOUTL$main
00:0000                          6002   _KX022_ZOUTL :
00:0000 0A                       6003   	db	0ah
                                 6004   
  --------------------------     6005   	rseg $$TABKX022_ZOUTH$main
00:0000                          6006   _KX022_ZOUTH :
00:0000 0B                       6007   	db	0bh
                                 6008   
  --------------------------     6009   	rseg $$TABKX022_COTR$main
00:0000                          6010   _KX022_COTR :
00:0000 0C                       6011   	db	0ch
                                 6012   
  --------------------------     6013   	rseg $$TABKX022_WHO_AM_I$main
00:0000                          6014   _KX022_WHO_AM_I :
00:0000 0F                       6015   	db	0fh
                                 6016   
  --------------------------     6017   	rseg $$TABKX022_TSCP$main
00:0000                          6018   _KX022_TSCP :
00:0000 10                       6019   	db	010h
                                 6020   
  --------------------------     6021   	rseg $$TABKX022_TSPP$main
00:0000                          6022   _KX022_TSPP :
00:0000 11                       6023   	db	011h
                                 6024   
  --------------------------     6025   	rseg $$TABKX022_INS1$main
00:0000                          6026   _KX022_INS1 :
00:0000 12                       6027   	db	012h
                                 6028   
  --------------------------     6029   	rseg $$TABKX022_INS2$main
00:0000                          6030   _KX022_INS2 :
00:0000 13                       6031   	db	013h
                                 6032   
  --------------------------     6033   	rseg $$TABKX022_INS3$main
00:0000                          6034   _KX022_INS3 :
00:0000 14                       6035   	db	014h
                                 6036   
  --------------------------     6037   	rseg $$TABKX022_STAT$main
00:0000                          6038   _KX022_STAT :
00:0000 15                       6039   	db	015h
                                 6040   
  --------------------------     6041   	rseg $$TABKX022_INT_REL$main
00:0000                          6042   _KX022_INT_REL :
00:0000 17                       6043   	db	017h
                                 6044   
  --------------------------     6045   	rseg $$TABKX022_CNTL1$main
00:0000                          6046   _KX022_CNTL1 :
00:0000 18                       6047   	db	018h
                                 6048   
  --------------------------     6049   	rseg $$TABKX022_CNTL2$main
00:0000                          6050   _KX022_CNTL2 :
00:0000 19                       6051   	db	019h
                                 6052   
  --------------------------     6053   	rseg $$TABKX022_CNTL3$main
00:0000                          6054   _KX022_CNTL3 :
00:0000 1A                       6055   	db	01ah
                                 6056   
  --------------------------     6057   	rseg $$TABKX022_ODCNTL$main
00:0000                          6058   _KX022_ODCNTL :
00:0000 1B                       6059   	db	01bh
                                 6060   
  --------------------------     6061   	rseg $$TABKX022_INC1$main
00:0000                          6062   _KX022_INC1 :
00:0000 1C                       6063   	db	01ch
                                 6064   
  --------------------------     6065   	rseg $$TABKX022_INC2$main
00:0000                          6066   _KX022_INC2 :
00:0000 1D                       6067   	db	01dh
                                 6068   
  --------------------------     6069   	rseg $$TABKX022_INC3$main
00:0000                          6070   _KX022_INC3 :
00:0000 1E                       6071   	db	01eh
                                 6072   
  --------------------------     6073   	rseg $$TABKX022_INC4$main
00:0000                          6074   _KX022_INC4 :
00:0000 1F                       6075   	db	01fh
                                 6076   
  --------------------------     6077   	rseg $$TABKX022_INC5$main
00:0000                          6078   _KX022_INC5 :
00:0000 20                       6079   	db	020h
                                 6080   
  --------------------------     6081   	rseg $$TABKX022_INC6$main
00:0000                          6082   _KX022_INC6 :
00:0000 21                       6083   	db	021h
                                 6084   
  --------------------------     6085   	rseg $$TABKX022_TILT_TIMER$main
00:0000                          6086   _KX022_TILT_TIMER :
00:0000 22                       6087   	db	022h
                                 6088   
  --------------------------     6089   	rseg $$TABKX022_WUFC$main
00:0000                          6090   _KX022_WUFC :
00:0000 23                       6091   	db	023h
                                 6092   
  --------------------------     6093   	rseg $$TABKX022_TDTRC$main
00:0000                          6094   _KX022_TDTRC :
00:0000 24                       6095   	db	024h
                                 6096   
  --------------------------     6097   	rseg $$TABKX022_TDTC$main
00:0000                          6098   _KX022_TDTC :
00:0000 25                       6099   	db	025h
                                 6100   
  --------------------------     6101   	rseg $$TABKX022_TTH$main
00:0000                          6102   _KX022_TTH :
00:0000 26                       6103   	db	026h
                                 6104   
  --------------------------     6105   	rseg $$TABKX022_TTL$main
00:0000                          6106   _KX022_TTL :
00:0000 27                       6107   	db	027h
                                 6108   
  --------------------------     6109   	rseg $$TABKX022_FTD$main
00:0000                          6110   _KX022_FTD :
00:0000 28                       6111   	db	028h
                                 6112   
  --------------------------     6113   	rseg $$TABKX022_STD$main
00:0000                          6114   _KX022_STD :
00:0000 29                       6115   	db	029h
                                 6116   
  --------------------------     6117   	rseg $$TABKX022_TLT$main
00:0000                          6118   _KX022_TLT :
00:0000 2A                       6119   	db	02ah
                                 6120   
  --------------------------     6121   	rseg $$TABKX022_TWS$main
00:0000                          6122   _KX022_TWS :
00:0000 2B                       6123   	db	02bh
                                 6124   
  --------------------------     6125   	rseg $$TABKX022_ATH$main
00:0000                          6126   _KX022_ATH :
00:0000 30                       6127   	db	030h
                                 6128   
  --------------------------     6129   	rseg $$TABKX022_TILT_ANGLE_LL$main
00:0000                          6130   _KX022_TILT_ANGLE_LL :
00:0000 32                       6131   	db	032h
                                 6132   
  --------------------------     6133   	rseg $$TABKX022_TILT_ANGLE_HL$main
00:0000                          6134   _KX022_TILT_ANGLE_HL :
00:0000 33                       6135   	db	033h
                                 6136   
  --------------------------     6137   	rseg $$TABKX022_HYST_SET$main
00:0000                          6138   _KX022_HYST_SET :
00:0000 34                       6139   	db	034h
                                 6140   
  --------------------------     6141   	rseg $$TABKX022_LP_CNTL$main
00:0000                          6142   _KX022_LP_CNTL :
00:0000 35                       6143   	db	035h
                                 6144   
  --------------------------     6145   	rseg $$TABKX022_BUF_CNTL1$main
00:0000                          6146   _KX022_BUF_CNTL1 :
00:0000 3A                       6147   	db	03ah
                                 6148   
  --------------------------     6149   	rseg $$TABKX022_BUF_CNTL2$main
00:0000                          6150   _KX022_BUF_CNTL2 :
00:0000 3B                       6151   	db	03bh
                                 6152   
  --------------------------     6153   	rseg $$TABKX022_BUF_STATUS_1$main
00:0000                          6154   _KX022_BUF_STATUS_1 :
00:0000 3C                       6155   	db	03ch
                                 6156   
  --------------------------     6157   	rseg $$TABKX022_BUF_STATUS_2$main
00:0000                          6158   _KX022_BUF_STATUS_2 :
00:0000 3D                       6159   	db	03dh
                                 6160   
  --------------------------     6161   	rseg $$TABKX022_BUF_CLEAR$main
00:0000                          6162   _KX022_BUF_CLEAR :
00:0000 3E                       6163   	db	03eh
                                 6164   
  --------------------------     6165   	rseg $$TABKX022_BUF_READ$main
00:0000                          6166   _KX022_BUF_READ :
00:0000 3F                       6167   	db	03fh
                                 6168   
  --------------------------     6169   	rseg $$TABKX022_SELF_TEST$main
00:0000                          6170   _KX022_SELF_TEST :
00:0000 60                       6171   	db	060h
                                 6172   
  --------------------------     6173   	rseg $$TABKMX61_I2C_ADDR$main
00:0000                          6174   _KMX61_I2C_ADDR :
00:0000 0E                       6175   	db	0eh
                                 6176   
  --------------------------     6177   	rseg $$TABKMX61_WHO_AM_I$main
00:0000                          6178   _KMX61_WHO_AM_I :
00:0000 00                       6179   	db	00h
                                 6180   
  --------------------------     6181   	rseg $$TABKMX61_INS1$main
00:0000                          6182   _KMX61_INS1 :
00:0000 01                       6183   	db	01h
                                 6184   
  --------------------------     6185   	rseg $$TABKMX61_INS2$main
00:0000                          6186   _KMX61_INS2 :
00:0000 02                       6187   	db	02h
                                 6188   
  --------------------------     6189   	rseg $$TABKMX61_STATUS_REG$main
00:0000                          6190   _KMX61_STATUS_REG :
00:0000 03                       6191   	db	03h
                                 6192   
  --------------------------     6193   	rseg $$TABKMX61_ACCEL_XOUT_L$main
00:0000                          6194   _KMX61_ACCEL_XOUT_L :
00:0000 0A                       6195   	db	0ah
                                 6196   
  --------------------------     6197   	rseg $$TABKMX61_ACCEL_XOUT_H$main
00:0000                          6198   _KMX61_ACCEL_XOUT_H :
00:0000 0B                       6199   	db	0bh
                                 6200   
  --------------------------     6201   	rseg $$TABKMX61_ACCEL_YOUT_L$main
00:0000                          6202   _KMX61_ACCEL_YOUT_L :
00:0000 0C                       6203   	db	0ch
                                 6204   
  --------------------------     6205   	rseg $$TABKMX61_ACCEL_YOUT_H$main
00:0000                          6206   _KMX61_ACCEL_YOUT_H :
00:0000 0D                       6207   	db	0dh
                                 6208   
  --------------------------     6209   	rseg $$TABKMX61_ACCEL_ZOUT_L$main
00:0000                          6210   _KMX61_ACCEL_ZOUT_L :
00:0000 0E                       6211   	db	0eh
                                 6212   
  --------------------------     6213   	rseg $$TABKMX61_ACCEL_ZOUT_H$main
00:0000                          6214   _KMX61_ACCEL_ZOUT_H :
00:0000 0F                       6215   	db	0fh
                                 6216   
  --------------------------     6217   	rseg $$TABKMX61_TEMP_OUT_L$main
00:0000                          6218   _KMX61_TEMP_OUT_L :
00:0000 10                       6219   	db	010h
                                 6220   
  --------------------------     6221   	rseg $$TABKMX61_TEMP_OUT_H$main
00:0000                          6222   _KMX61_TEMP_OUT_H :
00:0000 11                       6223   	db	011h
                                 6224   
  --------------------------     6225   	rseg $$TABKMX61_MAG_XOUT_L$main
00:0000                          6226   _KMX61_MAG_XOUT_L :
00:0000 12                       6227   	db	012h
                                 6228   
  --------------------------     6229   	rseg $$TABKMX61_MAG_XOUT_H$main
00:0000                          6230   _KMX61_MAG_XOUT_H :
00:0000 13                       6231   	db	013h
                                 6232   
  --------------------------     6233   	rseg $$TABKMX61_MAG_YOUT_L$main
00:0000                          6234   _KMX61_MAG_YOUT_L :
00:0000 14                       6235   	db	014h
                                 6236   
  --------------------------     6237   	rseg $$TABKMX61_MAG_YOUT_H$main
00:0000                          6238   _KMX61_MAG_YOUT_H :
00:0000 15                       6239   	db	015h
                                 6240   
  --------------------------     6241   	rseg $$TABKMX61_MAG_ZOUT_L$main
00:0000                          6242   _KMX61_MAG_ZOUT_L :
00:0000 16                       6243   	db	016h
                                 6244   
  --------------------------     6245   	rseg $$TABKMX61_MAG_ZOUT_H$main
00:0000                          6246   _KMX61_MAG_ZOUT_H :
00:0000 17                       6247   	db	017h
                                 6248   
  --------------------------     6249   	rseg $$TABKMX61_XOUT_HPF_L$main
00:0000                          6250   _KMX61_XOUT_HPF_L :
00:0000 18                       6251   	db	018h
                                 6252   
  --------------------------     6253   	rseg $$TABKMX61_XOUT_HPF_H$main
00:0000                          6254   _KMX61_XOUT_HPF_H :
00:0000 19                       6255   	db	019h
                                 6256   
  --------------------------     6257   	rseg $$TABKMX61_YOUT_HPF_L$main
00:0000                          6258   _KMX61_YOUT_HPF_L :
00:0000 1A                       6259   	db	01ah
                                 6260   
  --------------------------     6261   	rseg $$TABKMX61_YOUT_HPF_H$main
00:0000                          6262   _KMX61_YOUT_HPF_H :
00:0000 1B                       6263   	db	01bh
                                 6264   
  --------------------------     6265   	rseg $$TABKMX61_ZOUT_HPF_L$main
00:0000                          6266   _KMX61_ZOUT_HPF_L :
00:0000 1C                       6267   	db	01ch
                                 6268   
  --------------------------     6269   	rseg $$TABKMX61_ZOUT_HPF_H$main
00:0000                          6270   _KMX61_ZOUT_HPF_H :
00:0000 1D                       6271   	db	01dh
                                 6272   
  --------------------------     6273   	rseg $$TABKMX61_SN_1$main
00:0000                          6274   _KMX61_SN_1 :
00:0000 24                       6275   	db	024h
                                 6276   
  --------------------------     6277   	rseg $$TABKMX61_SN_2$main
00:0000                          6278   _KMX61_SN_2 :
00:0000 25                       6279   	db	025h
                                 6280   
  --------------------------     6281   	rseg $$TABKMX61_SN_3$main
00:0000                          6282   _KMX61_SN_3 :
00:0000 26                       6283   	db	026h
                                 6284   
  --------------------------     6285   	rseg $$TABKMX61_SN_4$main
00:0000                          6286   _KMX61_SN_4 :
00:0000 27                       6287   	db	027h
                                 6288   
  --------------------------     6289   	rseg $$TABKMX61_INL$main
00:0000                          6290   _KMX61_INL :
00:0000 28                       6291   	db	028h
                                 6292   
  --------------------------     6293   	rseg $$TABKMX61_STBY_REG$main
00:0000                          6294   _KMX61_STBY_REG :
00:0000 29                       6295   	db	029h
                                 6296   
  --------------------------     6297   	rseg $$TABKMX61_CNTL1$main
00:0000                          6298   _KMX61_CNTL1 :
00:0000 2A                       6299   	db	02ah
                                 6300   
  --------------------------     6301   	rseg $$TABKMX61_CNTL2$main
00:0000                          6302   _KMX61_CNTL2 :
00:0000 2B                       6303   	db	02bh
                                 6304   
  --------------------------     6305   	rseg $$TABKMX61_ODCNTL$main
00:0000                          6306   _KMX61_ODCNTL :
00:0000 2C                       6307   	db	02ch
                                 6308   
  --------------------------     6309   	rseg $$TABKMX61_INC1$main
00:0000                          6310   _KMX61_INC1 :
00:0000 2D                       6311   	db	02dh
                                 6312   
  --------------------------     6313   	rseg $$TABKMX61_INC2$main
00:0000                          6314   _KMX61_INC2 :
00:0000 2E                       6315   	db	02eh
                                 6316   
  --------------------------     6317   	rseg $$TABKMX61_INC3$main
00:0000                          6318   _KMX61_INC3 :
00:0000 2F                       6319   	db	02fh
                                 6320   
  --------------------------     6321   	rseg $$TABKMX61_COTR$main
00:0000                          6322   _KMX61_COTR :
00:0000 3C                       6323   	db	03ch
                                 6324   
  --------------------------     6325   	rseg $$TABKMX61_WUFTH$main
00:0000                          6326   _KMX61_WUFTH :
00:0000 3D                       6327   	db	03dh
                                 6328   
  --------------------------     6329   	rseg $$TABKMX61_WUFC$main
00:0000                          6330   _KMX61_WUFC :
00:0000 3E                       6331   	db	03eh
                                 6332   
  --------------------------     6333   	rseg $$TABKMX61_BTH$main
00:0000                          6334   _KMX61_BTH :
00:0000 3F                       6335   	db	03fh
                                 6336   
  --------------------------     6337   	rseg $$TABKMX61_BTSC$main
00:0000                          6338   _KMX61_BTSC :
00:0000 40                       6339   	db	040h
                                 6340   
  --------------------------     6341   	rseg $$TABKMX61_TEMP_EN_CNTL$main
00:0000                          6342   _KMX61_TEMP_EN_CNTL :
00:0000 4C                       6343   	db	04ch
                                 6344   
  --------------------------     6345   	rseg $$TABKMX61_SELF_TEST$main
00:0000                          6346   _KMX61_SELF_TEST :
00:0000 60                       6347   	db	060h
                                 6348   
  --------------------------     6349   	rseg $$TABKMX61_BUF_THRESH_H$main
00:0000                          6350   _KMX61_BUF_THRESH_H :
00:0000 76                       6351   	db	076h
                                 6352   
  --------------------------     6353   	rseg $$TABKMX61_BUF_THRESH_L$main
00:0000                          6354   _KMX61_BUF_THRESH_L :
00:0000 77                       6355   	db	077h
                                 6356   
  --------------------------     6357   	rseg $$TABKMX61_BUF_CTRL1$main
00:0000                          6358   _KMX61_BUF_CTRL1 :
00:0000 78                       6359   	db	078h
                                 6360   
  --------------------------     6361   	rseg $$TABKMX61_BUF_CTRL2$main
00:0000                          6362   _KMX61_BUF_CTRL2 :
00:0000 79                       6363   	db	079h
                                 6364   
  --------------------------     6365   	rseg $$TABKMX61_BUF_CLEAR$main
00:0000                          6366   _KMX61_BUF_CLEAR :
00:0000 7A                       6367   	db	07ah
                                 6368   
  --------------------------     6369   	rseg $$TABKMX61_BUF_STATUS_REG$main
00:0000                          6370   _KMX61_BUF_STATUS_REG :
00:0000 7B                       6371   	db	07bh
                                 6372   
  --------------------------     6373   	rseg $$TABKMX61_BUF_STATUS_H$main
00:0000                          6374   _KMX61_BUF_STATUS_H :
00:0000 7C                       6375   	db	07ch
                                 6376   
  --------------------------     6377   	rseg $$TABKMX61_BUF_STATUS_L$main
00:0000                          6378   _KMX61_BUF_STATUS_L :
00:0000 7D                       6379   	db	07dh
                                 6380   
  --------------------------     6381   	rseg $$TABKMX61_BUF_READ$main
00:0000                          6382   _KMX61_BUF_READ :
00:0000 7E                       6383   	db	07eh
                                 6384   
  --------------------------     6385   	rseg $$TAB$$S30$main
00:0000                          6386   $$S30 :
00:0000 1B 5B 32 4A 1B 5B 31 3B  6387   	DB	"\x1b[2J\x1b[1;1H*********************************************\x0a\x0d** Q112 Firmware - Sensor Platform EVK\x0a\x0d** Revision    : REV00\x0a\x0d** Release date: Sep 10 2014 14:00:08\x0a\x0d** By          : ROHM Semiconductor USA, LLC\x0a\x0d********
00:0008 31 48 2A 2A 2A 2A 2A 2A   >>>   
00:0010 2A 2A 2A 2A 2A 2A 2A 2A   >>>   
00:0018 2A 2A 2A 2A 2A 2A 2A 2A   >>>   
00:0020 2A 2A 2A 2A 2A 2A 2A 2A   >>>   
00:0028 2A 2A 2A 2A 2A 2A 2A 2A   >>>   
00:0030 2A 2A 2A 2A 2A 2A 2A 0A   >>>   
00:0038 0D 2A 2A 20 51 31 31 32   >>>   
00:0040 20 46 69 72 6D 77 61 72   >>>   
00:0048 65 20 2D 20 53 65 6E 73   >>>   
00:0050 6F 72 20 50 6C 61 74 66   >>>   
00:0058 6F 72 6D 20 45 56 4B 0A   >>>   
00:0060 0D 2A 2A 20 52 65 76 69   >>>   
00:0068 73 69 6F 6E 20 20 20 20   >>>   
00:0070 3A 20 52 45 56 30 30 0A   >>>   
00:0078 0D 2A 2A 20 52 65 6C 65   >>>   
00:0080 61 73 65 20 64 61 74 65   >>>   
00:0088 3A 20 53 65 70 20 31 30   >>>   
00:0090 20 32 30 31 34 20 31 34   >>>   
00:0098 3A 30 30 3A 30 38 0A 0D   >>>   
00:00A0 2A 2A 20 42 79 20 20 20   >>>   
00:00A8 20 20 20 20 20 20 20 3A   >>>   
00:00B0 20 52 4F 48 4D 20 53 65   >>>   
00:00B8 6D 69 63 6F 6E 64 75 63   >>>   
00:00C0 74 6F 72 20 55 53 41 2C   >>>   
00:00C8 20 4C 4C 43 0A 0D 2A 2A   >>>   
00:00D0 2A 2A 2A 2A 2A 2A 2A 2A   >>>   
00:00D8 2A 2A 2A 2A 2A 2A 2A 2A   >>>   
00:00E0 2A 2A 2A 2A 2A 2A 2A 2A   >>>   
00:00E8 2A 2A 2A 2A 2A 2A 2A 2A   >>>   
00:00F0 2A 2A 2A 2A 2A 2A 2A 2A   >>>   
00:00F8 2A 2A                     >>>   
00:00FA 2A 0A 0D 00              6388   	DB	"*\x0a\x0d", 00H
                                 6389   
  --------------------------     6390   	rseg $$TAB$$S53$main
00:0000                          6391   $$S53 :
00:0000 1B 5B 32 4B 0D 4E 6F 20  6392   	DB	"\x1b[2K\x0dNo device connected."
00:0008 64 65 76 69 63 65 20 63   >>>   
00:0010 6F 6E 6E 65 63 74 65 64   >>>   
00:0018 2E 00                     >>>   , 00H
                                 6393   
  --------------------------     6394   	rseg $$TAB$$S123$main
00:0000                          6395   $$S123 :
00:0000 1B 5B 32 4B 0D 42 55 35  6396   	DB	"\x1b[2K\x0dBU52004GUL> Hall \xe2\x80\x93 No Mag Fields Detected."
00:0008 32 30 30 34 47 55 4C 3E   >>>   
00:0010 20 48 61 6C 6C 20 E2 80   >>>   
00:0018 93 20 4E 6F 20 4D 61 67   >>>   
00:0020 20 46 69 65 6C 64 73 20   >>>   
00:0028 44 65 74 65 63 74 65 64   >>>   
00:0030 2E 00                     >>>   , 00H
                                 6397   
  --------------------------     6398   	rseg $$TAB$$S132$main
00:0000                          6399   $$S132 :
00:0000 1B 5B 32 4B 0D 42 55 35  6400   	DB	"\x1b[2K\x0dBU52004GUL> Hall \xe2\x80\x93 North Mag Field Detected."
00:0008 32 30 30 34 47 55 4C 3E   >>>   
00:0010 20 48 61 6C 6C 20 E2 80   >>>   
00:0018 93 20 4E 6F 72 74 68 20   >>>   
00:0020 4D 61 67 20 46 69 65 6C   >>>   
00:0028 64 20 44 65 74 65 63 74   >>>   
00:0030 65 64 2E 00               >>>   , 00H
                                 6401   
  --------------------------     6402   	rseg $$TAB$$S141$main
00:0000                          6403   $$S141 :
00:0000 1B 5B 32 4B 0D 42 55 35  6404   	DB	"\x1b[2K\x0dBU52004GUL> Hall \xe2\x80\x93 South Mag Field Detected."
00:0008 32 30 30 34 47 55 4C 3E   >>>   
00:0010 20 48 61 6C 6C 20 E2 80   >>>   
00:0018 93 20 53 6F 75 74 68 20   >>>   
00:0020 4D 61 67 20 46 69 65 6C   >>>   
00:0028 64 20 44 65 74 65 63 74   >>>   
00:0030 65 64 2E 00               >>>   , 00H
                                 6405   
  --------------------------     6406   	rseg $$TAB$$S143$main
00:0000                          6407   $$S143 :
00:0000 1B 5B 32 4B 0D 42 55 35  6408   	DB	"\x1b[2K\x0dBU52004GUL> Hall \xe2\x80\x93 Both Mag Fields Detected."
00:0008 32 30 30 34 47 55 4C 3E   >>>   
00:0010 20 48 61 6C 6C 20 E2 80   >>>   
00:0018 93 20 42 6F 74 68 20 4D   >>>   
00:0020 61 67 20 46 69 65 6C 64   >>>   
00:0028 73 20 44 65 74 65 63 74   >>>   
00:0030 65 64 2E 00               >>>   , 00H
                                 6409   
  --------------------------     6410   	rseg $$TAB$$S147$main
00:0000                          6411   $$S147 :
00:0000 1B 5B 32 4B 0D 42 55 35  6412   	DB	"\x1b[2K\x0dBU52011HFV> Hall \xe2\x80\x93 Mag Field Detected."
00:0008 32 30 31 31 48 46 56 3E   >>>   
00:0010 20 48 61 6C 6C 20 E2 80   >>>   
00:0018 93 20 4D 61 67 20 46 69   >>>   
00:0020 65 6C 64 20 44 65 74 65   >>>   
00:0028 63 74 65 64 2E 00         >>>   , 00H
                                 6413   
  --------------------------     6414   	rseg $$TAB$$S149$main
00:0000                          6415   $$S149 :
00:0000 1B 5B 32 4B 0D 42 55 35  6416   	DB	"\x1b[2K\x0dBU52011HFV> Hall \xe2\x80\x93 No Mag Fields Detected."
00:0008 32 30 31 31 48 46 56 3E   >>>   
00:0010 20 48 61 6C 6C 20 E2 80   >>>   
00:0018 93 20 4E 6F 20 4D 61 67   >>>   
00:0020 20 46 69 65 6C 64 73 20   >>>   
00:0028 44 65 74 65 63 74 65 64   >>>   
00:0030 2E 00                     >>>   , 00H
                                 6417   
  --------------------------     6418   	rseg $$TAB$$S160$main
00:0000                          6419   $$S160 :
00:0000 1B 5B 32 4B 0D 42 48 31  6420   	DB	"\x1b[2K\x0dBH1620FVC> Ambient Light = %lu[lx]"
00:0008 36 32 30 46 56 43 3E 20   >>>   
00:0010 41 6D 62 69 65 6E 74 20   >>>   
00:0018 4C 69 67 68 74 20 3D 20   >>>   
00:0020 25 6C 75 5B 6C 78 5D 00   >>>   , 00H
                                 6421   
  --------------------------     6422   	rseg $$TAB$$S162$main
00:0000                          6423   $$S162 :
00:0000 1B 5B 32 4B 0D 42 48 31  6424   	DB	"\x1b[2K\x0dBH1710FVC> Ambient Light = %lu[lx]"
00:0008 37 31 30 46 56 43 3E 20   >>>   
00:0010 41 6D 62 69 65 6E 74 20   >>>   
00:0018 4C 69 67 68 74 20 3D 20   >>>   
00:0020 25 6C 75 5B 6C 78 5D 00   >>>   , 00H
                                 6425   
  --------------------------     6426   	rseg $$TAB$$S176$main
00:0000                          6427   $$S176 :
00:0000 1B 5B 32 4B 0D 42 48 31  6428   	DB	"\x1b[2K\x0dBH1730FVC> Ambient Light = %lu[lx]"
00:0008 37 33 30 46 56 43 3E 20   >>>   
00:0010 41 6D 62 69 65 6E 74 20   >>>   
00:0018 4C 69 67 68 74 20 3D 20   >>>   
00:0020 25 6C 75 5B 6C 78 5D 00   >>>   , 00H
                                 6429   
  --------------------------     6430   	rseg $$TAB$$S178$main
00:0000                          6431   $$S178 :
00:0000 1B 5B 32 4B 0D 42 48 31  6432   	DB	"\x1b[2K\x0dBH1721FVC> Ambient Light = %lu[lx]"
00:0008 37 32 31 46 56 43 3E 20   >>>   
00:0010 41 6D 62 69 65 6E 74 20   >>>   
00:0018 4C 69 67 68 74 20 3D 20   >>>   
00:0020 25 6C 75 5B 6C 78 5D 00   >>>   , 00H
                                 6433   
  --------------------------     6434   	rseg $$TAB$$S180$main
00:0000                          6435   $$S180 :
00:0000 1B 5B 32 4B 0D 42 48 31  6436   	DB	"\x1b[2K\x0dBH1780GLI> Ambient Light = %lu[lx]"
00:0008 37 38 30 47 4C 49 3E 20   >>>   
00:0010 41 6D 62 69 65 6E 74 20   >>>   
00:0018 4C 69 67 68 74 20 3D 20   >>>   
00:0020 25 6C 75 5B 6C 78 5D 00   >>>   , 00H
                                 6437   
  --------------------------     6438   	rseg $$TAB$$S182$main
00:0000                          6439   $$S182 :
00:0000 1B 5B 32 4B 0D 4D 4C 38  6440   	DB	"\x1b[2K\x0dML8511> UV Intensity = %.02f[mW/cm2]. Vsenout = %.02f[V]"
00:0008 35 31 31 3E 20 55 56 20   >>>   
00:0010 49 6E 74 65 6E 73 69 74   >>>   
00:0018 79 20 3D 20 25 2E 30 32   >>>   
00:0020 66 5B 6D 57 2F 63 6D 32   >>>   
00:0028 5D 2E 20 56 73 65 6E 6F   >>>   
00:0030 75 74 20 3D 20 25 2E 30   >>>   
00:0038 32 66 5B 56 5D 00         >>>   , 00H
                                 6441   
  --------------------------     6442   	rseg $$TAB$$S184$main
00:0000                          6443   $$S184 :
00:0000 1B 5B 32 4B 0D 4B 58 30  6444   	DB	"\x1b[2K\x0dKX022> AccelX_raw = %d, AccelX_scaled = %.05f[g], AccelY_raw = %d, AccelY_scaled = %.05f[g], AccelZ_raw = %d, AccelZ_scaled = %.05f[g]"
00:0008 32 32 3E 20 41 63 63 65   >>>   
00:0010 6C 58 5F 72 61 77 20 3D   >>>   
00:0018 20 25 64 2C 20 41 63 63   >>>   
00:0020 65 6C 58 5F 73 63 61 6C   >>>   
00:0028 65 64 20 3D 20 25 2E 30   >>>   
00:0030 35 66 5B 67 5D 2C 20 41   >>>   
00:0038 63 63 65 6C 59 5F 72 61   >>>   
00:0040 77 20 3D 20 25 64 2C 20   >>>   
00:0048 41 63 63 65 6C 59 5F 73   >>>   
00:0050 63 61 6C 65 64 20 3D 20   >>>   
00:0058 25 2E 30 35 66 5B 67 5D   >>>   
00:0060 2C 20 41 63 63 65 6C 5A   >>>   
00:0068 5F 72 61 77 20 3D 20 25   >>>   
00:0070 64 2C 20 41 63 63 65 6C   >>>   
00:0078 5A 5F 73 63 61 6C 65 64   >>>   
00:0080 20 3D 20 25 2E 30 35 66   >>>   
00:0088 5B 67 5D 00               >>>   , 00H
                                 6445   
  --------------------------     6446   	rseg $$TAB$$S186$main
00:0000                          6447   $$S186 :
00:0000 1B 5B 30 4A 0D 4B 4D 58  6448   	DB	"\x1b[0J\x0dKMX61> AccelX_raw = %d, AccelX_scaled = %.05f[g], AccelY_raw = %d, AccelY_scaled = %.05f[g], AccelZ_raw = %d, AccelZ_scaled = %.05f[g]\x0a\x0d"
00:0008 36 31 3E 20 41 63 63 65   >>>   
00:0010 6C 58 5F 72 61 77 20 3D   >>>   
00:0018 20 25 64 2C 20 41 63 63   >>>   
00:0020 65 6C 58 5F 73 63 61 6C   >>>   
00:0028 65 64 20 3D 20 25 2E 30   >>>   
00:0030 35 66 5B 67 5D 2C 20 41   >>>   
00:0038 63 63 65 6C 59 5F 72 61   >>>   
00:0040 77 20 3D 20 25 64 2C 20   >>>   
00:0048 41 63 63 65 6C 59 5F 73   >>>   
00:0050 63 61 6C 65 64 20 3D 20   >>>   
00:0058 25 2E 30 35 66 5B 67 5D   >>>   
00:0060 2C 20 41 63 63 65 6C 5A   >>>   
00:0068 5F 72 61 77 20 3D 20 25   >>>   
00:0070 64 2C 20 41 63 63 65 6C   >>>   
00:0078 5A 5F 73 63 61 6C 65 64   >>>   
00:0080 20 3D 20 25 2E 30 35 66   >>>   
00:0088 5B 67 5D 0A 0D 00         >>>   , 00H
                                 6449   
  --------------------------     6450   	rseg $$TAB$$S187$main
00:0000                          6451   $$S187 :
00:0000 4B 4D 58 36 31 3E 20 4D  6452   	DB	"KMX61> MagX_raw = %d, MagX_scaled = %.05f[uT], MagY_raw = %d, MagY_scaled = %.05f[uT], MagZ_raw = %d, MagZ_scaled = %.05f[uT]\x1b[1F"
00:0008 61 67 58 5F 72 61 77 20   >>>   
00:0010 3D 20 25 64 2C 20 4D 61   >>>   
00:0018 67 58 5F 73 63 61 6C 65   >>>   
00:0020 64 20 3D 20 25 2E 30 35   >>>   
00:0028 66 5B 75 54 5D 2C 20 4D   >>>   
00:0030 61 67 59 5F 72 61 77 20   >>>   
00:0038 3D 20 25 64 2C 20 4D 61   >>>   
00:0040 67 59 5F 73 63 61 6C 65   >>>   
00:0048 64 20 3D 20 25 2E 30 35   >>>   
00:0050 66 5B 75 54 5D 2C 20 4D   >>>   
00:0058 61 67 5A 5F 72 61 77 20   >>>   
00:0060 3D 20 25 64 2C 20 4D 61   >>>   
00:0068 67 5A 5F 73 63 61 6C 65   >>>   
00:0070 64 20 3D 20 25 2E 30 35   >>>   
00:0078 66 5B 75 54 5D 1B 5B 31   >>>   
00:0080 46 00                     >>>   , 00H
                                 6453   
  --------------------------     6454   	rseg $$TAB$$S189$main
00:0000                          6455   $$S189 :
00:0000 1B 5B 32 4B 0D 42 44 31  6456   	DB	"\x1b[2K\x0dBD1020HFV> Temperature = %.02f[\xc2\xb0C]. Vsenout = %.02f[V]"
00:0008 30 32 30 48 46 56 3E 20   >>>   
00:0010 54 65 6D 70 65 72 61 74   >>>   
00:0018 75 72 65 20 3D 20 25 2E   >>>   
00:0020 30 32 66 5B C2 B0 43 5D   >>>   
00:0028 2E 20 56 73 65 6E 6F 75   >>>   
00:0030 74 20 3D 20 25 2E 30 32   >>>   
00:0038 66 5B 56 5D 00            >>>   , 00H
                                 6457   
  --------------------------     6458   	rseg $$TAB$$S191$main
00:0000                          6459   $$S191 :
00:0000 1B 5B 31 46 1B 5B 32 4B  6460   	DB	"\x1b[1F\x1b[2K\x0dBDJ0601HFV> Temperature = %.02f[\xc2\xb0C]. Vsenout = %.02f[V]"
00:0008 0D 42 44 4A 30 36 30 31   >>>   
00:0010 48 46 56 3E 20 54 65 6D   >>>   
00:0018 70 65 72 61 74 75 72 65   >>>   
00:0020 20 3D 20 25 2E 30 32 66   >>>   
00:0028 5B C2 B0 43 5D 2E 20 56   >>>   
00:0030 73 65 6E 6F 75 74 20 3D   >>>   
00:0038 20 25 2E 30 32 66 5B 56   >>>   
00:0040 5D 00                     >>>   , 00H
                                 6461   
  --------------------------     6462   	rseg $$TAB$$S194$main
00:0000                          6463   $$S194 :
00:0000 0A 1B 5B 32 4B 0D 42 44  6464   	DB	"\x0a\x1b[2K\x0dBDJ0601HFV> Temperature Threshold Reached."
00:0008 4A 30 36 30 31 48 46 56   >>>   
00:0010 3E 20 54 65 6D 70 65 72   >>>   
00:0018 61 74 75 72 65 20 54 68   >>>   
00:0020 72 65 73 68 6F 6C 64 20   >>>   
00:0028 52 65 61 63 68 65 64 2E   >>>   ,
00:0030 00                        >>>    00H
                                 6465   
  --------------------------     6466   	rseg $$TAB$$S196$main
00:0000                          6467   $$S196 :
00:0000 0A 1B 5B 32 4B 0D 42 44  6468   	DB	"\x0a\x1b[2K\x0dBDJ0601HFV> Temperature Threshold Not Reached."
00:0008 4A 30 36 30 31 48 46 56   >>>   
00:0010 3E 20 54 65 6D 70 65 72   >>>   
00:0018 61 74 75 72 65 20 54 68   >>>   
00:0020 72 65 73 68 6F 6C 64 20   >>>   
00:0028 4E 6F 74 20 52 65 61 63   >>>   
00:0030 68 65 64 2E 00            >>>   , 00H
                                 6469   
  --------------------------     6470   	rseg $$TAB$$S198$main
00:0000                          6471   $$S198 :
00:0000 1B 5B 31 46 1B 5B 32 4B  6472   	DB	"\x1b[1F\x1b[2K\x0dBDE0600G> Temperature = %.02f[\xc2\xb0C]. Vsenout = %.02f[V]"
00:0008 0D 42 44 45 30 36 30 30   >>>   
00:0010 47 3E 20 54 65 6D 70 65   >>>   
00:0018 72 61 74 75 72 65 20 3D   >>>   
00:0020 20 25 2E 30 32 66 5B C2   >>>   
00:0028 B0 43 5D 2E 20 56 73 65   >>>   
00:0030 6E 6F 75 74 20 3D 20 25   >>>   
00:0038 2E 30 32 66 5B 56 5D 00   >>>   , 00H
                                 6473   
  --------------------------     6474   	rseg $$TAB$$S201$main
00:0000                          6475   $$S201 :
00:0000 0A 1B 5B 32 4B 0D 42 44  6476   	DB	"\x0a\x1b[2K\x0dBDE0600G> Temperature Threshold Reached."
00:0008 45 30 36 30 30 47 3E 20   >>>   
00:0010 54 65 6D 70 65 72 61 74   >>>   
00:0018 75 72 65 20 54 68 72 65   >>>   
00:0020 73 68 6F 6C 64 20 52 65   >>>   
00:0028 61 63 68 65 64 2E 00      >>>   , 00H
                                 6477   
  --------------------------     6478   	rseg $$TAB$$S203$main
00:0000                          6479   $$S203 :
00:0000 0A 1B 5B 32 4B 0D 42 44  6480   	DB	"\x0a\x1b[2K\x0dBDE0600G> Temperature Threshold Not Reached."
00:0008 45 30 36 30 30 47 3E 20   >>>   
00:0010 54 65 6D 70 65 72 61 74   >>>   
00:0018 75 72 65 20 54 68 72 65   >>>   
00:0020 73 68 6F 6C 64 20 4E 6F   >>>   
00:0028 74 20 52 65 61 63 68 65   >>>   
00:0030 64 2E 00                  >>>   , 00H
                                 6481   
  --------------------------     6482   	rseg $$TAB$$S205$main
00:0000                          6483   $$S205 :
00:0000 1B 5B 31 46 1B 5B 32 4B  6484   	DB	"\x1b[1F\x1b[2K\x0dBDJ0550HFV> Temperature = %.02f[\xc2\xb0C]. Vsenout = %.02f[V]"
00:0008 0D 42 44 4A 30 35 35 30   >>>   
00:0010 48 46 56 3E 20 54 65 6D   >>>   
00:0018 70 65 72 61 74 75 72 65   >>>   
00:0020 20 3D 20 25 2E 30 32 66   >>>   
00:0028 5B C2 B0 43 5D 2E 20 56   >>>   
00:0030 73 65 6E 6F 75 74 20 3D   >>>   
00:0038 20 25 2E 30 32 66 5B 56   >>>   
00:0040 5D 00                     >>>   , 00H
                                 6485   
  --------------------------     6486   	rseg $$TAB$$S208$main
00:0000                          6487   $$S208 :
00:0000 0A 1B 5B 32 4B 0D 42 44  6488   	DB	"\x0a\x1b[2K\x0dBDJ0550HFV> Temperature Threshold Reached."
00:0008 4A 30 35 35 30 48 46 56   >>>   
00:0010 3E 20 54 65 6D 70 65 72   >>>   
00:0018 61 74 75 72 65 20 54 68   >>>   
00:0020 72 65 73 68 6F 6C 64 20   >>>   
00:0028 52 65 61 63 68 65 64 2E   >>>   ,
00:0030 00                        >>>    00H
                                 6489   
  --------------------------     6490   	rseg $$TAB$$S210$main
00:0000                          6491   $$S210 :
00:0000 0A 1B 5B 32 4B 0D 42 44  6492   	DB	"\x0a\x1b[2K\x0dBDJ0550HFV> Temperature Threshold Not Reached."
00:0008 4A 30 35 35 30 48 46 56   >>>   
00:0010 3E 20 54 65 6D 70 65 72   >>>   
00:0018 61 74 75 72 65 20 54 68   >>>   
00:0020 72 65 73 68 6F 6C 64 20   >>>   
00:0028 4E 6F 74 20 52 65 61 63   >>>   
00:0030 68 65 64 2E 00            >>>   , 00H
                                 6493   
  --------------------------     6494   	rseg $$NINITVAR
00:0000                          6495   _SensorIntializationFlag :
00:0000                          6496   	ds	01h
                                 6497   
  --------------------------     6498   	rseg $$NVARmain
00:0000                          6499   _SensorPlatformSelection :
00:0000                          6500   	ds	01h
                                 6501   
  --------------------------     6502   	rseg $$NINITTAB
??:0001 00                       6503   	align
                                 6504   
  --------------------------     6505   	rseg $$NINITVAR
00:0001                          6506   	align
                                 6507   	extrn code : __faddu8sw
                                 6508   	extrn code : __fsubu8sw
                                 6509   	extrn code : __fcmpu8sw
                                 6510   	extrn code : __fmulu8sw
                                 6511   	extrn code : __fdivu8sw
                                 6512   	extrn code : __fildu8sw
                                 6513   	extrn code : __ftolu8sw
                                 6514   	extrn code : __ftodu8sw
                                 6515   	extrn code : __fuldu8sw
                                 6516   
                                 6517   	end



  Target       : ML610112 (nX-U8/100)
  Memory Model : SMALL
  Data   Model : NEAR
  ROM WINDOW   : (not specified)
  Internal RAM : E000H to EFFFH

  Errors   : 0
  Warnings : 0  (/Wrpeast)
  Lines    : 6517
